(dp1
I1
(i__main__
FitRecord
p2
(dp3
S'minos_whystring'
p4
S'Minos succeeded.'
p5
sS'errors'
p6
(lp7
F1.0435167325294106
aF0.10000000000000001
aF0.010319769211782438
aF0.063368218142823743
aF0.037184147845237964
aF0.035157348986589163
aF0.043016111324393917
aF0.041445168881492939
aF0.038543239010127503
aF0.053928500673490545
aF0.040354202465776305
aF0.044335843527756463
aF0.046564345701761753
aF0.0507276675667351
aF0.050051883528462092
aF0.10000000000000001
aF0.10000000000000001
aF0.10000000000000001
aF0.10000000000000001
aF0.10000000000000001
aF0.10000000000000001
aF0.10000000000000001
aF0.016688584102557903
aF0.013437161631735993
aF0.023810379930640255
aF0.019522133692681784
asS'minos_errors'
p8
(lp9
(NF0.94693264086548024
tp10
a(NNtp11
a(F-0.010204015982679126
Ntp12
a(F-0.054968639055645793
Ntp13
a(F-0.037181298180440546
Ntp14
a(NF0.035454477018047902
tp15
a(F-0.044851542914960921
F0.044681698274111753
tp16
a(F-0.041219352563649662
F0.04111284590650241
tp17
a(F-0.041224849239003603
F0.041367871903418542
tp18
a(F-0.053644627064002921
F0.054128473514879025
tp19
a(F-0.040657343078819422
F0.040786855791303207
tp20
a(F-0.053900858219006559
F0.053613940671890722
tp21
a(F-0.046491518002015203
F0.04654081288796804
tp22
a(F-0.050609121840634465
F0.050615882409516776
tp23
a(NNtp24
ag11
ag11
ag11
ag11
ag11
ag11
ag11
a(F-0.01269298692116539
F0.012713218189731108
tp25
a(NNtp26
a(NNtp27
a(F-0.018957477887894598
Ntp28
asS'ncalls'
p29
I22965
sS'covariance'
p30
(lp31
(lp32
F1.0546203155418663
aF0
aF-0.0040870182427270394
aF-0.0039095645299599257
aF-0.006405071363149501
aF-0.005081358402884574
aF-0.0039780983294286946
aF-0.019715586691269198
aF0.0013017035650377201
aF-0.0043720251324549896
aF-0.0068982829504701994
aF-0.0063863809350288847
aF-0.0052146389759999178
aF-0.0051626115487116717
aF-0.003538125433976053
aF0
aF0
aF0
aF0
aF0
aF0
aF0
aF0.013535243678104214
aF0.0087816709857257546
aF0.00091083438247246636
aF0.012935894920680155
aa(lp33
F0
aF0
aF0
aF0
aF0
aF0
aF0
aF0
aF0
aF0
aF0
aF0
aF0
aF0
aF0
aF0
aF0
aF0
aF0
aF0
aF0
aF0
aF0
aF0
aF0
aF0
aa(lp34
F-0.0040870182427270394
aF0
aF0.00010563882978567961
aF3.1212568224978923e-06
aF2.6278069510297118e-06
aF-9.3837945214573031e-07
aF-3.5934182443193549e-07
aF4.5097742292564572e-05
aF-1.1440345445895278e-05
aF1.1018390022929789e-05
aF4.6919205121249736e-06
aF1.1276883054219237e-05
aF7.0690847891716279e-06
aF9.385883694900605e-06
aF6.8332993697785359e-06
aF0
aF0
aF0
aF0
aF0
aF0
aF0
aF-4.0785151410630761e-05
aF-2.5356601837668202e-05
aF-1.6911006924049029e-05
aF-3.3991514990431193e-05
aa(lp35
F-0.0039095645299599257
aF0
aF3.1212568224978923e-06
aF0.0037293015914560191
aF1.5119169341633302e-05
aF-7.3309763510111546e-06
aF1.5935863347209091e-05
aF9.9612699752947556e-05
aF-3.9687405515985152e-06
aF1.700113448382678e-05
aF2.8525162773425478e-05
aF2.5479626854108044e-05
aF2.1091259665078764e-05
aF2.0561021188157587e-05
aF1.4037522671082894e-05
aF0
aF0
aF0
aF0
aF0
aF0
aF0
aF-8.5702926293315231e-05
aF-3.3716538548154741e-05
aF-1.5839885850872874e-06
aF-5.0116487320736186e-05
aa(lp36
F-0.006405071363149501
aF0
aF2.6278069510297118e-06
aF1.5119169341633302e-05
aF0.0013821076511861179
aF6.0925291193150684e-05
aF2.8857210911435406e-05
aF0.00010820674112934056
aF-6.3249769875779925e-06
aF2.8017099375842319e-05
aF4.734313497396262e-05
aF4.2116415585722338e-05
aF3.4917697152066576e-05
aF3.3979290291401209e-05
aF2.3188182923531217e-05
aF0
aF0
aF0
aF0
aF0
aF0
aF0
aF-5.5780286095020556e-05
aF-5.5478224602355052e-05
aF-2.2246541179483482e-06
aF-8.2553010031412543e-05
aa(lp37
F-0.005081358402884574
aF0
aF-9.3837945214573031e-07
aF-7.3309763510111546e-06
aF6.0925291193150684e-05
aF0.0012327752712805666
aF2.478180354241713e-05
aF5.4115642482439733e-05
aF-4.802503661941698e-06
aF2.2426361593974532e-05
aF3.8300916736489769e-05
aF3.3865918920045317e-05
aF2.8143719642913303e-05
aF2.7314467710733908e-05
aF1.8627516834977315e-05
aF0
aF0
aF0
aF0
aF0
aF0
aF0
aF5.2128095544209712e-06
aF-4.4304796274157682e-05
aF-1.3144170873693526e-06
aF-6.603541245746754e-05
aa(lp38
F-0.0039780983294286946
aF0
aF-3.5934182443193549e-07
aF1.5935863347209091e-05
aF2.8857210911435406e-05
aF2.478180354241713e-05
aF0.0017943707047401035
aF7.833218254246989e-05
aF-3.7865180359511417e-06
aF1.753240804980257e-05
aF2.9892939109587859e-05
aF2.6456675202718971e-05
aF2.1978266943257472e-05
aF2.1339586580317048e-05
aF1.4554381197233377e-05
aF0
aF0
aF0
aF0
aF0
aF0
aF0
aF-5.0769301857220759e-05
aF-3.4649121272918445e-05
aF-1.0849554105185371e-06
aF-5.1630410506341558e-05
aa(lp39
F-0.019715586691269198
aF0
aF4.5097742292564572e-05
aF9.9612699752947556e-05
aF0.00010820674112934056
aF5.4115642482439733e-05
aF7.833218254246989e-05
aF0.0020428322690109451
aF-2.2104921515786856e-05
aF8.3798299485478571e-05
aF0.00013664410911926346
aF0.00012408704407511511
aF0.00010206579750621117
aF0.0001002151757877423
aF6.8541369605089447e-05
aF0
aF0
aF0
aF0
aF0
aF0
aF0
aF-0.00031353308508797091
aF-0.00016719334158919809
aF-1.2362503465398266e-05
aF-0.00024745664711080836
aa(lp40
F0.0013017035650377201
aF0
aF-1.1440345445895278e-05
aF-3.9687405515985152e-06
aF-6.3249769875779925e-06
aF-4.802503661941698e-06
aF-3.7865180359511417e-06
aF-2.2104921515786856e-05
aF0.0015095745647355986
aF5.7859812099412731e-05
aF4.4980495687604867e-05
aF-6.9230750345116169e-06
aF-5.5005345379052338e-06
aF-5.6156860933087779e-06
aF-3.8771807672138887e-06
aF0
aF0
aF0
aF0
aF0
aF0
aF0
aF1.5875301541991185e-05
aF8.9503796031683834e-05
aF2.0772733758689797e-06
aF1.4817101165391374e-05
aa(lp41
F-0.0043720251324549896
aF0
aF1.1018390022929789e-05
aF1.700113448382678e-05
aF2.8017099375842319e-05
aF2.2426361593974532e-05
aF1.753240804980257e-05
aF8.3798299485478571e-05
aF5.7859812099412731e-05
aF0.0029006258763049132
aF7.5524660386826052e-05
aF2.7364201088796315e-05
aF2.248465945428482e-05
aF2.2102818564546186e-05
aF1.512141995736531e-05
aF0
aF0
aF0
aF0
aF0
aF0
aF0
aF-5.6881447612865392e-05
aF3.2453460861887094e-05
aF-2.8930999673617782e-06
aF-5.4691770782923072e-05
aa(lp42
F-0.0068982829504701994
aF0
aF4.6919205121249736e-06
aF2.8525162773425478e-05
aF4.734313497396262e-05
aF3.8300916736489769e-05
aF2.9892939109587859e-05
aF0.00013664410911926346
aF4.4980495687604867e-05
aF7.5524660386826052e-05
aF0.0016427828492152096
aF4.5080201528265161e-05
aF3.7334063600263204e-05
aF3.6375609520084073e-05
aF2.4831148559534086e-05
aF0
aF0
aF0
aF0
aF0
aF0
aF0
aF-9.1398212969568502e-05
aF-2.193695773590191e-06
aF-2.6733828721548836e-06
aF-8.8575253793755527e-05
aa(lp43
F-0.0063863809350288847
aF0
aF1.1276883054219237e-05
aF2.5479626854108044e-05
aF4.2116415585722338e-05
aF3.3865918920045317e-05
aF2.6456675202718971e-05
aF0.00012408704407511511
aF-6.9230750345116169e-06
aF2.7364201088796315e-05
aF4.5080201528265161e-05
aF0.0020190505239907897
aF1.6563791561816419e-05
aF4.0108204717239047e-05
aF2.2457463450913865e-05
aF0
aF0
aF0
aF0
aF0
aF0
aF0
aF-8.3714922440294564e-05
aF-5.4480025745714209e-05
aF-0.00010655787620095484
aF-8.0756261768694595e-05
aa(lp44
F-0.0052146389759999178
aF0
aF7.0690847891716279e-06
aF2.1091259665078764e-05
aF3.4917697152066576e-05
aF2.8143719642913303e-05
aF2.1978266943257472e-05
aF0.00010206579750621117
aF-5.5005345379052338e-06
aF2.248465945428482e-05
aF3.7334063600263204e-05
aF1.6563791561816419e-05
aF0.0021845175254102053
aF1.935204871617386e-05
aF1.8500893896754732e-05
aF0
aF0
aF0
aF0
aF0
aF0
aF0
aF-6.8633228473231807e-05
aF-4.4690919050786735e-05
aF0.00010728129226550865
aF-6.6323892877753242e-05
aa(lp45
F-0.0051626115487116717
aF0
aF9.385883694900605e-06
aF2.0561021188157587e-05
aF3.3979290291401209e-05
aF2.7314467710733908e-05
aF2.1339586580317048e-05
aF0.0001002151757877423
aF-5.6156860933087779e-06
aF2.2102818564546186e-05
aF3.6375609520084073e-05
aF4.0108204717239047e-05
aF1.935204871617386e-05
aF0.0025719033401517713
aF1.8133452910575269e-05
aF0
aF0
aF0
aF0
aF0
aF0
aF0
aF-6.7638253652621739e-05
aF-4.4014394635547923e-05
aF-4.9766959009169851e-05
aF-6.5233099121578123e-05
aa(lp46
F-0.003538125433976053
aF0
aF6.8332993697785359e-06
aF1.4037522671082894e-05
aF2.3188182923531217e-05
aF1.8627516834977315e-05
aF1.4554381197233377e-05
aF6.8541369605089447e-05
aF-3.8771807672138887e-06
aF1.512141995736531e-05
aF2.4831148559534086e-05
aF2.2457463450913865e-05
aF1.8500893896754732e-05
aF1.8133452910575269e-05
aF0.0025047554782835044
aF0
aF0
aF0
aF0
aF0
aF0
aF0
aF-4.6302873603739247e-05
aF-3.0125943703995615e-05
aF-2.0308202914944497e-06
aF-0.0004442351126612593
aa(lp47
F0
aF0
aF0
aF0
aF0
aF0
aF0
aF0
aF0
aF0
aF0
aF0
aF0
aF0
aF0
aF0
aF0
aF0
aF0
aF0
aF0
aF0
aF0
aF0
aF0
aF0
aa(lp48
F0
aF0
aF0
aF0
aF0
aF0
aF0
aF0
aF0
aF0
aF0
aF0
aF0
aF0
aF0
aF0
aF0
aF0
aF0
aF0
aF0
aF0
aF0
aF0
aF0
aF0
aa(lp49
F0
aF0
aF0
aF0
aF0
aF0
aF0
aF0
aF0
aF0
aF0
aF0
aF0
aF0
aF0
aF0
aF0
aF0
aF0
aF0
aF0
aF0
aF0
aF0
aF0
aF0
aa(lp50
F0
aF0
aF0
aF0
aF0
aF0
aF0
aF0
aF0
aF0
aF0
aF0
aF0
aF0
aF0
aF0
aF0
aF0
aF0
aF0
aF0
aF0
aF0
aF0
aF0
aF0
aa(lp51
F0
aF0
aF0
aF0
aF0
aF0
aF0
aF0
aF0
aF0
aF0
aF0
aF0
aF0
aF0
aF0
aF0
aF0
aF0
aF0
aF0
aF0
aF0
aF0
aF0
aF0
aa(lp52
F0
aF0
aF0
aF0
aF0
aF0
aF0
aF0
aF0
aF0
aF0
aF0
aF0
aF0
aF0
aF0
aF0
aF0
aF0
aF0
aF0
aF0
aF0
aF0
aF0
aF0
aa(lp53
F0
aF0
aF0
aF0
aF0
aF0
aF0
aF0
aF0
aF0
aF0
aF0
aF0
aF0
aF0
aF0
aF0
aF0
aF0
aF0
aF0
aF0
aF0
aF0
aF0
aF0
aa(lp54
F0.013535243678104214
aF0
aF-4.0785151410630761e-05
aF-8.5702926293315231e-05
aF-5.5780286095020556e-05
aF5.2128095544209712e-06
aF-5.0769301857220759e-05
aF-0.00031353308508797091
aF1.5875301541991185e-05
aF-5.6881447612865392e-05
aF-9.1398212969568502e-05
aF-8.3714922440294564e-05
aF-6.8633228473231807e-05
aF-6.7638253652621739e-05
aF-4.6302873603739247e-05
aF0
aF0
aF0
aF0
aF0
aF0
aF0
aF0.00026105488788413821
aF0.00011383329668081202
aF9.9511137640128231e-06
aF0.00016811946453875113
aa(lp55
F0.0087816709857257546
aF0
aF-2.5356601837668202e-05
aF-3.3716538548154741e-05
aF-5.5478224602355052e-05
aF-4.4304796274157682e-05
aF-3.4649121272918445e-05
aF-0.00016719334158919809
aF8.9503796031683834e-05
aF3.2453460861887094e-05
aF-2.193695773590191e-06
aF-5.4480025745714209e-05
aF-4.4690919050786735e-05
aF-4.4014394635547923e-05
aF-3.0125943703995615e-05
aF0
aF0
aF0
aF0
aF0
aF0
aF0
aF0.00011383329668081202
aF0.00016156818706533995
aF6.2916561456797379e-06
aF0.00010927453543669869
aa(lp56
F0.00091083438247246636
aF0
aF-1.6911006924049029e-05
aF-1.5839885850872874e-06
aF-2.2246541179483482e-06
aF-1.3144170873693526e-06
aF-1.0849554105185371e-06
aF-1.2362503465398266e-05
aF2.0772733758689797e-06
aF-2.8930999673617782e-06
aF-2.6733828721548836e-06
aF-0.00010655787620095484
aF0.00010728129226550865
aF-4.9766959009169851e-05
aF-2.0308202914944497e-06
aF0
aF0
aF0
aF0
aF0
aF0
aF0
aF9.9511137640128231e-06
aF6.2916561456797379e-06
aF0.00066909822914517421
aF8.7672590977720706e-06
aa(lp57
F0.012935894920680155
aF0
aF-3.3991514990431193e-05
aF-5.0116487320736186e-05
aF-8.2553010031412543e-05
aF-6.603541245746754e-05
aF-5.1630410506341558e-05
aF-0.00024745664711080836
aF1.4817101165391374e-05
aF-5.4691770782923072e-05
aF-8.8575253793755527e-05
aF-8.0756261768694595e-05
aF-6.6323892877753242e-05
aF-6.5233099121578123e-05
aF-0.0004442351126612593
aF0
aF0
aF0
aF0
aF0
aF0
aF0
aF0.00016811946453875113
aF0.00010927453543669869
aF8.7672590977720706e-06
aF0.00037624180815606689
aasS'edm'
p58
F0.00014427713388881483
sS'values'
p59
(lp60
F324.11239979866019
aF3.796006744456625
aF9.3548231575819418
aF0.33375159202018168
aF0.47657336168065956
aF-0.06987770479994862
aF-0.02320665592069987
aF-0.031537024245605901
aF0.14499924884439994
aF0.35242018182048662
aF0.25010641221676522
aF0.78807359968161017
aF0.55718322574197354
aF0.53511758568526835
aF0.70973667423110198
aF0.052999999999999999
aF0.01864
aF0
aF0.024899999999999999
aF0.19542891761693978
aF0
aF0.079200000000000007
aF3.8199204758486398
aF3.8146693744933611
aF3.7185590411007992
aF3.7333303122970118
asS'fmin'
p61
F272.33862052730109
sS'whystring'
p62
S'Minuit succeeded.'
p63
sS'fval'
p64
F272.33848319695255
sbsI2
(i__main__
FitRecord
p65
(dp66
g4
g5
sg6
(lp67
F0.81613261211315891
aF0.029876101818245241
aF0.0073021719810084859
aF0.080960090168519627
aF0.067444989177355363
aF0.081790399399404259
aF0.053354322368624446
aF0.092337583984569788
aF0.08372930911616816
aF0.10000000000000001
aF0.10000000000000001
aF0.10000000000000001
aF0.10000000000000001
aF0.10000000000000001
aF0.10000000000000001
aF0.10000000000000001
aF0.10000000000000001
asg8
(lp68
(F-0.93152347710613281
F0.94197040688040123
tp69
a(F-0.03817327777139131
F0.038982168049511802
tp70
a(F-0.007314396132530529
F0.0073111395011108181
tp71
a(F-0.080808693517467611
F0.081182592729887329
tp72
a(F-0.067873658849302729
F0.067949548954522765
tp73
a(F-0.082171682259769716
F0.08177750850135905
tp74
a(F-0.053664289350478997
F0.053710273085545206
tp75
a(F-0.092914435626008207
F0.093305943832920679
tp76
a(F-0.091198188875459676
F0.090257926944210295
tp77
ag11
ag11
ag11
ag11
ag11
ag11
ag11
ag11
asg29
I2756
sg30
(lp78
(lp79
F0.68062168432733827
aF0.017499970957454359
aF-0.0012257603780035811
aF-0.0018899099255914131
aF-0.014184641194707684
aF-0.0076242354989092603
aF-0.0068429704173336376
aF-0.01244579952599539
aF0.0018884976539316495
aF0
aF0
aF0
aF0
aF0
aF0
aF0
aF0
aa(lp80
F0.017499970957454359
aF0.000933851936885067
aF-1.4820566728344867e-05
aF0.00010479031367166407
aF-0.00029820897071769503
aF-0.00020119898485463614
aF-9.2859929952004305e-05
aF-0.00014452360602804358
aF-0.0001036538349351081
aF0
aF0
aF0
aF0
aF0
aF0
aF0
aF0
aa(lp81
F-0.0012257603780035811
aF-1.4820566728344867e-05
aF5.333206768053614e-05
aF1.4668868672716246e-06
aF-4.0239919684244783e-06
aF8.1801851873970232e-08
aF-1.9653969054001726e-06
aF-3.6277918338276308e-08
aF-3.1534264139583468e-06
aF0
aF0
aF0
aF0
aF0
aF0
aF0
aF0
aa(lp82
F-0.0018899099255914131
aF0.00010479031367166407
aF1.4668868672716246e-06
aF0.0065550497074273488
aF6.5023697290318873e-05
aF2.1459287843477788e-05
aF4.779038093449177e-05
aF9.4257850430552303e-05
aF-5.4277186903348317e-05
aF0
aF0
aF0
aF0
aF0
aF0
aF0
aF0
aa(lp83
F-0.014184641194707684
aF-0.00029820897071769503
aF-4.0239919684244783e-06
aF6.5023697290318873e-05
aF0.004553057925316335
aF0.00016667600473033663
aF0.00016484542316391233
aF0.00030146453650934074
aF-6.3742830467747481e-05
aF0
aF0
aF0
aF0
aF0
aF0
aF0
aF0
aa(lp84
F-0.0076242354989092603
aF-0.00020119898485463614
aF8.1801851873970232e-08
aF2.1459287843477788e-05
aF0.00016667600473033663
aF0.0066915916263346606
aF8.0338855870391894e-05
aF0.00014513896615889432
aF-2.0995079878945314e-05
aF0
aF0
aF0
aF0
aF0
aF0
aF0
aF0
aa(lp85
F-0.0068429704173336376
aF-9.2859929952004305e-05
aF-1.9653969054001726e-06
aF4.779038093449177e-05
aF0.00016484542316391233
aF8.0338855870391894e-05
aF0.0028469524618165818
aF0.0001649342184811852
aF-4.6987816325418276e-05
aF0
aF0
aF0
aF0
aF0
aF0
aF0
aF0
aa(lp86
F-0.01244579952599539
aF-0.00014452360602804358
aF-3.6277918338276308e-08
aF9.4257850430552303e-05
aF0.00030146453650934074
aF0.00014513896615889432
aF0.0001649342184811852
aF0.0085281767635126439
aF-9.2831410600406451e-05
aF0
aF0
aF0
aF0
aF0
aF0
aF0
aF0
aa(lp87
F0.0018884976539316495
aF-0.0001036538349351081
aF-3.1534264139583468e-06
aF-5.4277186903348317e-05
aF-6.3742830467747481e-05
aF-2.0995079878945314e-05
aF-4.6987816325418276e-05
aF-9.2831410600406451e-05
aF0.0069666710421305801
aF0
aF0
aF0
aF0
aF0
aF0
aF0
aF0
aa(lp88
F0
aF0
aF0
aF0
aF0
aF0
aF0
aF0
aF0
aF0
aF0
aF0
aF0
aF0
aF0
aF0
aF0
aa(lp89
F0
aF0
aF0
aF0
aF0
aF0
aF0
aF0
aF0
aF0
aF0
aF0
aF0
aF0
aF0
aF0
aF0
aa(lp90
F0
aF0
aF0
aF0
aF0
aF0
aF0
aF0
aF0
aF0
aF0
aF0
aF0
aF0
aF0
aF0
aF0
aa(lp91
F0
aF0
aF0
aF0
aF0
aF0
aF0
aF0
aF0
aF0
aF0
aF0
aF0
aF0
aF0
aF0
aF0
aa(lp92
F0
aF0
aF0
aF0
aF0
aF0
aF0
aF0
aF0
aF0
aF0
aF0
aF0
aF0
aF0
aF0
aF0
aa(lp93
F0
aF0
aF0
aF0
aF0
aF0
aF0
aF0
aF0
aF0
aF0
aF0
aF0
aF0
aF0
aF0
aF0
aa(lp94
F0
aF0
aF0
aF0
aF0
aF0
aF0
aF0
aF0
aF0
aF0
aF0
aF0
aF0
aF0
aF0
aF0
aa(lp95
F0
aF0
aF0
aF0
aF0
aF0
aF0
aF0
aF0
aF0
aF0
aF0
aF0
aF0
aF0
aF0
aF0
aasg58
F3.927864602393868e-06
sg59
(lp96
F133.64467476654562
aF4.1874090811498856
aF9.3183031940236916
aF-1.3114082995170264
aF-1.2072213305875277
aF-1.1381630212661569
aF-0.79846399303925186
aF-0.81440432126140705
aF-0.66146653788504295
aF0.042999999999999997
aF0.017919999999999998
aF0
aF0.020299999999999999
aF0.23971330288974388
aF0
aF0.079200000000000007
aF324.11239979866019
asg61
F108.46339048768202
sg62
g63
sg64
F108.46339048768202
sbsI3
(i__main__
FitRecord
p97
(dp98
g4
g5
sg6
(lp99
F0.84882993912933258
aF0.10000000000000001
aF0.011431981018493496
aF0.16706435821522383
aF0.12630723469243435
aF0.16624571698659951
aF0.15969672430129825
aF0.1086332656651426
aF0.12823605150590672
aF0.16496821752911131
aF0.10000000000000001
aF0.10000000000000001
aF0.10000000000000001
aF0.10000000000000001
aF0.10000000000000001
aF0.10000000000000001
aF0.10000000000000001
aF0.10000000000000001
aF0.10000000000000001
aF0.068161778112019705
aF0.060016486603872078
aF0.056322408187352617
aF0.070145408267743459
aF0.098664862075499543
aF0.070350091753833027
aF0.059274773903947524
asg8
(lp100
(F-0.87435946973065715
F0.87797294844752083
tp101
ag11
a(F-0.011460895155753201
F0.011454429665787084
tp102
a(F-0.16533417681951854
F0.16772626257945222
tp103
a(F-0.12615320117136264
F0.12771215308160491
tp104
a(F-0.16677420098296022
F0.16722937526376139
tp105
a(F-0.16141634815878561
F0.16102210319050236
tp106
a(F-0.10902395040108455
F0.10999647053403619
tp107
a(F-0.12811396399068725
F0.12884111354614325
tp108
a(F-0.16395135920067877
F0.16612695951331274
tp109
ag11
ag11
ag11
ag11
ag11
ag11
ag11
ag11
ag11
a(F-0.069566586678146414
F0.069698299459128629
tp110
a(F-0.061798319704241537
F0.062160388666940604
tp111
a(F-0.058210378201416738
F0.058744530095426732
tp112
a(F-0.071742605990618824
F0.072846719509005384
tp113
a(F-0.10182311848578995
F0.10456029738477904
tp114
a(F-0.065225485882361073
F0.06633220449388047
tp115
a(F-0.060415554790964533
F0.060374578965985859
tp116
asg29
I11743
sg30
(lp117
(lp118
F0.68562414968101049
aF0
aF-0.0043470186605745354
aF-0.0082986597921163724
aF-0.0036368651059183825
aF-0.0053367174878726081
aF0.011403088685225804
aF-0.0035237014185143913
aF-0.016759278723339068
aF-0.017828889498393487
aF0
aF0
aF0
aF0
aF0
aF0
aF0
aF0
aF0
aF0.031318017050689741
aF0.034851192085856693
aF0.033954103072375515
aF0.031674524746115554
aF0.017729891939448465
aF0.031806439140695468
aF0.031971725041627881
aa(lp119
F0
aF0
aF0
aF0
aF0
aF0
aF0
aF0
aF0
aF0
aF0
aF0
aF0
aF0
aF0
aF0
aF0
aF0
aF0
aF0
aF0
aF0
aF0
aF0
aF0
aF0
aa(lp120
F-0.0043470186605745354
aF0
aF0.00013004373340388451
aF-2.1966324318300449e-05
aF-1.5071084651928911e-05
aF6.8088409587394865e-06
aF-4.2237489546806652e-05
aF-2.6937514679026187e-05
aF-3.7903186409681458e-06
aF-3.0193665734892009e-06
aF0
aF0
aF0
aF0
aF0
aF0
aF0
aF0
aF0
aF-0.00013513982885369417
aF-0.0001385595302562037
aF-0.00013138396133493996
aF-0.00012606341704265417
aF-0.00017385228970718438
aF-0.00015281896037135057
aF-0.00013409302931554373
aa(lp121
F-0.0082986597921163724
aF0
aF-2.1966324318300449e-05
aF0.028261997748463649
aF7.1768790489269211e-05
aF8.4263644056938549e-05
aF-0.00015989747390626033
aF7.8512728611474929e-05
aF0.00028293859983513842
aF0.00030025917978406533
aF0
aF0
aF0
aF0
aF0
aF0
aF0
aF0
aF0
aF0.0052273667889344956
aF-0.00048180243238647204
aF-0.00047202699814636223
aF-0.00043778923827492833
aF-0.0001698856909673895
aF-0.00042052319941914018
aF-0.00043691425213009588
aa(lp122
F-0.0036368651059183825
aF0
aF-1.5071084651928911e-05
aF7.1768790489269211e-05
aF0.015974506457334493
aF3.836413712071827e-05
aF-7.1671613164130349e-05
aF3.7025922983476837e-05
aF0.00012984339626541627
aF0.00013775340544582224
aF0
aF0
aF0
aF0
aF0
aF0
aF0
aF0
aF0
aF-0.00018972257439360492
aF0.0020628968833453615
aF-0.00021132137848364649
aF-0.00019583160767128278
aF-7.1187902356448603e-05
aF-0.00018688785166037913
aF-0.00019512167791871222
aa(lp123
F-0.0053367174878726081
aF0
aF6.8088409587394865e-06
aF8.4263644056938549e-05
aF3.836413712071827e-05
aF0.027150617410495001
aF-9.6686397239572388e-05
aF4.0423553925121662e-05
aF0.00015947222500071784
aF0.00016938293574596152
aF0
aF0
aF0
aF0
aF0
aF0
aF0
aF0
aF0
aF-0.00026049760463336697
aF-0.00029300478882642185
aF-0.00015374162786118269
aF-0.00026626234977115981
aF-0.00012180139224043263
aF-0.00026045360280556806
aF-0.0002669550126230018
aa(lp124
F0.011403088685225804
aF0
aF-4.2237489546806652e-05
aF-0.00015989747390626033
aF-7.1671613164130349e-05
aF-9.6686397239572388e-05
aF0.023261887409727382
aF-7.3059792993262817e-05
aF-0.00031101505871004696
aF-0.00033056757567375902
aF0
aF0
aF0
aF0
aF0
aF0
aF0
aF0
aF0
aF0.00053947539601781845
aF0.00060380581688016465
aF0.00058932212211693655
aF0.00085824232977152264
aF0.00027685597227288281
aF0.0005433212809939752
aF0.0005518704478681204
aa(lp125
F-0.0035237014185143913
aF0
aF-2.6937514679026187e-05
aF7.8512728611474929e-05
aF3.7025922983476837e-05
aF4.0423553925121662e-05
aF-7.3059792993262817e-05
aF0.010924702499254193
aF0.00013904921475545366
aF0.00014743658329478007
aF0
aF0
aF0
aF0
aF0
aF0
aF0
aF0
aF0
aF-0.00019145326007063296
aF-0.00021873889126714874
aF-0.00021484379866630241
aF-0.00019873675984144598
aF0.0020045651370453094
aF-0.00018695152459348406
aF-0.00019730923830748177
aa(lp126
F-0.016759278723339068
aF0
aF-3.7903186409681458e-06
aF0.00028293859983513842
aF0.00012984339626541627
aF0.00015947222500071784
aF-0.00031101505871004696
aF0.00013904921475545366
aF0.016434371936537247
aF0.00056043273520124779
aF0
aF0
aF0
aF0
aF0
aF0
aF0
aF0
aF0
aF-0.00083363806905348324
aF-0.00094038510681665412
aF-0.0009200544658916471
aF-0.00085452614627075862
aF-0.00036741015489967206
aF0.00066604277404946107
aF-0.00085519190836895248
aa(lp127
F-0.017828889498393487
aF0
aF-3.0193665734892009e-06
aF0.00030025917978406533
aF0.00013775340544582224
aF0.00016938293574596152
aF-0.00033056757567375902
aF0.00014743658329478007
aF0.00056043273520124779
aF0.027133223081803364
aF0
aF0
aF0
aF0
aF0
aF0
aF0
aF0
aF0
aF-0.00088621569849074819
aF-0.00099958794552970436
aF-0.00097794505602555532
aF-0.00090832484409444014
aF-0.00039146623845092061
aF-0.00088240238046896505
aF0.003414195426890425
aa(lp128
F0
aF0
aF0
aF0
aF0
aF0
aF0
aF0
aF0
aF0
aF0
aF0
aF0
aF0
aF0
aF0
aF0
aF0
aF0
aF0
aF0
aF0
aF0
aF0
aF0
aF0
aa(lp129
F0
aF0
aF0
aF0
aF0
aF0
aF0
aF0
aF0
aF0
aF0
aF0
aF0
aF0
aF0
aF0
aF0
aF0
aF0
aF0
aF0
aF0
aF0
aF0
aF0
aF0
aa(lp130
F0
aF0
aF0
aF0
aF0
aF0
aF0
aF0
aF0
aF0
aF0
aF0
aF0
aF0
aF0
aF0
aF0
aF0
aF0
aF0
aF0
aF0
aF0
aF0
aF0
aF0
aa(lp131
F0
aF0
aF0
aF0
aF0
aF0
aF0
aF0
aF0
aF0
aF0
aF0
aF0
aF0
aF0
aF0
aF0
aF0
aF0
aF0
aF0
aF0
aF0
aF0
aF0
aF0
aa(lp132
F0
aF0
aF0
aF0
aF0
aF0
aF0
aF0
aF0
aF0
aF0
aF0
aF0
aF0
aF0
aF0
aF0
aF0
aF0
aF0
aF0
aF0
aF0
aF0
aF0
aF0
aa(lp133
F0
aF0
aF0
aF0
aF0
aF0
aF0
aF0
aF0
aF0
aF0
aF0
aF0
aF0
aF0
aF0
aF0
aF0
aF0
aF0
aF0
aF0
aF0
aF0
aF0
aF0
aa(lp134
F0
aF0
aF0
aF0
aF0
aF0
aF0
aF0
aF0
aF0
aF0
aF0
aF0
aF0
aF0
aF0
aF0
aF0
aF0
aF0
aF0
aF0
aF0
aF0
aF0
aF0
aa(lp135
F0
aF0
aF0
aF0
aF0
aF0
aF0
aF0
aF0
aF0
aF0
aF0
aF0
aF0
aF0
aF0
aF0
aF0
aF0
aF0
aF0
aF0
aF0
aF0
aF0
aF0
aa(lp136
F0
aF0
aF0
aF0
aF0
aF0
aF0
aF0
aF0
aF0
aF0
aF0
aF0
aF0
aF0
aF0
aF0
aF0
aF0
aF0
aF0
aF0
aF0
aF0
aF0
aF0
aa(lp137
F0.031318017050689741
aF0
aF-0.00013513982885369417
aF0.0052273667889344956
aF-0.00018972257439360492
aF-0.00026049760463336697
aF0.00053947539601781845
aF-0.00019145326007063296
aF-0.00083363806905348324
aF-0.00088621569849074819
aF0
aF0
aF0
aF0
aF0
aF0
aF0
aF0
aF0
aF0.0047067472368143085
aF0.0016429350987847754
aF0.0016028785344305793
aF0.0014930998228811271
aF0.00077184403749959484
aF0.0014830847343794602
aF0.0015028722123423116
aa(lp138
F0.034851192085856693
aF0
aF-0.0001385595302562037
aF-0.00048180243238647204
aF0.0020628968833453615
aF-0.00029300478882642185
aF0.00060380581688016465
aF-0.00021873889126714874
aF-0.00094038510681665412
aF-0.00099958794552970436
aF0
aF0
aF0
aF0
aF0
aF0
aF0
aF0
aF0
aF0.0016429350987847754
aF0.0035629251953624066
aF0.0017933900128578315
aF0.0016701726310125273
aF0.00085183034106575131
aF0.001656036669286076
aF0.0016803383513293972
aa(lp139
F0.033954103072375515
aF0
aF-0.00013138396133493996
aF-0.00047202699814636223
aF-0.00021132137848364649
aF-0.00015374162786118269
aF0.00058932212211693655
aF-0.00021484379866630241
aF-0.0009200544658916471
aF-0.00097794505602555532
aF0
aF0
aF0
aF0
aF0
aF0
aF0
aF0
aF0
aF0.0016028785344305793
aF0.0017933900128578315
aF0.0030493451469011221
aF0.0016298141858873225
aF0.00082774009826136583
aF0.0016151293358201812
aF0.0016395018257998294
aa(lp140
F0.031674524746115554
aF0
aF-0.00012606341704265417
aF-0.00043778923827492833
aF-0.00019583160767128278
aF-0.00026626234977115981
aF0.00085824232977152264
aF-0.00019873675984144598
aF-0.00085452614627075862
aF-0.00090832484409444014
aF0
aF0
aF0
aF0
aF0
aF0
aF0
aF0
aF0
aF0.0014930998228811271
aF0.0016701726310125273
aF0.0016298141858873225
aF0.0042675936967535265
aF0.0007742665095408814
aF0.0015050261894514227
aF0.0015270870268162789
aa(lp141
F0.017729891939448465
aF0
aF-0.00017385228970718438
aF-0.0001698856909673895
aF-7.1187902356448603e-05
aF-0.00012180139224043263
aF0.00027685597227288281
aF0.0020045651370453094
aF-0.00036741015489967206
aF-0.00039146623845092061
aF0
aF0
aF0
aF0
aF0
aF0
aF0
aF0
aF0
aF0.00077184403749959484
aF0.00085183034106575131
aF0.00082774009826136583
aF0.0007742665095408814
aF0.0096626169995061555
aF0.00079321686873618218
aF0.00078563619710024979
aa(lp142
F0.031806439140695468
aF0
aF-0.00015281896037135057
aF-0.00042052319941914018
aF-0.00018688785166037913
aF-0.00026045360280556806
aF0.0005433212809939752
aF-0.00018695152459348406
aF0.00066604277404946107
aF-0.00088240238046896505
aF0
aF0
aF0
aF0
aF0
aF0
aF0
aF0
aF0
aF0.0014830847343794602
aF0.001656036669286076
aF0.0016151293358201812
aF0.0015050261894514227
aF0.00079321686873618218
aF0.0047047088298821146
aF0.0015158847210804864
aa(lp143
F0.031971725041627881
aF0
aF-0.00013409302931554373
aF-0.00043691425213009588
aF-0.00019512167791871222
aF-0.0002669550126230018
aF0.0005518704478681204
aF-0.00019730923830748177
aF-0.00085519190836895248
aF0.003414195426890425
aF0
aF0
aF0
aF0
aF0
aF0
aF0
aF0
aF0
aF0.0015028722123423116
aF0.0016803383513293972
aF0.0016395018257998294
aF0.0015270870268162789
aF0.00078563619710024979
aF0.0015158847210804864
aF0.0034383833133025915
aasg58
F3.535455065296237e-07
sg59
(lp144
F89.193028975329156
aF4.6825610054788553
aF9.3148818191497362
aF-3.3705873707782228
aF-3.9620827140546497
aF-2.8602140699860876
aF-2.7425431995715144
aF-2.7438697460055357
aF-2.9053088490578483
aF-2.9936084815006678
aF0.0263
aF0.01823
aF0
aF0.023900000000000001
aF0.20360585977664436
aF0
aF0.079200000000000007
aF324.11239979866019
aF133.64467476654562
aF4.6646037566554632
aF4.6932475014635129
aF4.6849398512731586
aF4.7496459112752136
aF4.7993745494675348
aF4.515757280089792
aF4.6763725129526978
asg61
F153.94254740515336
sg62
g63
sg64
F153.94239169452817
sbs.