(dp1
I1
(i__main__
FitRecord
p2
(dp3
S'minos_whystring'
p4
S'Minos succeeded.'
p5
sS'errors'
p6
(lp7
F2.1328763250931511
aF0.10000000000000001
aF0.020683689490222031
aF0.11690128737397908
aF0.099862523372726178
aF0.092761682286021246
aF0.10711261315536678
aF0.09693617770647335
aF0.10076056753017239
aF0.11934077549720841
aF0.10315497830012219
aF0.11748935213431616
aF0.12559722295622297
aF0.10530163058344558
aF0.10000000000000001
aF0.10000000000000001
aF0.10000000000000001
aF0.10000000000000001
aF0.10000000000000001
aF0.10000000000000001
aF0.10000000000000001
aF0.029178121725678349
aF0.032075984501454415
aF0.040647190301502878
asS'minos_errors'
p8
(lp9
(F-2.1310990099145681
F2.1180861707298462
tp10
a(NNtp11
a(F-0.021869825968856088
F0.021899274950328805
tp12
a(F-0.12216735648442996
F0.12119544146585599
tp13
a(F-0.095999634684765814
F0.096207351423036214
tp14
a(F-0.095061513602647058
F0.096757536292466001
tp15
a(F-0.10496443511232027
F0.10436568859696818
tp16
a(F-0.098767340371968604
F0.098681133011054314
tp17
a(F-0.099800615501336842
F0.10022611727215018
tp18
a(F-0.11994435071800257
F0.12240831943079518
tp19
a(F-0.10349654821287613
F0.10353783001087459
tp20
a(F-0.11930323222830477
F0.11957515519819548
tp21
a(F-0.12738860449864431
F0.12750763854364836
tp22
a(F-0.11254042517100749
F0.11062297923684276
tp23
ag11
ag11
ag11
ag11
ag11
ag11
ag11
a(F-0.030000993665047038
F0.029860186914902269
tp24
a(F-0.034406557513384298
F0.034484034347176541
tp25
a(F-0.042239439633726533
F0.041686112482701959
tp26
asS'ncalls'
p27
I14139
sS'covariance'
p28
NsS'edm'
p29
F0
sS'values'
p30
(lp31
F317.35941648063954
aF3.7659329887856594
aF9.3498153877125478
aF0.23961189166293789
aF0.54147017634918659
aF0.16090839035802457
aF0.058697992208102463
aF0.1665561182182439
aF0.1194132068733422
aF0.23240436370687678
aF0.57480568895377149
aF0.78989565344345114
aF0.45259647712043627
aF0.83217134795704895
aF0.052999999999999999
aF0.01864
aF0
aF0.024899999999999999
aF0.19542891761693978
aF0
aF0.079200000000000007
aF3.7801806745453361
aF3.784082417045314
aF3.7133980339670063
asS'fmin'
p32
F205.81350194354076
sS'whystring'
p33
S'Minuit succeeded.'
p34
sS'fval'
p35
F205.81400156858638
sbsI2
(i__main__
FitRecord
p36
(dp37
g4
g5
sg6
(lp38
F1.3829316071444926
aF0.0001149231129672722
aF0.015906228711360701
aF0.20176984279587037
aF0.15476926618770656
aF0.0027737454888093903
aF0.050679323286240884
aF0.22226715717837223
aF0.20453101067882401
aF0.10000000000000001
aF0.10000000000000001
aF0.10000000000000001
aF0.10000000000000001
aF0.10000000000000001
aF0.10000000000000001
aF0.10000000000000001
aF0.10000000000000001
asg8
(lp39
(F-1.3994530406701098
Ntp40
a(NNtp41
a(F-0.015692069513181521
F0.015630956748531405
tp42
a(F-0.2004890743144177
F0.20243960090911994
tp43
a(F-0.15383086288424325
F0.15567432200756293
tp44
a(NNtp45
a(F-0.12801106143698582
F0.1269421626432311
tp46
a(F-0.21744380547360195
F0.22383631323740058
tp47
a(F-0.20603323156913006
Ntp48
ag11
ag11
ag11
ag11
ag11
ag11
ag11
ag11
asg27
I5408
sg28
(lp49
(lp50
F1.9403022077334904
aF0.00011381568023027
aF-0.0043895755723988746
aF-0.013046323589086596
aF-0.04684857393185636
aF-8.631109140615942e-06
aF-0.016898028995436583
aF-0.055515310230846993
aF0.029495110536967354
aF0
aF0
aF0
aF0
aF0
aF0
aF0
aF0
aa(lp51
F0.00011381568023027
aF6.3651468902038807e-06
aF-1.0663366367481344e-07
aF1.2797687604067397e-06
aF-1.6039823007832522e-06
aF-6.7281814207853634e-11
aF-5.270467034664584e-07
aF-3.0787577920365776e-07
aF-2.9960373646345065e-07
aF0
aF0
aF0
aF0
aF0
aF0
aF0
aF0
aa(lp52
F-0.0043895755723988746
aF-1.0663366367481344e-07
aF0.00024427628722192385
aF2.4940137920318661e-05
aF-3.556213251985154e-05
aF-2.3003388984303412e-09
aF-9.6980966290282679e-06
aF-2.9155297526454749e-06
aF-1.8634342291532983e-05
aF0
aF0
aF0
aF0
aF0
aF0
aF0
aF0
aa(lp53
F-0.013046323589086596
aF1.2797687604067397e-06
aF2.4940137920318661e-05
aF0.040468636145327801
aF0.00031816440995161395
aF5.8606585375052835e-08
aF0.00011471505125032738
aF0.00037676230275026994
aF-0.00019992362608030255
aF0
aF0
aF0
aF0
aF0
aF0
aF0
aF0
aa(lp54
F-0.04684857393185636
aF-1.6039823007832522e-06
aF-3.556213251985154e-05
aF0.00031816440995161395
aF0.023918450287081276
aF2.2166966112213478e-07
aF0.00043704737877494417
aF0.0014186265961434203
aF-0.00074160826987377008
aF0
aF0
aF0
aF0
aF0
aF0
aF0
aF0
aa(lp55
F-8.631109140615942e-06
aF-6.7281814207853634e-11
aF-2.3003388984303412e-09
aF5.8606585375052835e-08
aF2.2166966112213478e-07
aF5.9419261779066897e-06
aF7.9667154085433911e-08
aF2.5913566273039208e-07
aF-1.3583019432302007e-07
aF0
aF0
aF0
aF0
aF0
aF0
aF0
aF0
aa(lp56
F-0.016898028995436583
aF-5.270467034664584e-07
aF-9.6980966290282679e-06
aF0.00011471505125032738
aF0.00043704737877494417
aF7.9667154085433911e-08
aF0.0093643960534086149
aF0.00050999874404953249
aF-0.00026686802382744416
aF0
aF0
aF0
aF0
aF0
aF0
aF0
aF0
aa(lp57
F-0.055515310230846993
aF-3.0787577920365776e-07
aF-2.9155297526454749e-06
aF0.00037676230275026994
aF0.0014186265961434203
aF2.5913566273039208e-07
aF0.00050999874404953249
aF0.048526605684928267
aF-0.00087125998117811281
aF0
aF0
aF0
aF0
aF0
aF0
aF0
aF0
aa(lp58
F0.029495110536967354
aF-2.9960373646345065e-07
aF-1.8634342291532983e-05
aF-0.00019992362608030255
aF-0.00074160826987377008
aF-1.3583019432302007e-07
aF-0.00026686802382744416
aF-0.00087125998117811281
aF0.041524769783983922
aF0
aF0
aF0
aF0
aF0
aF0
aF0
aF0
aa(lp59
F0
aF0
aF0
aF0
aF0
aF0
aF0
aF0
aF0
aF0
aF0
aF0
aF0
aF0
aF0
aF0
aF0
aa(lp60
F0
aF0
aF0
aF0
aF0
aF0
aF0
aF0
aF0
aF0
aF0
aF0
aF0
aF0
aF0
aF0
aF0
aa(lp61
F0
aF0
aF0
aF0
aF0
aF0
aF0
aF0
aF0
aF0
aF0
aF0
aF0
aF0
aF0
aF0
aF0
aa(lp62
F0
aF0
aF0
aF0
aF0
aF0
aF0
aF0
aF0
aF0
aF0
aF0
aF0
aF0
aF0
aF0
aF0
aa(lp63
F0
aF0
aF0
aF0
aF0
aF0
aF0
aF0
aF0
aF0
aF0
aF0
aF0
aF0
aF0
aF0
aF0
aa(lp64
F0
aF0
aF0
aF0
aF0
aF0
aF0
aF0
aF0
aF0
aF0
aF0
aF0
aF0
aF0
aF0
aF0
aa(lp65
F0
aF0
aF0
aF0
aF0
aF0
aF0
aF0
aF0
aF0
aF0
aF0
aF0
aF0
aF0
aF0
aF0
aa(lp66
F0
aF0
aF0
aF0
aF0
aF0
aF0
aF0
aF0
aF0
aF0
aF0
aF0
aF0
aF0
aF0
aF0
aasg29
F7.8021527323964932e-07
sg30
(lp67
F132.69719205527326
aF4.1630830407145805
aF9.3315330082442838
aF-1.0386304278322263
aF-1.0796224226981455
aF-1.5134657326661396
aF-0.77043098790732667
aF-0.68462123296455935
aF-0.39200238579863067
aF0.042999999999999997
aF0.017919999999999998
aF0
aF0.020299999999999999
aF0.23971330288974388
aF0
aF0.079200000000000007
aF317.35941648063954
asg32
F57.606574687919888
sg33
g34
sg35
F57.606574687919888
sbsI3
(i__main__
FitRecord
p68
(dp69
g4
g5
sg6
(lp70
F1.6080295251702099
aF0.10000000000000001
aF0.024077467661086194
aF0.43149410342566147
aF0.27793951098927305
aF0.32565164277698322
aF0.38422969800271106
aF0.20357425506085031
aF0.31315141890898102
aF0.38999017262584768
aF0.10000000000000001
aF0.10000000000000001
aF0.10000000000000001
aF0.10000000000000001
aF0.10000000000000001
aF0.10000000000000001
aF0.10000000000000001
aF0.10000000000000001
aF0.10000000000000001
aF0.14481903543065608
aF0.12320101186499463
aF0.10305142527762946
aF0.17366356453332096
aF0.19198634473516371
aF0.15158832476170808
aF0.11993024837849905
asg8
(lp71
(F-1.9174905033691361
F1.9159908477264329
tp72
ag11
a(F-0.024388631297241233
F0.024363089607509082
tp73
a(F-0.42090535774571619
F0.42157151988163055
tp74
a(F-0.27407785577182769
F0.28469448648494194
tp75
a(F-0.34316158658989093
F0.35047774480777882
tp76
a(F-0.37567610569125442
F0.36535005763835682
tp77
a(F-0.20138311641582582
F0.20767953392137947
tp78
a(F-0.3066365130802422
F0.31029754439163826
tp79
a(F-0.38123660139389404
F0.3849773971514569
tp80
ag11
ag11
ag11
ag11
ag11
ag11
ag11
ag11
ag11
a(F-0.1511448278713059
F0.1540214629731273
tp81
a(F-0.14309527093238483
F0.14263206496206032
tp82
a(F-0.13330382994522919
F0.13479565111398134
tp83
a(F-0.17693391797609723
F0.17815583060989673
tp84
a(F-0.19876694876942011
F0.20946151636167165
tp85
a(F-0.1523729802674125
F0.15737130386105536
tp86
a(F-0.12794753951300389
F0.13024704927468506
tp87
asg27
I15644
sg28
(lp88
(lp89
F2.7267546445412165
aF0
aF-0.017251446167991659
aF-0.096238818669474258
aF-0.03355275516584981
aF0.10034286348415161
aF0.0033484114971748719
aF-0.026958766468563537
aF-0.051590325369008476
aF-0.092897159867842
aF0
aF0
aF0
aF0
aF0
aF0
aF0
aF0
aF0
aF0.14987232049891325
aF0.12551624180658957
aF0.11071540824583004
aF0.15445306043359219
aF0.042518018429446205
aF0.12585212064409737
aF0.14365536675564386
aa(lp90
F0
aF0
aF0
aF0
aF0
aF0
aF0
aF0
aF0
aF0
aF0
aF0
aF0
aF0
aF0
aF0
aF0
aF0
aF0
aF0
aF0
aF0
aF0
aF0
aF0
aF0
aa(lp91
F-0.017251446167991659
aF0
aF0.00058140045959304649
aF0.00018589856182221667
aF-4.2523714066161614e-05
aF-0.00044163576534494357
aF8.7006136275580366e-05
aF-3.595403909740732e-05
aF-0.00020980316378891797
aF2.7611135589227617e-05
aF0
aF0
aF0
aF0
aF0
aF0
aF0
aF0
aF0
aF-0.00053233981381409755
aF-0.00048192910837564074
aF-0.00040655874888943658
aF-0.00058014324727264559
aF-0.00057485745682644258
aF-0.00058598981928835491
aF-0.00051886381479134761
aa(lp92
F-0.096238818669474258
aF0
aF0.00018589856182221667
aF0.18645139054120172
aF0.0014124361176762268
aF-0.0037145752432890104
aF-0.00021508144824273232
aF0.0011364565689855068
aF0.0023010954296561526
aF0.0037804168420813595
aF0
aF0
aF0
aF0
aF0
aF0
aF0
aF0
aF0
aF-0.010061944733233656
aF-0.0047096092202355191
aF-0.004170860438599629
aF-0.0058069198047858714
aF-0.0012266992111180405
aF-0.0046301643789834583
aF-0.0054195224098360344
aa(lp93
F-0.03355275516584981
aF0
aF-4.2523714066161614e-05
aF0.0014124361176762268
aF0.077326471971703517
aF-0.0013389641596129945
aF-9.9575989578703521e-05
aF0.00044315214644347149
aF0.00092412454166806491
aF0.0014453132618770649
aF0
aF0
aF0
aF0
aF0
aF0
aF0
aF0
aF0
aF-0.002068557512180933
aF0.013288012573158934
aF-0.0015209313481103753
aF-0.0021147680922530424
aF-0.00035816097256679083
aF-0.0016620476646559553
aF-0.0019781067868324537
aa(lp94
F0.10034286348415161
aF0
aF-0.00044163576534494357
aF-0.0037145752432890104
aF-0.0013389641596129945
aF0.1065484409314759
aF0.00016748183372204033
aF-0.0010765540850698658
aF-0.0021178596457510786
aF-0.0036477125371476692
aF0
aF0
aF0
aF0
aF0
aF0
aF0
aF0
aF0
aF0.005685342984942051
aF0.0047466359750743406
aF0.018705075603586686
aF0.0058462108528181166
aF0.001439505641346825
aF0.0047172927185413346
aF0.0054459845004225091
aa(lp95
F0.0033484114971748719
aF0
aF8.7006136275580366e-05
aF-0.00021508144824273232
aF-9.9575989578703521e-05
aF0.00016748183372204033
aF0.14799858141939348
aF-8.0416187081244794e-05
aF-0.00018619239468066479
aF-0.00024239713377417218
aF0
aF0
aF0
aF0
aF0
aF0
aF0
aF0
aF0
aF0.00027931220465121279
aF0.00022565005866523997
aF0.0002032891944473444
aF-0.020113413081713036
aF-1.7858506691943629e-05
aF0.00020270969727143715
aF0.00026575421036507816
aa(lp96
F-0.026958766468563537
aF0
aF-3.595403909740732e-05
aF0.0011364565689855068
aF0.00044315214644347149
aF-0.0010765540850698658
aF-8.0416187081244794e-05
aF0.041450413753182209
aF0.00074453940062876216
aF0.0011633915285086608
aF0
aF0
aF0
aF0
aF0
aF0
aF0
aF0
aF0
aF-0.0016636060934717019
aF-0.001377463031907308
aF-0.0012231411383392991
aF-0.0017006638558890376
aF0.0083916611326860097
aF-0.0013362077928625686
aF-0.0015908334258076229
aa(lp97
F-0.051590325369008476
aF0
aF-0.00020980316378891797
aF0.0023010954296561526
aF0.00092412454166806491
aF-0.0021178596457510786
aF-0.00018619239468066479
aF0.00074453940062876216
aF0.09818267173629093
aF0.0023935870052700856
aF0
aF0
aF0
aF0
aF0
aF0
aF0
aF0
aF0
aF-0.0033077637282289424
aF-0.0027292225160377116
aF-0.0024284455628649608
aF-0.0033730605693894377
aF-0.00045717065500775123
aF0.0056704128765673358
aF-0.0031607804932339265
aa(lp98
F-0.092897159867842
aF0
aF2.7611135589227617e-05
aF0.0037804168420813595
aF0.0014453132618770649
aF-0.0036477125371476692
aF-0.00024239713377417218
aF0.0011633915285086608
aF0.0023935870052700856
aF0.1524027793867142
aF0
aF0
aF0
aF0
aF0
aF0
aF0
aF0
aF0
aF-0.0055992033853863466
aF-0.0046464465369808489
aF-0.0041205304153646575
aF-0.0057329390795014153
aF-0.0010857703039321355
aF-0.0045369873814178532
aF0.0016499612789786012
aa(lp99
F0
aF0
aF0
aF0
aF0
aF0
aF0
aF0
aF0
aF0
aF0
aF0
aF0
aF0
aF0
aF0
aF0
aF0
aF0
aF0
aF0
aF0
aF0
aF0
aF0
aF0
aa(lp100
F0
aF0
aF0
aF0
aF0
aF0
aF0
aF0
aF0
aF0
aF0
aF0
aF0
aF0
aF0
aF0
aF0
aF0
aF0
aF0
aF0
aF0
aF0
aF0
aF0
aF0
aa(lp101
F0
aF0
aF0
aF0
aF0
aF0
aF0
aF0
aF0
aF0
aF0
aF0
aF0
aF0
aF0
aF0
aF0
aF0
aF0
aF0
aF0
aF0
aF0
aF0
aF0
aF0
aa(lp102
F0
aF0
aF0
aF0
aF0
aF0
aF0
aF0
aF0
aF0
aF0
aF0
aF0
aF0
aF0
aF0
aF0
aF0
aF0
aF0
aF0
aF0
aF0
aF0
aF0
aF0
aa(lp103
F0
aF0
aF0
aF0
aF0
aF0
aF0
aF0
aF0
aF0
aF0
aF0
aF0
aF0
aF0
aF0
aF0
aF0
aF0
aF0
aF0
aF0
aF0
aF0
aF0
aF0
aa(lp104
F0
aF0
aF0
aF0
aF0
aF0
aF0
aF0
aF0
aF0
aF0
aF0
aF0
aF0
aF0
aF0
aF0
aF0
aF0
aF0
aF0
aF0
aF0
aF0
aF0
aF0
aa(lp105
F0
aF0
aF0
aF0
aF0
aF0
aF0
aF0
aF0
aF0
aF0
aF0
aF0
aF0
aF0
aF0
aF0
aF0
aF0
aF0
aF0
aF0
aF0
aF0
aF0
aF0
aa(lp106
F0
aF0
aF0
aF0
aF0
aF0
aF0
aF0
aF0
aF0
aF0
aF0
aF0
aF0
aF0
aF0
aF0
aF0
aF0
aF0
aF0
aF0
aF0
aF0
aF0
aF0
aa(lp107
F0
aF0
aF0
aF0
aF0
aF0
aF0
aF0
aF0
aF0
aF0
aF0
aF0
aF0
aF0
aF0
aF0
aF0
aF0
aF0
aF0
aF0
aF0
aF0
aF0
aF0
aa(lp108
F0.14987232049891325
aF0
aF-0.00053233981381409755
aF-0.010061944733233656
aF-0.002068557512180933
aF0.005685342984942051
aF0.00027931220465121279
aF-0.0016636060934717019
aF-0.0033077637282289424
aF-0.0055992033853863466
aF0
aF0
aF0
aF0
aF0
aF0
aF0
aF0
aF0
aF0.021427977893738067
aF0.0071737283233888676
aF0.0063441320247752233
aF0.0088389286678696409
aF0.0020676101489881696
aF0.0071024260991632438
aF0.0082392536219813729
aa(lp109
F0.12551624180658957
aF0
aF-0.00048192910837564074
aF-0.0047096092202355191
aF0.013288012573158934
aF0.0047466359750743406
aF0.00022565005866523997
aF-0.001377463031907308
aF-0.0027292225160377116
aF-0.0046464465369808489
aF0
aF0
aF0
aF0
aF0
aF0
aF0
aF0
aF0
aF0.0071737283233888676
aF0.015627702396860354
aF0.0052906657879289538
aF0.0073721437762038627
aF0.0017549792119277063
aF0.0059321235244265925
aF0.0068704609921928037
aa(lp110
F0.11071540824583004
aF0
aF-0.00040655874888943658
aF-0.004170860438599629
aF-0.0015209313481103753
aF0.018705075603586686
aF0.0002032891944473444
aF-0.0012231411383392991
aF-0.0024284455628649608
aF-0.0041205304153646575
aF0
aF0
aF0
aF0
aF0
aF0
aF0
aF0
aF0
aF0.0063441320247752233
aF0.0052906657879289538
aF0.011487985714007937
aF0.00651841140133753
aF0.0015360242313181872
aF0.0052408639335268948
aF0.0060756106961014278
aa(lp111
F0.15445306043359219
aF0
aF-0.00058014324727264559
aF-0.0058069198047858714
aF-0.0021147680922530424
aF0.0058462108528181166
aF-0.020113413081713036
aF-0.0017006638558890376
aF-0.0033730605693894377
aF-0.0057329390795014153
aF0
aF0
aF0
aF0
aF0
aF0
aF0
aF0
aF0
aF0.0088389286678696409
aF0.0073721437762038627
aF0.00651841140133753
aF0.030744177206184633
aF0.002151227504463676
aF0.0073054685775348124
aF0.00846503954312312
aa(lp112
F0.042518018429446205
aF0
aF-0.00057485745682644258
aF-0.0012266992111180405
aF-0.00035816097256679083
aF0.001439505641346825
aF-1.7858506691943629e-05
aF0.0083916611326860097
aF-0.00045717065500775123
aF-0.0010857703039321355
aF0
aF0
aF0
aF0
aF0
aF0
aF0
aF0
aF0
aF0.0020676101489881696
aF0.0017549792119277063
aF0.0015360242313181872
aF0.002151227504463676
aF0.036667296716940447
aF0.001826235466444368
aF0.0019874161545688183
aa(lp113
F0.12585212064409737
aF0
aF-0.00058598981928835491
aF-0.0046301643789834583
aF-0.0016620476646559553
aF0.0047172927185413346
aF0.00020270969727143715
aF-0.0013362077928625686
aF0.0056704128765673358
aF-0.0045369873814178532
aF0
aF0
aF0
aF0
aF0
aF0
aF0
aF0
aF0
aF0.0071024260991632438
aF0.0059321235244265925
aF0.0052408639335268948
aF0.0073054685775348124
aF0.001826235466444368
aF0.023287233707425577
aF0.0068039741710984513
aa(lp114
F0.14365536675564386
aF0
aF-0.00051886381479134761
aF-0.0054195224098360344
aF-0.0019781067868324537
aF0.0054459845004225091
aF0.00026575421036507816
aF-0.0015908334258076229
aF-0.0031607804932339265
aF0.0016499612789786012
aF0
aF0
aF0
aF0
aF0
aF0
aF0
aF0
aF0
aF0.0082392536219813729
aF0.0068704609921928037
aF0.0060756106961014278
aF0.00846503954312312
aF0.0019874161545688183
aF0.0068039741710984513
aF0.014831832249321386
aasg29
F0.0011394149318804262
sg30
(lp115
F85.792149386238705
aF4.530545396570635
aF9.3149671576890558
aF-2.4321334036513615
aF-4.2291054578526364
aF-3.2478205242120146
aF-2.2227593334995257
aF-3.0331837123438783
aF-2.7423468723391609
aF-2.4857331586180229
aF0.0263
aF0.01823
aF0
aF0.023900000000000001
aF0.20360585977664436
aF0
aF0.079200000000000007
aF317.35941648063954
aF132.69719205527326
aF4.7257550300466091
aF4.4634281382919481
aF4.5283184173671547
aF4.6977465934982447
aF4.1200715675195747
aF4.5799568416876761
aF4.6079915872143715
asg32
F146.72811693666327
sg33
g34
sg35
F146.72860885203571
sbs.