(dp1
I121339
F1005282592
sI121340
F1005290395
sI121341
F0
sI121342
F1005295728
sI121343
F1005297379
sI121344
F1005298877
sI121345
F0
sI121346
F1005302132
sI121347
F1005303938
sI121348
F1005305924
sI121349
F1005308512
sI121350
F1005312576
sI121351
F1005313495
sI121352
F1005321385
sI121353
F1005322438
sI121354
F1005323375
sI121355
F1005326518
sI121356
F1005327048
sI121357
F1005328717
sI121358
F1005331746
sI121359
F1005332823
sI121360
F0
sI121361
F1005334140
sI121362
F1005336921
sI121363
F0
sI121364
F1005339877
sI121365
F1005340513
sI121366
F1005344354
sI121367
F0
sI121368
F1005345481
sI121369
F1005346642
sI121370
F1005349806
sI121371
F1005353938
sI121372
F1005354701
sI121373
F1005354966
sI121374
F1005356501
sI121375
F1005359723
sI121376
F0
sI121377
F1005362622
sI121378
F1005362955
sI121379
F1005364591
sI121380
F0
sI121381
F1005367336
sI121382
F1005372307
sI121383
F0
sI121384
F1005374714
sI121385
F1005377190
sI121386
F1005382131
sI121387
F1005382862
sI121388
F1005387790
sI121389
F1005388463
sI121390
F1005389353
sI121391
F1005394218
sI121392
F1005398763
sI121393
F1005399061
sI121394
F1005403508
sI121395
F1005408643
sI121396
F1005413372
sI121397
F1005418751
sI121398
F1005423715
sI121399
F1005428592
sI121400
F1005429751
sI121401
F1005431336
sI121402
F1005433775
sI121403
F1005437969
sI121404
F1005439087
sI121405
F1005440788
sI121406
F1005441515
sI121407
F1005446727
sI121408
F1005451219
sI121409
F1005456216
sI121410
F0
sI121411
F1005461211
sI121412
F1005461380
sI121413
F1005461791
sI121414
F1005463380
sI121415
F1005466420
sI121416
F1005466618
sI121417
F1005471161
sI121418
F1005471470
sI121419
F1005472177
sI121420
F1005476193
sI121421
F1005481157
sI121422
F1005484566
sI121423
F1005486838
sI121424
F1005487952
sI121425
F1005489132
sI121426
F1005491976
sI121427
F1005494345
sI121428
F1005497572
sI121429
F1005499264
sI121430
F1005502679
sI121431
F1005505305
sI121432
F1005505683
sI121433
F1005507172
sI121434
F1005509769
sI121435
F1005514948
sI121436
F1005518338
sI121437
F1005523257
sI121438
F0
sI121439
F1005526912
sI121440
F0
sI121441
F1005527776
sI121442
F1005530446
sI121443
F1005532236
sI121444
F1005532533
sI121445
F1005533143
sI121446
F1005534235
sI121447
F1005536644
sI121448
F1005537845
sI121449
F1005542831
sI121450
F0
sI121451
F1005548248
sI121452
F1005549218
sI121453
F1005549298
sI121454
F1005550547
sI121455
F0
sI121456
F1005557802
sI121457
F1005562137
sI121458
F1005562806
sI121459
F1005567835
sI121460
F0
sI121461
F1005594420
sI121462
F1005594697
sI121463
F1005595381
sI121464
F0
sI121465
F1005596697
sI121466
F1005597373
sI121467
F1005597783
sI121468
F1005598832
sI121469
F1005599159
sI121470
F0
sI121471
F1005602902
sI121472
F1005603280
sI121473
F1005627767
sI121474
F1005629949
sI121475
F1005631274
sI121476
F1005632840
sI121477
F1005638115
sI121478
F1005643090
sI121479
F1005644041
sI121480
F1005648721
sI121481
F1005650518
sI121482
F1005651178
sI121483
F1005652548
sI121484
F1005653582
sI121485
F1005654482
sI121486
F1005655166
sI121487
F1005691772
sI121488
F1005692300
sI121489
F1005714345
sI121490
F0
sI121491
F1005780290
sI121492
F1005781064
sI121493
F1005795010
sI121494
F1005795487
sI121495
F1005796271
sI121496
F1005796799
sI121497
F1005800380
sI121498
F1005805488
sI121499
F1005806160
sI121500
F1005811847
sI121501
F1005816763
sI121502
F1005821507
sI121503
F1005821921
sI121504
F1005822209
sI121505
F1005826967
sI121506
F1005833205
sI121507
F0
sI121508
F1005844861
sI121509
F1005845539
sI121510
F0
sI121511
F1005847149
sI121512
F0
sI121513
F1005853078
sI121514
F1005853218
sI121515
F1005853814
sI121516
F1005854598
sI121517
F1005856631
sI121518
F1005858351
sI121519
F1005860259
sI121520
F0
sI121521
F0
sI121522
F1005864262
sI121523
F1005864598
sI121524
F1005867810
sI121525
F1005868128
sI121526
F1005868761
sI121527
F1005871923
sI121528
F1005875769
sI121529
F1005879736
sI121530
F1005882328
sI121531
F1005886106
sI121532
F1005890134
sI121533
F1005890487
sI121534
F1005890806
sI121535
F1005894594
sI121536
F1005899779
sI121537
F1005904053
sI121538
F0
sI121539
F1005910264
sI121540
F1005912814
sI121541
F1005916739
sI121542
F1005917063
sI121543
F1005919192
sI121544
F1005921143
sI121545
F1005925263
sI121546
F1005929742
sI121547
F1005930764
sI121548
F1005934006
sI121549
F1005938133
sI121550
F1005942285
sI121551
F1005946575
sI121552
F1005950610
sI121553
F1005954963
sI121554
F1005959808
sI121555
F1005964808
sI121556
F1005970102
sI121557
F1005975172
sI121558
F1005980382
sI121559
F1005985615
sI121560
F1005991571
sI121561
F1005993509
sI121562
F1005998348
sI121563
F1005998967
sI121564
F1006003722
sI121565
F1006004351
sI121566
F0
sI121567
F1006009488
sI121568
F1006014767
sI121569
F1006018667
sI121570
F1006023550
sI121571
F0
sI121572
F1006027472
sI121573
F1006027784
sI121574
F1006029281
sI121575
F1006036441
sI121576
F1006037772
sI121577
F0
sI121578
F1006042094
sI121579
F1006042412
sI121580
F1006043941
sI121581
F1006047018
sI121582
F1006051860
sI121583
F1006053863
sI121584
F1006055292
sI121585
F1006056761
sI121586
F1006061438
sI121587
F0
sI121588
F1006062111
sI121589
F0
sI121590
F1006065288
sI121591
F1006066521
sI121592
F1006067552
sI121593
F1006072321
sI121594
F1006077087
sI121595
F1006077398
sI121596
F1006082291
sI121597
F1006083229
sI121598
F0
sI121599
F1006084793
sI121600
F1006086090
sI121601
F1006086495
sI121602
F1006086772
sI121603
F1006087323
sI121604
F0
sI121605
F1006088403
sI121606
F1006089219
sI121607
F1006090276
sI121608
F1006090456
sI121609
F1006093114
sI121610
F0
sI121611
F1006097521
sI121612
F0
sI121613
F1006097983
sI121614
F1006098087
sI121615
F1006098772
sI121616
F1006100222
sI121617
F1006101391
sI121618
F1006101668
sI121619
F1006104011
sI121620
F1006104424
sI121621
F1006106245
sI121622
F1006106811
sI121623
F1006107402
sI121624
F1006109022
sI121625
F1006113926
sI121626
F1006114863
sI121627
F1006120557
sI121628
F1006121209
sI121629
F0
sI121630
F1006126506
sI121631
F1006131138
sI121632
F1006136074
sI121633
F1006137264
sI121634
F1006141713
sI121635
F1006142249
sI121636
F1006142735
sI121637
F1006147572
sI121638
F1006155063
sI121639
F1006160374
sI121640
F1006165606
sI121641
F1006170420
sI121642
F1006206164
sI121643
F0
sI121644
F1006226263
sI121645
F1006227168
sI121646
F1006232947
sI121647
F0
sI121648
F1006236032
sI121649
F1006236454
sI121650
F1006238043
sI121651
F1006241670
sI121652
F1006246737
sI121653
F1006251552
sI121654
F1006255685
sI121655
F1006256498
sI121656
F1006257230
sI121657
F1006259733
sI121658
F1006260207
sI121659
F0
sI121660
F1006263174
sI121661
F1006265594
sI121662
F1006282412
sI121663
F1006286380
sI121664
F1006292112
sI121665
F1006292985
sI121666
F1006293799
sI121667
F1006295439
sI121668
F1006305089
sI121669
F0
sI121670
F1006307800
sI121671
F1006308546
sI121672
F0
sI121673
F1006309907
sI121674
F1006310608
sI121675
F0
sI121676
F1006314096
sI121677
F1006315141
sI121678
F1006320063
sI121679
F0
sI121680
F1006324563
sI121681
F1006326372
sI121682
F1006330828
sI121683
F1006330959
sI121684
F1006336000
sI121685
F1006355271
sI121686
F1006356916
sI121687
F1006357314
sI121688
F1006359151
sI121689
F1006362191
sI121690
F1006366961
sI121691
F1006367979
sI121692
F1006368320
sI121693
F1006368843
sI121694
F1006368993
sI121695
F1006373772
sI121696
F1006374218
sI121697
F1006374595
sI121698
F1006375532
sI121699
F1006435914
sI121700
F1006437483
sI121701
F1006437554
sI121702
F1006437802
sI121703
F1006438872
sI121704
F1006439729
sI121705
F1006443132
sI121706
F1006444572
sI121707
F1006449750
sI121708
F1006454382
sI121709
F1006458987
sI121710
F1006459860
sI121711
F1006463127
sI121712
F1006464397
sI121713
F1006465434
sI121714
F1006469599
sI121715
F1006471253
sI121716
F1006476073
sI121717
F1006480832
sI121718
F1006481175
sI121719
F1006485735
sI121720
F1006490551
sI121721
F1006495401
sI121722
F1006500411
sI121723
F1006505295
sI121724
F1006510133
sI121725
F1006513339
sI121726
F1006518101
sI121727
F1006519196
sI121728
F1006523215
sI121729
F1006528175
sI121730
F1006533990
sI121731
F0
sI121732
F1006534442
sI121733
F1006535762
sI121734
F1006536076
sI121735
F0
sI121736
F1006540589
sI121737
F1006541461
sI121738
F0
sI121739
F1006541967
sI121740
F1006542756
sI121741
F1006546050
sI121742
F1006547122
sI121743
F1006548168
sI121744
F1006549576
sI121745
F0
sI121746
F0
sI121747
F0
sI121748
F1006558930
sI121749
F1006560057
sI121750
F1006560977
sI121751
F1006565140
sI121752
F1006568115
sI121753
F1006570400
sI121754
F1006572987
sI121755
F1006575710
sI121756
F1006576300
sI121757
F1006581030
sI121758
F1006581337
sI121759
F1006586372
sI121760
F1006587258
sI121761
F1006588548
sI121762
F1006589495
sI121763
F1006590533
sI121764
F1006591491
sI121765
F1006595423
sI121766
F1006596573
sI121767
F1006601416
sI121768
F1006606345
sI121769
F1006612115
sI121770
F1006616608
sI121771
F1006617135
sI121772
F1006621886
sI121773
F0
sI121774
F1006626935
sI121775
F1006628522
sI121776
F1006629179
sI121777
F1006630435
sI121778
F1006631537
sI121779
F1006636329
sI121780
F1006638583
sI121781
F1006643385
sI121782
F1006647510
sI121783
F1006648651
sI121784
F1006653445
sI121785
F1006658256
sI121786
F1006663064
sI121787
F1006663357
sI121788
F1006668278
sI121789
F1006673233
sI121790
F1006676118
sI121791
F1006678112
sI121792
F1006679962
sI121793
F1006682628
sI121794
F1006683356
sI121795
F1006688072
sI121796
F1006692810
sI121797
F1006693651
sI121798
F0
sI121799
F1006694203
sI121800
F1006697699
sI121801
F1006703158
sI121802
F1006709473
sI121803
F1006711180
sI121804
F1006715945
sI121805
F1006717614
sI121806
F1006717742
sI121807
F1006718069
sI121808
F1006718987
sI121809
F1006723504
sI121810
F1006723951
sI121811
F1006725809
sI121812
F1006730623
sI121813
F1006732416
sI121814
F1006737215
sI121815
F1006742091
sI121816
F1006743187
sI121817
F1006746927
sI121818
F1006751149
sI121819
F1006753724
sI121820
F1006756168
sI121821
F1006759079
sI121822
F1006759379
sI121823
F1006764220
sI121824
F1006769170
sI121825
F1006774347
sI121826
F1006775185
sI121827
F1006777526
sI121828
F1006797172
sI121829
F1006801240
sI121830
F1006801433
sI121831
F1006804996
sI121832
F1006805797
sI121833
F1006827080
sI121834
F1006827406
sI121835
F1006828229
sI121836
F1006828560
sI121837
F1006829007
sI121838
F1006829341
sI121839
F1006829986
sI121840
F1006830355
sI121841
F1006838243
sI121842
F1006841429
sI121843
F1006846247
sI121844
F1006851299
sI121845
F1006855644
sI121846
F1006856728
sI121847
F1006859953
sI121848
F1006868303
sI121849
F1006869136
sI121850
F1006870085
sI121851
F1006872172
sI121852
F1006873611
sI121853
F1006874853
sI121854
F1006874993
sI121855
F1006875398
sI121856
F1006875535
sI121857
F1006876776
sI121858
F1006877705
sI121859
F1006877866
sI121860
F1006879403
sI121861
F1006891727
sI121862
F0
sI121863
F0
sI121864
F1006899537
sI121865
F1006901012
sI121866
F1006909193
sI121867
F1006911299
sI121868
F1006913050
sI121869
F1006914058
sI121870
F1006915638
sI121871
F1006917367
sI121872
F1006917741
sI121873
F1006918842
sI121874
F1006920124
sI121875
F1006922291
sI121876
F1006931675
sI121877
F1006936115
sI121878
F1006980176
sI121879
F1006980695
sI121880
F1007002440
sI121881
F1007003159
sI121882
F1007004062
sI121883
F1007004559
sI121884
F1007005473
sI121885
F1007007093
sI121886
F1007010165
sI121887
F1007011050
sI121888
F0
sI121889
F1007015117
sI121890
F1007018989
sI121891
F1007038350
sI121892
F1007039172
sI121893
F1007041542
sI121894
F0
sI121895
F1007042421
sI121896
F0
sI121897
F1007046288
sI121898
F1007050462
sI121899
F1007055529
sI121900
F1007058881
sI121901
F1007059177
sI121902
F1007062501
sI121903
F1007066032
sI121904
F1007070485
sI121905
F1007073880
sI121906
F1007077151
sI121907
F0
sI121908
F1007080977
sI121909
F1007081510
sI121910
F1007083444
sI121911
F1007084609
sI121912
F1007087981
sI121913
F0
sI121914
F1007093131
sI121915
F1007094767
sI121916
F1007099267
sI121917
F1007103171
sI121918
F1007107462
sI121919
F0
sI121920
F1007112898
sI121921
F1007115829
sI121922
F1007116153
sI121923
F0
sI121924
F1007117870
sI121925
F1007119155
sI121926
F1007122459
sI121927
F1007126597
sI121928
F1007132575
sI121929
F1007143082
sI121930
F1007148044
sI121931
F1007152692
sI121932
F1007153005
sI121933
F1007157982
sI121934
F1007162784
sI121935
F1007163165
sI121936
F1007163719
sI121937
F0
sI121938
F1007168250
sI121939
F1007170167
sI121940
F1007172497
sI121941
F0
sI121942
F1007179313
sI121943
F1007179932
sI121944
F1007182541
sI121945
F1007186270
sI121946
F1007187792
sI121947
F1007189030
sI121948
F1007190026
sI121949
F1007194712
sI121950
F1007199880
sI121951
F1007204937
sI121952
F1007210325
sI121953
F1007215443
sI121954
F1007219786
sI121955
F0
sI121956
F1007224171
sI121957
F0
sI121958
F1007228534
sI121959
F0
sI121960
F0
sI121961
F1007230715
sI121962
F1007231414
sI121963
F1007235625
sI121964
F1007237421
sI121965
F1007238447
sI121966
F1007241678
sI121967
F1007247569
sI121968
F1007249503
sI121969
F1007253508
sI121970
F1007254704
sI121971
F1007260696
sI121972
F1007261386
sI121973
F1007266626
sI121974
F1007268118
sI121975
F1007273449
sI121976
F1007280254
sI121977
F0
sI121978
F1007288582
sI121979
F1007292578
sI121980
F1007293140
sI121981
F1007305209
sI121982
F0
sI121983
F1007305824
sI121984
F1007306633
sI121985
F1007306838
sI121986
F1007312231
sI121987
F1007318078
sI121988
F1007323561
sI121989
F1007324507
sI121990
F1007329025
sI121991
F1007329341
sI121992
F1007329763
sI121993
F1007335152
sI121994
F1007341025
sI121995
F1007342818
sI121996
F1007348741
sI121997
F1007354621
sI121998
F1007356961
sI121999
F1007357281
sI122000
F0
sI122001
F1007366207
sI122002
F0
sI122003
F1007370893
sI122004
F1007376543
sI122005
F1007376886
sI122006
F1007377686
sI122007
F1007383507
sI122008
F1007422432
sI122009
F1007422907
sI122010
F1007432810
sI122011
F1007433254
sI122012
F1007436040
sI122013
F1007479257
sI122014
F1007479948
sI122015
F1007480095
sI122016
F1007481089
sI122017
F0
sI122018
F1007485229
sI122019
F1007486895
sI122020
F1007498492
sI122021
F1007503844
sI122022
F1007504803
sI122023
F1007506973
sI122024
F1007510124
sI122025
F1007512193
sI122026
F1007513235
sI122027
F1007514845
sI122028
F1007515972
sI122029
F1007517232
sI122030
F1007519784
sI122031
F1007521221
sI122032
F1007522482
sI122033
F1007524539
sI122034
F1007525232
sI122035
F1007526546
sI122036
F1007527960
sI122037
F1007529301
sI122038
F1007530916
sI122039
F1007532232
sI122040
F1007533644
sI122041
F0
sI122042
F0
sI122043
F1007537096
sI122044
F1007538440
sI122045
F1007540629
sI122046
F1007542530
sI122047
F1007543906
sI122048
F1007546232
sI122049
F1007547597
sI122050
F1007589460
sI122051
F1007589771
sI122052
F1007590175
sI122053
F1007591255
sI122054
F1007595870
sI122055
F1007596736
sI122056
F1007597527
sI122057
F1007597955
sI122058
F1007599621
sI122059
F0
sI122060
F1007600924
sI122061
F1007601913
sI122062
F1007602503
sI122063
F1007603790
sI122064
F1007610661
sI122065
F0
sI122066
F1007612707
sI122067
F1007615949
sI122068
F1007616369
sI122069
F1007616567
sI122070
F1007620433
sI122071
F1007624505
sI122072
F1007628571
sI122073
F1007632570
sI122074
F1007636676
sI122075
F0
sI122076
F1007640761
sI122077
F1007644619
sI122078
F1007647052
sI122079
F1007647799
sI122080
F1007657421
sI122081
F1007662091
sI122082
F1007666843
sI122083
F1007668288
sI122084
F1007672237
sI122085
F1007672733
sI122086
F1007676018
sI122087
F0
sI122088
F1007676707
sI122089
F1007677594
sI122090
F1007681213
sI122091
F1007683180
sI122092
F1007688921
sI122093
F1007694165
sI122094
F1007699225
sI122095
F1007702716
sI122096
F1007703165
sI122097
F1007703541
sI122098
F1007707753
sI122099
F1007711763
sI122100
F1007716838
sI122101
F1007717888
sI122102
F1007722856
sI122103
F1007727722
sI122104
F1007728094
sI122105
F1007728362
sI122106
F1007733642
sI122107
F1007733753
sI122108
F1007734170
sI122109
F1007734893
sI122110
F1007738010
sI122111
F1007739179
sI122112
F1007742921
sI122113
F1007750309
sI122114
F1007752192
sI122115
F1007753502
sI122116
F1007754438
sI122117
F1007756220
sI122118
F1007761382
sI122119
F1007765699
sI122120
F1007767039
sI122121
F1007767956
sI122122
F1007771659
sI122123
F1007772493
sI122124
F1007777593
sI122125
F1007782644
sI122126
F1007787968
sI122127
F1007792973
sI122128
F1007797982
sI122129
F1007803024
sI122130
F1007807788
sI122131
F1007807885
sI122132
F1007812856
sI122133
F1007816903
sI122134
F1007821946
sI122135
F1007824128
sI122136
F1007824335
sI122137
F1007829257
sI122138
F1007834159
sI122139
F1007839229
sI122140
F1007844012
sI122141
F1007849083
sI122142
F1007855175
sI122143
F1007860964
sI122144
F1007866092
sI122145
F1007866739
sI122146
F1007867311
sI122147
F1007872545
sI122148
F1007876829
sI122149
F1007882815
sI122150
F1007883028
sI122151
F1007883741
sI122152
F1007884133
sI122153
F1007888955
sI122154
F1007894854
sI122155
F0
sI122156
F1007897472
sI122157
F0
sI122158
F1007901007
sI122159
F1007902504
sI122160
F1007909922
sI122161
F1007911587
sI122162
F1007914808
sI122163
F1007915754
sI122164
F1007921494
sI122165
F0
sI122166
F1007927716
sI122167
F1007930745
sI122168
F1007933184
sI122169
F1007939310
sI122170
F1007945161
sI122171
F1007950382
sI122172
F1007952852
sI122173
F1007958766
sI122174
F1007964928
sI122175
F0
sI122176
F1007972002
sI122177
F1007975875
sI122178
F1007976773
sI122179
F1007982649
sI122180
F1007989430
sI122181
F1007991779
sI122182
F1007994588
sI122183
F1007998455
sI122184
F1008000360
sI122185
F1008003417
sI122186
F1008005647
sI122187
F1008007078
sI122188
F1008008513
sI122189
F1008009926
sI122190
F0
sI122191
F1008016586
sI122192
F1008017698
sI122193
F1008020959
sI122194
F1008021893
sI122195
F1008024942
sI122196
F1008026241
sI122197
F1008028219
sI122198
F1008084034
sI122199
F1008084317
sI122200
F1008084915
sI122201
F1008086576
sI122202
F1008089353
sI122203
F1008090715
sI122204
F1008093440
sI122205
F1008094904
sI122206
F0
sI122207
F1008097659
sI122208
F1008098175
sI122209
F1008101150
sI122210
F1008103684
sI122211
F1008106846
sI122212
F1008107023
sI122213
F0
sI122214
F0
sI122215
F0
sI122216
F0
sI122217
F0
sI122218
F0
sI122219
F0
sI122220
F1008128285
sI122221
F0
sI122222
F1008130770
sI122223
F1008130915
sI122224
F1008132205
sI122225
F1008134536
sI122226
F1008135584
sI122227
F1008136130
sI122228
F1008140073
sI122229
F1008143560
sI122230
F1008144895
sI122231
F1008145347
sI122232
F1008147763
sI122233
F1008152409
sI122234
F1008154378
sI122235
F1008157878
sI122236
F1008193931
sI122237
F1008196944
sI122238
F1008197731
sI122239
F1008201758
sI122240
F1008201952
sI122241
F1008203740
sI122242
F1008207069
sI122243
F1008209477
sI122244
F1008217667
sI122245
F1008218444
sI122246
F1008222745
sI122247
F1008227122
sI122248
F1008240890
sI122249
F1008241464
sI122250
F0
sI122251
F1008247055
sI122252
F1008250655
sI122253
F1008254517
sI122254
F0
sI122255
F0
sI122256
F1008260115
sI122257
F1008262577
sI122258
F1008262827
sI122259
F1008264550
sI122260
F0
sI122261
F1008265510
sI122262
F0
sI122263
F1008267797
sI122264
F1008269610
sI122265
F1008271773
sI122266
F1008271936
sI122267
F1008272320
sI122268
F1008274181
sI122269
F1008280545
sI122270
F1008285288
sI122271
F1008285908
sI122272
F1008287283
sI122273
F1008290682
sI122274
F1008296257
sI122275
F1008301854
sI122276
F1008304128
sI122277
F1008306319
sI122278
F1008311781
sI122279
F1008313054
sI122280
F1008316106
sI122281
F1008320973
sI122282
F1008322295
sI122283
F1008323089
sI122284
F0
sI122285
F1008332135
sI122286
F1008337188
sI122287
F1008342145
sI122288
F1008346449
sI122289
F1008351215
sI122290
F1008354547
sI122291
F1008356932
sI122292
F1008359322
sI122293
F1008361348
sI122294
F1008365688
sI122295
F1008372484
sI122296
F1008375733
sI122297
F1008380269
sI122298
F1008385172
sI122299
F1008391201
sI122300
F1008391461
sI122301
F1008394828
sI122302
F1008399793
sI122303
F0
sI122304
F1008402855
sI122305
F1008403534
sI122306
F1008404796
sI122307
F1008409801
sI122308
F1008414494
sI122309
F1008415216
sI122310
F1008419986
sI122311
F1008425027
sI122312
F1008427746
sI122313
F1008434014
sI122314
F1008439834
sI122315
F1008445066
sI122316
F1008450621
sI122317
F1008450898
sI122318
F0
sI122319
F1008453176
sI122320
F0
sI122321
F1008459000
sI122322
F1008464111
sI122323
F1008470240
sI122324
F0
sI122325
F1008476079
sI122326
F1008478084
sI122327
F1008481996
sI122328
F0
sI122329
F0
sI122330
F1008489357
sI122331
F1008494662
sI122332
F1008496574
sI122333
F1008498999
sI122334
F1008500693
sI122335
F1008501298
sI122336
F1008503085
sI122337
F1008511118
sI122338
F1008512261
sI122339
F1008513913
sI122340
F1008516634
sI122341
F1008516794
sI122342
F1008520379
sI122343
F0
sI122344
F1008523359
sI122345
F1008524234
sI122346
F1008525183
sI122347
F1008525607
sI122348
F1008527755
sI122349
F1008527895
sI122350
F1008530887
sI122351
F1008534191
sI122352
F1008536952
sI122353
F1008538278
sI122354
F1008552108
sI122355
F1008556824
sI122356
F1008558137
sI122357
F1008562596
sI122358
F1008568381
sI122359
F1008568517
sI122360
F1008569004
sI122361
F1008574359
sI122362
F1008576299
sI122363
F1008577237
sI122364
F1008580132
sI122365
F1008580936
sI122366
F1008582574
sI122367
F1008586327
sI122368
F0
sI122369
F1008588917
sI122370
F1008591393
sI122371
F1008593684
sI122372
F1008596292
sI122373
F1008597040
sI122374
F1008597585
sI122375
F0
sI122376
F0
sI122377
F1008603284
sI122378
F1008604745
sI122379
F1008606366
sI122380
F1008606942
sI122381
F1008609152
sI122382
F1008620107
sI122383
F1008621842
sI122384
F1008622536
sI122385
F1008623830
sI122386
F1008625290
sI122387
F1008640649
sI122388
F1008641198
sI122389
F1008642713
sI122390
F0
sI122391
F0
sI122392
F0
sI122393
F1008718398
sI122394
F0
sI122395
F1008722591
sI122396
F1008731880
sI122397
F0
sI122398
F0
sI122399
F0
sI122400
F0
sI122401
F1008775659
sI122402
F0
sI122403
F1008807854
sI122404
F1008808583
sI122405
F1008811578
sI122406
F1008811984
sI122407
F1008812656
sI122408
F0
sI122409
F1008823022
sI122410
F1008827169
sI122411
F1008831659
sI122412
F1008836061
sI122413
F1008840743
sI122414
F1008848660
sI122415
F1008854217
sI122416
F1008859618
sI122417
F1008865576
sI122418
F1008876924
sI122419
F1008881235
sI122420
F1008883639
sI122421
F1008888569
sI122422
F1008890517
sI122423
F1008893501
sI122424
F1008898417
sI122425
F1008903402
sI122426
F1008908394
sI122427
F1008913452
sI122428
F1008918490
sI122429
F1008923633
sI122430
F1008926122
sI122431
F1008930934
sI122432
F1008931425
sI122433
F1008936092
sI122434
F1008939346
sI122435
F1008941822
sI122436
F0
sI122437
F1008945541
sI122438
F1008947594
sI122439
F1008950302
sI122440
F1008952878
sI122441
F1008957896
sI122442
F1008962113
sI122443
F1008962903
sI122444
F1008968470
sI122445
F1008969562
sI122446
F0
sI122447
F1008973832
sI122448
F1008976663
sI122449
F1008981483
sI122450
F1008984069
sI122451
F1008989245
sI122452
F1008993505
sI122453
F1008998580
sI122454
F1009003897
sI122455
F1009008795
sI122456
F0
sI122457
F1009014493
sI122458
F0
sI122459
F0
sI122460
F1009034838
sI122461
F1009036280
sI122462
F1009040000
sI122463
F1009041561
sI122464
F1009047363
sI122465
F1009053116
sI122466
F1009059190
sI122467
F1009064556
sI122468
F1009070277
sI122469
F1009075914
sI122470
F1009081089
sI122471
F1009081826
sI122472
F1009087663
sI122473
F1009093425
sI122474
F1009099408
sI122475
F0
sI122476
F1009110369
sI122477
F0
sI122478
F0
sI122479
F0
sI122480
F1009112628
sI122481
F1009115654
sI122482
F1009116459
sI122483
F0
sI122484
F1009117472
sI122485
F1009121471
sI122486
F1009123172
sI122487
F1009128924
sI122488
F1009134645
sI122489
F1009140346
sI122490
F1009150157
sI122491
F1009150939
sI122492
F1009152425
sI122493
F1009154327
sI122494
F1009159402
sI122495
F0
sI122496
F1009162070
sI122497
F1009165824
sI122498
F1009171617
sI122499
F1009177410
sI122500
F1009178648
sI122501
F1009183213
sI122502
F1009188983
sI122503
F1009194740
sI122504
F1009199780
sI122505
F1009200511
sI122506
F1009202030
sI122507
F1009202835
sI122508
F1009206206
sI122509
F1009211943
sI122510
F1009217703
sI122511
F1009223428
sI122512
F1009228597
sI122513
F1009229034
sI122514
F1009229519
sI122515
F1009234614
sI122516
F1009235293
sI122517
F0
sI122518
F0
sI122519
F1009236581
sI122520
F1009237609
sI122521
F1009239233
sI122522
F1009241745
sI122523
F1009244967
sI122524
F1009250688
sI122525
F1009256588
sI122526
F1009262183
sI122527
F1009267883
sI122528
F0
sI122529
F0
sI122530
F1009274204
sI122531
F1009276025
sI122532
F1009276520
sI122533
F1009281679
sI122534
F1009284467
sI122535
F1009288165
sI122536
F1009292041
sI122537
F1009295866
sI122538
F1009299688
sI122539
F1009303250
sI122540
F1009306909
sI122541
F1009310682
sI122542
F1009314278
sI122543
F1009317409
sI122544
F1009318016
sI122545
F1009318291
sI122546
F1009321774
sI122547
F1009322827
sI122548
F1009323009
sI122549
F1009326268
sI122550
F1009330019
sI122551
F1009333782
sI122552
F0
sI122553
F1009338271
sI122554
F0
sI122555
F1009340925
sI122556
F1009344140
sI122557
F1009347110
sI122558
F1009349594
sI122559
F1009350672
sI122560
F1009354290
sI122561
F1009357762
sI122562
F1009361299
sI122563
F1009364839
sI122564
F1009368344
sI122565
F1009381648
sI122566
F1009382098
sI122567
F1009382460
sI122568
F1009383113
sI122569
F1009386214
sI122570
F1009389213
sI122571
F1009393991
sI122572
F1009398781
sI122573
F1009403592
sI122574
F1009408385
sI122575
F1009411946
sI122576
F1009417840
sI122577
F1009418889
sI122578
F1009421691
sI122579
F1009422185
sI122580
F1009423548
sI122581
F0
sI122582
F1009431030
sI122583
F0
sI122584
F1009431711
sI122585
F1009433247
sI122586
F1009438299
sI122587
F1009443176
sI122588
F1009448245
sI122589
F1009448730
sI122590
F1009453918
sI122591
F1009459240
sI122592
F0
sI122593
F1009460647
sI122594
F1009463074
sI122595
F1009465364
sI122596
F1009466110
sI122597
F1009470372
sI122598
F1009471382
sI122599
F1009472772
sI122600
F1009474488
sI122601
F1009474990
sI122602
F1009475507
sI122603
F1009480287
sI122604
F1009485189
sI122605
F1009490008
sI122606
F1009494811
sI122607
F1009497033
sI122608
F1009497847
sI122609
F0
sI122610
F1009502446
sI122611
F1009506567
sI122612
F1009508349
sI122613
F1009509666
sI122614
F1009511303
sI122615
F1009516119
sI122616
F1009520916
sI122617
F1009525712
sI122618
F1009530336
sI122619
F1009535100
sI122620
F1009539882
sI122621
F1009544727
sI122622
F1009545134
sI122623
F1009545747
sI122624
F0
sI122625
F1009550608
sI122626
F1009554613
sI122627
F1009559658
sI122628
F1009562783
sI122629
F1009564510
sI122630
F1009569466
sI122631
F1009574327
sI122632
F1009575821
sI122633
F1009577467
sI122634
F1009577646
sI122635
F1009580105
sI122636
F0
sI122637
F0
sI122638
F1009581911
sI122639
F0
sI122640
F1009583390
sI122641
F1009586762
sI122642
F1009591718
sI122643
F1009596625
sI122644
F1009600669
sI122645
F1009601626
sI122646
F1009604073
sI122647
F1009606952
sI122648
F1009608815
sI122649
F1009611691
sI122650
F1009616450
sI122651
F1009621536
sI122652
F1009622672
sI122653
F1009626178
sI122654
F1009631207
sI122655
F0
sI122656
F1009636123
sI122657
F1009638142
sI122658
F1009641335
sI122659
F1009643450
sI122660
F0
sI122661
F1009646266
sI122662
F1009648572
sI122663
F0
sI122664
F0
sI122665
F1009652037
sI122666
F1009656031
sI122667
F1009656715
sI122668
F1009660117
sI122669
F1009660730
sI122670
F0
sI122671
F1009661749
sI122672
F1009664414
sI122673
F1009669269
sI122674
F1009674243
sI122675
F1009679057
sI122676
F1009683984
sI122677
F1009688762
sI122678
F1009693659
sI122679
F1009696712
sI122680
F1009698378
sI122681
F1009699437
sI122682
F1009703272
sI122683
F1009708549
sI122684
F1009713498
sI122685
F1009718640
sI122686
F1009721221
sI122687
F1009724132
sI122688
F1009729092
sI122689
F1009731394
sI122690
F1009734414
sI122691
F1009739409
sI122692
F1009744336
sI122693
F1009749238
sI122694
F0
sI122695
F1009754549
sI122696
F1009759082
sI122697
F1009763192
sI122698
F1009764019
sI122699
F1009768717
sI122700
F1009773545
sI122701
F1009778236
sI122702
F1009783373
sI122703
F1009786644
sI122704
F1009788504
sI122705
F1009793393
sI122706
F1009804922
sI122707
F0
sI122708
F1009806694
sI122709
F1009809651
sI122710
F1009811419
sI122711
F1009816388
sI122712
F1009822153
sI122713
F1009826328
sI122714
F1009831123
sI122715
F0
sI122716
F1009836281
sI122717
F0
sI122718
F1009838112
sI122719
F1009838582
sI122720
F1009839025
sI122721
F1009839648
sI122722
F1009841514
sI122723
F1009846319
sI122724
F1009851000
sI122725
F1009851433
sI122726
F1009851962
sI122727
F1009855737
sI122728
F1009860453
sI122729
F1009862962
sI122730
F1009867821
sI122731
F1009872744
sI122732
F1009877083
sI122733
F1009877764
sI122734
F1009882647
sI122735
F1009886718
sI122736
F1009891702
sI122737
F1009896840
sI122738
F1009904336
sI122739
F1009909268
sI122740
F1009914150
sI122741
F1009918965
sI122742
F0
sI122743
F1009924238
sI122744
F1009929231
sI122745
F1009934061
sI122746
F1009938988
sI122747
F1009944266
sI122748
F1009948786
sI122749
F1009949764
sI122750
F0
sI122751
F1009955664
sI122752
F1009958979
sI122753
F1009963685
sI122754
F1009968622
sI122755
F1009973503
sI122756
F0
sI122757
F1009980030
sI122758
F1009980611
sI122759
F1009981339
sI122760
F1009981498
sI122761
F0
sI122762
F0
sI122763
F1010011906
sI122764
F1010013326
sI122765
F1010013646
sI122766
F1010014378
sI122767
F1010017822
sI122768
F1010021536
sI122769
F1010025293
sI122770
F1010028883
sI122771
F1010032575
sI122772
F1010033572
sI122773
F1010037340
sI122774
F0
sI122775
F0
sI122776
F1010042945
sI122777
F1010046396
sI122778
F1010050434
sI122779
F1010054529
sI122780
F1010058415
sI122781
F1010059105
sI122782
F1010061739
sI122783
F1010062660
sI122784
F1010067483
sI122785
F1010068621
sI122786
F1010074758
sI122787
F1010077925
sI122788
F1010081897
sI122789
F1010083321
sI122790
F0
sI122791
F1010088372
sI122792
F0
sI122793
F0
sI122794
F1010091084
sI122795
F0
sI122796
F1010093886
sI122797
F1010098676
sI122798
F1010103613
sI122799
F1010108626
sI122800
F1010113938
sI122801
F1010118545
sI122802
F1010123553
sI122803
F1010128643
sI122804
F1010133655
sI122805
F1010138665
sI122806
F1010142837
sI122807
F1010143599
sI122808
F1010144133
sI122809
F1010145459
sI122810
F1010149002
sI122811
F0
sI122812
F1010154542
sI122813
F1010159234
sI122814
F1010163318
sI122815
F1010163983
sI122816
F1010168605
sI122817
F1010173400
sI122818
F1010174080
sI122819
F1010175795
sI122820
F1010178212
sI122821
F1010183120
sI122822
F1010187334
sI122823
F1010188105
sI122824
F1010192859
sI122825
F1010197731
sI122826
F1010202566
sI122827
F1010207466
sI122828
F0
sI122829
F1010214250
sI122830
F1010217415
sI122831
F1010222250
sI122832
F1010227050
sI122833
F1010231857
sI122834
F0
sI122835
F1010237855
sI122836
F1010245363
sI122837
F0
sI122838
F1010247727
sI122839
F1010250292
sI122840
F1010250927
sI122841
F1010251557
sI122842
F1010256609
sI122843
F1010262303
sI122844
F1010268223
sI122845
F1010273914
sI122846
F1010279692
sI122847
F1010285515
sI122848
F0
sI122849
F1010293534
sI122850
F0
sI122851
F1010294800
sI122852
F1010297745
sI122853
F1010304870
sI122854
F0
sI122855
F1010309609
sI122856
F1010314492
sI122857
F1010315586
sI122858
F1010315827
sI122859
F1010321400
sI122860
F1010326986
sI122861
F1010332090
sI122862
F1010332808
sI122863
F1010338343
sI122864
F1010344090
sI122865
F0
sI122866
F1010345102
sI122867
F1010349765
sI122868
F1010355532
sI122869
F1010361307
sI122870
F1010366975
sI122871
F1010372810
sI122872
F1010377753
sI122873
F1010378679
sI122874
F1010384804
sI122875
F1010389980
sI122876
F1010390631
sI122877
F0
sI122878
F0
sI122879
F1010396580
sI122880
F1010400415
sI122881
F1010403053
sI122882
F1010433177
sI122883
F0
sI122884
F1010437735
sI122885
F1010438860
sI122886
F0
sI122887
F1010446305
sI122888
F1010447082
sI122889
F1010447702
sI122890
F1010447949
sI122891
F1010448226
sI122892
F0
sI122893
F1010449915
sI122894
F1010455038
sI122895
F0
sI122896
F0
sI122897
F1010498190
sI122898
F1010498793
sI122899
F1010499349
sI122900
F1010500236
sI122901
F1010500437
sI122902
F1010511055
sI122903
F0
sI122904
F0
sI122905
F1010513291
sI122906
F1010513779
sI122907
F1010516496
sI122908
F1010517783
sI122909
F1010519598
sI122910
F1010519956
sI122911
F1010520528
sI122912
F1010522131
sI122913
F1010524269
sI122914
F1010525356
sI122915
F1010530232
sI122916
F1010531578
sI122917
F1010531927
sI122918
F1010533163
sI122919
F1010533507
sI122920
F1010534801
sI122921
F1010535128
sI122922
F1010536031
sI122923
F1010536398
sI122924
F1010536886
sI122925
F1010537337
sI122926
F0
sI122927
F0
sI122928
F1010539960
sI122929
F1010540448
sI122930
F1010543112
sI122931
F1010543458
sI122932
F1010544336
sI122933
F1010544617
sI122934
F1010545041
sI122935
F1010545352
sI122936
F1010545927
sI122937
F1010546289
sI122938
F1010547073
sI122939
F1010547525
sI122940
F1010548788
sI122941
F0
sI122942
F0
sI122943
F1010549766
sI122944
F1010550227
sI122945
F1010552640
sI122946
F1010553025
sI122947
F1010553443
sI122948
F1010553725
sI122949
F1010554346
sI122950
F1010555038
sI122951
F1010556938
sI122952
F1010558937
sI122953
F1010560428
sI122954
F1010561683
sI122955
F1010562204
sI122956
F1010562575
sI122957
F1010563158
sI122958
F1010563381
sI122959
F1010564280
sI122960
F1010565919
sI122961
F1010566595
sI122962
F1010566933
sI122963
F1010583834
sI122964
F1010585876
sI122965
F1010587207
sI122966
F1010588235
sI122967
F1010589308
sI122968
F1010593550
sI122969
F1010595308
sI122970
F1010595791
sI122971
F0
sI122972
F1010603283
sI122973
F0
sI122974
F0
sI122975
F0
sI122976
F1010616239
sI122977
F1010617009
sI122978
F0
sI122979
F1010618004
sI122980
F1010618311
sI122981
F1010618743
sI122982
F1010619548
sI122983
F1010622330
sI122984
F1010622853
sI122985
F1010624093
sI122986
F1010625701
sI122987
F1010627550
sI122988
F1010628757
sI122989
F0
sI122990
F1010630847
sI122991
F1010631504
sI122992
F0
sI122993
F1010632654
sI122994
F1010636460
sI122995
F1010637493
sI122996
F1010642153
sI122997
F1010645013
sI122998
F1010645612
sI122999
F1010649535
sI123000
F0
sI123001
F1010654305
sI123002
F1010658747
sI123003
F1010662753
sI123004
F1010666639
sI123005
F0
sI123006
F1010670156
sI123007
F0
sI123008
F0
sI123009
F1010672711
sI123010
F1010674052
sI123011
F1010675482
sI123012
F1010680408
sI123013
F1010688351
sI123014
F1010691637
sI123015
F1010695133
sI123016
F1010696298
sI123017
F1010700301
sI123018
F1010701062
sI123019
F1010705889
sI123020
F1010711306
sI123021
F1010714598
sI123022
F1010719562
sI123023
F1010724422
sI123024
F1010729428
sI123025
F1010734720
sI123026
F1010739625
sI123027
F1010744575
sI123028
F1010749502
sI123029
F1010754434
sI123030
F1010760777
sI123031
F1010760928
sI123032
F1010761505
sI123033
F1010761722
sI123034
F1010763184
sI123035
F1010765547
sI123036
F1010767469
sI123037
F0
sI123038
F1010773781
sI123039
F1010777163
sI123040
F1010782079
sI123041
F1010787066
sI123042
F1010791982
sI123043
F1010796910
sI123044
F1010801793
sI123045
F1010805498
sI123046
F1010810450
sI123047
F0
sI123048
F1010811071
sI123049
F1010815383
sI123050
F1010820859
sI123051
F1010825810
sI123052
F1010830811
sI123053
F1010835436
sI123054
F1010836408
sI123055
F1010841288
sI123056
F1010846078
sI123057
F1010847879
sI123058
F1010853616
sI123059
F1010859370
sI123060
F1010865218
sI123061
F1010870364
sI123062
F1010870977
sI123063
F1010876753
sI123064
F1010882464
sI123065
F1010888346
sI123066
F1010893998
sI123067
F1010899932
sI123068
F1010906172
sI123069
F1010911797
sI123070
F1010912228
sI123071
F1010917679
sI123072
F0
sI123073
F0
sI123074
F1010921325
sI123075
F1010922956
sI123076
F1010923364
sI123077
F1010923679
sI123078
F1010925997
sI123079
F1010927613
sI123080
F1010928126
sI123081
F1010928587
sI123082
F1010930962
sI123083
F1010931780
sI123084
F1010937706
sI123085
F1010939859
sI123086
F1010944439
sI123087
F1010945450
sI123088
F1010951485
sI123089
F1010959144
sI123090
F1010966905
sI123091
F1010974538
sI123092
F1010978312
sI123093
F1010979781
sI123094
F1010981462
sI123095
F1010982294
sI123096
F1010989808
sI123097
F1010990314
sI123098
F1010994636
sI123099
F1011002502
sI123100
F1011009565
sI123101
F1011010218
sI123102
F1011022057
sI123103
F1011023056
sI123104
F0
sI123105
F1011026392
sI123106
F1011027544
sI123107
F1011027672
sI123108
F1011027852
sI123109
F1011029243
sI123110
F1011029396
sI123111
F0
sI123112
F1011030260
sI123113
F0
sI123114
F1011034771
sI123115
F1011037185
sI123116
F1011037467
sI123117
F1011038116
sI123118
F0
sI123119
F1011038383
sI123120
F0
sI123121
F0
sI123122
F1011039441
sI123123
F1011039963
sI123124
F1011040354
sI123125
F1011046712
sI123126
F1011048079
sI123127
F1011048476
sI123128
F0
sI123129
F1011050812
sI123130
F1011052789
sI123131
F0
sI123132
F0
sI123133
F1011053933
sI123134
F0
sI123135
F1011056505
sI123136
F0
sI123137
F0
sI123138
F1011061153
sI123139
F1011064889
sI123140
F1011066475
sI123141
F1011068628
sI123142
F0
sI123143
F1011070073
sI123144
F1011105148
sI123145
F1011105853
sI123146
F1011106533
sI123147
F1011107232
sI123148
F1011112773
sI123149
F0
sI123150
F1011114916
sI123151
F1011117581
sI123152
F1011119178
sI123153
F1011120384
sI123154
F1011121280
sI123155
F1011125974
sI123156
F1011128504
sI123157
F0
sI123158
F1011133583
sI123159
F1011141594
sI123160
F1011141900
sI123161
F1011142587
sI123162
F1011143792
sI123163
F1011145752
sI123164
F1011147717
sI123165
F1011149098
sI123166
F1011151705
sI123167
F1011155497
sI123168
F1011161635
sI123169
F1011165505
sI123170
F1011169434
sI123171
F1011172053
sI123172
F1011173213
sI123173
F1011175853
sI123174
F1011176904
sI123175
F1011178541
sI123176
F1011182242
sI123177
F0
sI123178
F1011190829
sI123179
F1011202982
sI123180
F1011204512
sI123181
F0
sI123182
F1011208469
sI123183
F0
sI123184
F0
sI123185
F1011216232
sI123186
F0
sI123187
F1011222622
sI123188
F1011226562
sI123189
F1011237446
sI123190
F0
sI123191
F0
sI123192
F0
sI123193
F1011246243
sI123194
F1011249590
sI123195
F1011249994
sI123196
F1011250388
sI123197
F1011253863
sI123198
F1011257635
sI123199
F0
sI123200
F1011262862
sI123201
F1011264314
sI123202
F1011268166
sI123203
F0
sI123204
F1011272125
sI123205
F1011275154
sI123206
F1011278460
sI123207
F1011284265
sI123208
F1011290020
sI123209
F1011290752
sI123210
F1011297094
sI123211
F1011298165
sI123212
F1011301503
sI123213
F1011301706
sI123214
F1011306454
sI123215
F1011307367
sI123216
F1011314506
sI123217
F1011315180
sI123218
F1011315355
sI123219
F1011320904
sI123220
F1011327841
sI123221
F1011331454
sI123222
F0
sI123223
F1011334964
sI123224
F1011338651
sI123225
F1011344505
sI123226
F1011350319
sI123227
F1011353509
sI123228
F1011359052
sI123229
F1011359638
sI123230
F1011364543
sI123231
F0
sI123232
F1011366564
sI123233
F1011368042
sI123234
F1011370618
sI123235
F1011371369
sI123236
F1011373156
sI123237
F1011373928
sI123238
F1011376764
sI123239
F1011382098
sI123240
F1011382809
sI123241
F1011388374
sI123242
F1011390430
sI123243
F1011391318
sI123244
F1011393416
sI123245
F1011394226
sI123246
F0
sI123247
F0
sI123248
F1011401390
sI123249
F1011405711
sI123250
F1011406098
sI123251
F1011412456
sI123252
F1011418449
sI123253
F1011424369
sI123254
F1011430069
sI123255
F1011435986
sI123256
F1011436406
sI123257
F1011441776
sI123258
F1011442587
sI123259
F1011447447
sI123260
F1011453091
sI123261
F1011458820
sI123262
F1011464476
sI123263
F1011469705
sI123264
F1011470388
sI123265
F0
sI123266
F1011476680
sI123267
F1011481853
sI123268
F1011487524
sI123269
F1011493155
sI123270
F1011498839
sI123271
F1011501365
sI123272
F1011502122
sI123273
F1011507791
sI123274
F1011510091
sI123275
F1011513623
sI123276
F1011519463
sI123277
F1011519841
sI123278
F1011525220
sI123279
F1011531262
sI123280
F1011536937
sI123281
F1011544491
sI123282
F0
sI123283
F1011550273
sI123284
F1011551897
sI123285
F1011553702
sI123286
F1011558001
sI123287
F1011558718
sI123288
F0
sI123289
F1011561196
sI123290
F1011562393
sI123291
F1011564587
sI123292
F1011565427
sI123293
F1011565630
sI123294
F1011572890
sI123295
F1011580393
sI123296
F1011587211
sI123297
F0
sI123298
F1011588063
sI123299
F1011598351
sI123300
F1011598547
sI123301
F1011605705
sI123302
F1011611787
sI123303
F1011615348
sI123304
F1011616517
sI123305
F1011618235
sI123306
F0
sI123307
F1011631247
sI123308
F1011632772
sI123309
F1011634240
sI123310
F1011635113
sI123311
F1011640125
sI123312
F0
sI123313
F1011645099
sI123314
F1011650705
sI123315
F1011652525
sI123316
F1011653897
sI123317
F1011657017
sI123318
F1011658795
sI123319
F1011661671
sI123320
F1011668746
sI123321
F1011670014
sI123322
F1011674680
sI123323
F1011683808
sI123324
F1011686143
sI123325
F1011687448
sI123326
F1011689720
sI123327
F1011693260
sI123328
F1011696007
sI123329
F1011697363
sI123330
F1011698440
sI123331
F1011701399
sI123332
F1011713028
sI123333
F1011713743
sI123334
F0
sI123335
F0
sI123336
F0
sI123337
F0
sI123338
F0
sI123339
F0
sI123340
F0
sI123341
F0
sI123342
F1011728118
sI123343
F1011728517
sI123344
F1011729107
sI123345
F1011729237
sI123346
F1011741167
sI123347
F1011741820
sI123348
F0
sI123349
F0
sI123350
F0
sI123351
F1011755435
sI123352
F1011755831
sI123353
F0
sI123354
F1011756738
sI123355
F1011758679
sI123356
F0
sI123357
F0
sI123358
F0
sI123359
F1011763843
sI123360
F0
sI123361
F0
sI123362
F1011765580
sI123363
F0
sI123364
F0
sI123365
F1011767186
sI123366
F0
sI123367
F1011767717
sI123368
F1011767898
sI123369
F1011768708
sI123370
F1011772275
sI123371
F1011776066
sI123372
F1011776655
sI123373
F1011776865
sI123374
F1011777485
sI123375
F1011777730
sI123376
F1011778290
sI123377
F0
sI123378
F1011780099
sI123379
F1011783352
sI123380
F1011784355
sI123381
F1011787495
sI123382
F1011788413
sI123383
F0
sI123384
F1011803908
sI123385
F1011805886
sI123386
F1011808628
sI123387
F1011814497
sI123388
F1011816527
sI123389
F1011829334
sI123390
F1011835482
sI123391
F1011836334
sI123392
F1011837073
sI123393
F1011838002
sI123396
F1011844775
sI123397
F1011847700
sI123399
F1011852185
sI123400
F1011853013
sI123401
F1011862172
sI123402
F1011865832
sI123403
F1011869969
sI123404
F1011874116
sI123405
F1011878403
sI123406
F1011881441
sI123407
F1011882287
sI123408
F1011882949
sI123409
F1011883130
sI123410
F1011889953
sI123411
F1011897152
sI123412
F1011901596
sI123413
F1011902933
sI123414
F1011907589
sI123415
F1011912393
sI123416
F1011917457
sI123417
F1011919751
sI123418
F1011923690
sI123419
F1011928513
sI123420
F1011933399
sI123421
F1011938303
sI123423
F1011943870
sI123424
F1011947714
sI123425
F1011948632
sI123426
F1011952942
sI123427
F1011957836
sI123428
F1011962632
sI123429
F1011967373
sI123430
F1011972178
sI123431
F1011977504
sI123432
F1011978384
sI123433
F1011983255
sI123434
F1011989225
sI123435
F1011991331
sI123436
F1011992971
sI123437
F1011996326
sI123439
F1012000674
sI123440
F1012003907
sI123441
F1012009117
sI123442
F1012013991
sI123443
F1012017942
sI123444
F1012018892
sI123445
F1012019757
sI123446
F1012023698
sI123447
F1012028633
sI123449
F1012032921
sI123450
F1012033505
sI123451
F1012036758
sI123452
F1012038443
sI123453
F1012043225
sI123454
F1012045137
sI123455
F1012045598
sI123456
F1012047971
sI123457
F1012052822
sI123458
F1012054301
sI123459
F1012055530
sI123460
F1012058390
sI123461
F1012059011
sI123462
F1012064113
sI123463
F1012069767
sI123464
F1012075419
sI123465
F1012081219
sI123466
F1012086971
sI123467
F1012092695
sI123468
F1012093412
sI123469
F1012098700
sI123470
F1012099412
sI123471
F1012104941
sI123472
F1012110572
sI123473
F1012116232
sI123474
F1012118450
sI123475
F1012122029
sI123476
F1012123053
sI123477
F1012127778
sI123478
F1012133379
sI123479
F1012139105
sI123480
F1012144835
sI123481
F1012150457
sI123483
F1012156032
sI123484
F1012157017
sI123485
F1012161632
sI123486
F1012162025
sI123488
F1012163102
sI123490
F1012171438
sI123491
F1012171854
sI123492
F1012175332
sI123493
F1012181277
sI123494
F1012183632
sI123495
F1012184945
sI123496
F1012187527
sI123497
F1012191845
sI123498
F1012197636
sI123499
F1012203287
sI123500
F1012208983
sI123501
F1012214863
sI123502
F1012221254
sI123503
F1012221526
sI123504
F1012222170
sI123506
F1012256051
sI123508
F1012259175
sI123509
F1012261243
sI123511
F1012262800
sI123514
F1012267895
sI123515
F1012269127
sI123517
F1012271525
sI123518
F1012274254
sI123519
F1012275657
sI123520
F1012278592
sI123521
F1012279447
sI123522
F1012280222
sI123524
F1012281848
sI123526
F1012285098
sI123527
F1012285979
sI123528
F1012287044
sI123529
F1012289801
sI123530
F1012290837
sI123531
F1012292170
sI123532
F1012293787
sI123533
F1012296883
sI123534
F1012298171
sI123536
F1012305283
sI123540
F1012329526
sI123542
F1012335747
sI123543
F1012339594
sI123544
F1012339960
sI123549
F1012351158
sI123551
F1012352012
sI123552
F1012352634
sI123553
F1012354041
sI123554
F1012356773
sI123555
F1012358797
sI123556
F1012359394
sI123557
F1012360739
sI123558
F1012362620
sI123559
F1012362804
sI123560
F1012363220
sI123561
F1012363578
sI123562
F1012364420
sI123563
F1012367402
sI123564
F1012367801
sI123565
F1012368724
sI123566
F1012371228
sI123567
F1012375394
sI123568
F1012379352
sI123569
F1012383388
sI123570
F1012387161
sI123572
F1012391377
sI123573
F1012391690
sI123575
F1012392555
sI123576
F1012392817
sI123577
F1012393596
sI123579
F1012394751
sI123580
F1012395190
sI123581
F1012395887
sI123582
F1012396391
sI123583
F1012396658
sI123584
F1012396782
sI123585
F1012397751
sI123586
F1012402174
sI123587
F1012403524
sI123588
F1012403881
sI123589
F1012404367
sI123590
F1012409045
sI123591
F1012410216
sI123592
F1012412886
sI123594
F1012429002
sI123595
F1012430314
sI123596
F1012434297
sI123597
F1012438866
sI123598
F1012443755
sI123599
F1012448434
sI123600
F1012453166
sI123601
F1012457931
sI123602
F1012462688
sI123603
F1012467399
sI123604
F1012472126
sI123605
F1012476006
sI123606
F1012477176
sI123607
F1012481841
sI123608
F1012484049
sI123609
F1012488276
sI123610
F1012488837
sI123611
F1012493683
sI123612
F1012498466
sI123613
F1012502642
sI123614
F1012503930
sI123615
F1012505471
sI123616
F1012508708
sI123617
F1012513717
sI123618
F1012518565
sI123619
F1012523433
sI123620
F1012528251
sI123621
F1012533086
sI123622
F1012537168
sI123623
F1012537807
sI123624
F1012542890
sI123631
F1012554046
sI123632
F1012556280
sI123633
F1012560599
sI123634
F1012564158
sI123635
F1012564797
sI123636
F1012569763
sI123637
F1012574608
sI123638
F1012578174
sI123639
F1012579471
sI123640
F1012584275
sI123641
F1012588957
sI123642
F1012593010
sI123643
F1012593671
sI123644
F1012598772
sI123645
F1012603561
sI123646
F1012608408
sI123647
F1012613255
sI123648
F1012618601
sI123649
F1012622173
sI123650
F1012622891
sI123651
F1012628047
sI123652
F1012633142
sI123653
F1012638292
sI123654
F1012643216
sI123655
F1012648375
sI123656
F1012649151
sI123657
F1012653602
sI123658
F1012654093
sI123659
F1012658837
sI123660
F1012663890
sI123661
F1012664024
sI123662
F1012664523
sI123663
F1012665979
sI123664
F1012669931
sI123665
F1012670520
sI123667
F1012675989
sI123670
F1012677309
sI123671
F1012681217
sI123672
F1012681946
sI123673
F1012683617
sI123674
F1012689358
sI123675
F1012692383
sI123676
F1012698118
sI123677
F1012698726
sI123678
F1012700072
sI123679
F1012702792
sI123680
F1012707875
sI123683
F1012709919
sI123685
F1012718816
sI123686
F1012723078
sI123688
F1012729796
sI123689
F1012730026
sI123690
F1012731076
sI123691
F1012731848
sI123692
F1012738404
sI123693
F1012744173
sI123694
F1012749944
sI123695
F1012752104
sI123696
F1012757084
sI123697
F1012757862
sI123698
F1012763586
sI123699
F1012769334
sI123700
F1012775109
sI123701
F1012780866
sI123702
F1012781835
sI123703
F1012783607
sI123704
F1012785567
sI123705
F1012790714
sI123706
F1012793617
sI123707
F1012795706
sI123708
F1012800841
sI123709
F1012801511
sI123710
F1012807436
sI123711
F1012808610
sI123712
F1012809132
sI123713
F1012810022
sI123714
F1012811061
sI123715
F1012812506
sI123716
F1012817024
sI123717
F1012820988
sI123718
F1012823579
sI123719
F1012843540
sI123720
F1012846136
sI123722
F1012859060
sI123723
F1012859811
sI123724
F1012861363
sI123725
F1012861614
sI123726
F1012863012
sI123727
F1012864307
sI123728
F1012865187
sI123729
F1012866043
sI123730
F1012867476
sI123731
F1012868421
sI123734
F1012869349
sI123736
F1012875874
sI123737
F1012877292
sI123739
F1012877845
sI123740
F1012881897
sI123741
F1012913889
sI123742
F1012914123
sI123744
F1012915008
sI123745
F1012915592
sI123746
F1012917185
sI123747
F1012920663
sI123749
F1012923136
sI123751
F1012937190
sI123753
F1012938240
sI123755
F1012953443
sI123756
F1012961911
sI123757
F1012962356
sI123760
F1012964797
sI123762
F1012967089
sI123763
F1012969385
sI123766
F1012974284
sI123767
F1012975050
sI123768
F1012977567
sI123769
F1012980759
sI123770
F1012981252
sI123771
F1012981772
sI123772
F1012985821
sI123773
F1012990075
sI123774
F1012994283
sI123775
F1012998471
sI123776
F1013003129
sI123777
F1013011087
sI123778
F1013044062
sI123779
F1013048122
sI123780
F1013048269
sI123781
F1013048654
sI123782
F1013053850
sI123783
F1013058623
sI123784
F1013062815
sI123785
F1013065987
sI123786
F1013067055
sI123787
F1013071559
sI123789
F1013075904
sI123790
F1013079928
sI123792
F1013084192
sI123793
F1013090044
sI123794
F1013092421
sI123795
F1013101505
sI123796
F1013104048
sI123797
F1013106980
sI123799
F1013108232
sI123800
F1013110345
sI123801
F1013114981
sI123802
F1013115229
sI123803
F1013116467
sI123804
F1013121380
sI123805
F1013121916
sI123806
F1013122334
sI123807
F1013122779
sI123809
F1013123789
sI123810
F1013127175
sI123811
F1013132136
sI123812
F1013136968
sI123813
F1013141832
sI123814
F1013146650
sI123815
F1013151945
sI123816
F1013156776
sI123817
F1013161604
sI123818
F1013166318
sI123819
F1013170889
sI123820
F1013171386
sI123821
F1013176519
sI123822
F1013179202
sI123823
F1013184859
sI123825
F1013191433
sI123826
F1013191896
sI123827
F1013193723
sI123828
F1013194579
sI123829
F1013196346
sI123830
F1013201068
sI123831
F1013205833
sI123832
F1013210675
sI123833
F1013213183
sI123834
F1013217364
sI123835
F1013217541
sI123836
F1013217947
sI123837
F1013222743
sI123838
F1013226833
sI123839
F1013227473
sI123840
F1013232226
sI123841
F1013237095
sI123842
F1013242078
sI123843
F1013244396
sI123844
F1013246949
sI123845
F1013251959
sI123846
F1013256595
sI123847
F1013256781
sI123848
F1013260866
sI123849
F1013261545
sI123850
F1013264291
sI123851
F1013267329
sI123852
F1013273069
sI123853
F1013278827
sI123854
F1013284026
sI123857
F1013285919
sI123858
F1013286605
sI123859
F1013290222
sI123860
F1013293270
sI123861
F1013295750
sI123862
F1013296580
sI123863
F1013299370
sI123864
F1013302308
sI123865
F1013308076
sI123866
F1013313920
sI123867
F1013320061
sI123868
F1013325700
sI123869
F1013331667
sI123870
F1013337462
sI123871
F1013338397
sI123872
F1013344486
sI123873
F1013350468
sI123874
F1013356286
sI123875
F1013357824
sI123876
F1013364511
sI123877
F1013370159
sI123878
F1013370632
sI123879
F1013376309
sI123880
F1013381307
sI123881
F1013381789
sI123882
F1013387555
sI123883
F1013393281
sI123884
F1013393772
sI123885
F1013397525
sI123886
F1013398951
sI123887
F1013404620
sI123888
F1013410374
sI123889
F1013414982
sI123890
F1013416009
sI123891
F1013421823
sI123892
F1013427786
sI123893
F1013429389
sI123894
F1013462572
sI123895
F1013468557
sI123896
F1013469760
sI123898
F1013475872
sI123899
F1013479071
sI123900
F1013483888
sI123901
F1013485990
sI123902
F1013488706
sI123903
F1013491192
sI123904
F1013494555
sI123905
F1013495770
sI123906
F1013498403
sI123907
F1013500432
sI123908
F1013503582
sI123909
F1013506110
sI123910
F1013508567
sI123911
F1013509853
sI123912
F1013512939
sI123913
F1013515969
sI123914
F1013517168
sI123915
F1013519489
sI123916
F1013521003
sI123917
F1013521164
sI123918
F1013521992
sI123919
F1013526553
sI123920
F1013539695
sI123921
F1013543113
sI123922
F1013544833
sI123923
F1013552080
sI123924
F1013566762
sI123925
F1013568088
sI123926
F1013569237
sI123927
F1013572451
sI123928
F1013576993
sI123930
F1013583139
sI123932
F1013635712
sI123933
F1013636989
sI123934
F1013637939
sI123935
F1013639888
sI123936
F1013702970
sI123937
F1013705057
sI123938
F1013705738
sI123939
F1013710091
sI123940
F1013715187
sI123941
F1013716144
sI123943
F1013720322
sI123944
F1013720896
sI123945
F1013725953
sI123951
F1013734479
sI123952
F1013736710
sI123953
F1013741516
sI123954
F1013745576
sI123955
F1013746299
sI123956
F1013751860
sI123958
F1013757183
sI123959
F1013762245
sI123960
F1013767416
sI123961
F1013772520
sI123962
F1013777681
sI123963
F1013783442
sI123964
F1013786455
sI123965
F1013791374
sI123966
F1013796683
sI123967
F1013800668
sI123968
F1013801515
sI123969
F1013802128
sI123970
F1013806732
sI123971
F1013808941
sI123972
F1013812222
sI123973
F1013817045
sI123974
F1013819604
sI123975
F1013821784
sI123976
F1013822260
sI123977
F1013827296
sI123978
F1013831927
sI123979
F1013832445
sI123980
F1013837091
sI123981
F1013842191
sI123982
F1013846881
sI123983
F1013851678
sI123984
F1013851906
sI123985
F1013857720
sI123986
F1013862576
sI123987
F1013867798
sI123988
F1013872833
sI123989
F1013873513
sI123990
F1013873912
sI123991
F1013874451
sI123992
F1013879532
sI123993
F1013885270
sI123994
F1013889959
sI123995
F1013891095
sI123996
F1013892309
sI123997
F1013893078
sI123998
F1013894580
sI123999
F1013896036
sI124000
F1013896802
sI124001
F1013898351
sI124002
F1013900153
sI124003
F1013901250
sI124004
F1013901765
sI124005
F1013901905
sI124006
F1013902962
sI124007
F1013903422
sI124008
F1013908226
sI124009
F1013913330
sI124010
F1013913867
sI124011
F1013919521
sI124012
F1013925336
sI124013
F1013931132
sI124014
F1013936872
sI124015
F1013942413
sI124016
F1013942630
sI124017
F1013948475
sI124018
F1013954342
sI124019
F1013954894
sI124020
F1013958223
sI124021
F1013961028
sI124022
F1013961346
sI124023
F1013961820
sI124024
F1013965314
sI124025
F1013971903
sI124026
F1013977558
sI124027
F1013983105
sI124029
F1013984504
sI124031
F1013989881
sI124032
F1013994672
sI124033
F1014000378
sI124034
F1014006060
sI124035
F1014011913
sI124036
F1014015732
sI124037
F1014016634
sI124038
F1014022439
sI124039
F1014028364
sI124040
F1014029174
sI124041
F1014033356
sI124043
F1014047751
sI124045
F1014056952
sI124046
F1014061684
sI124047
F1014064042
sI124048
F1014070339
sI124049
F1014072567
sI124050
F1014073328
sI124052
F1014122017
sI124053
F1014122098
sI124054
F1014122156
sI124055
F1014122697
sI124056
F1014123047
sI124058
F1014125178
sI124059
F1014125713
sI124060
F1014126729
sI124061
F1014135695
sI124062
F1014135862
sI124063
F1014136040
sI124064
F1014136132
sI124065
F1014136396
sI124066
F1014137129
sI124067
F1014137929
sI124068
F1014139721
sI124069
F1014140852
sI124070
F1014150004
sI124072
F1014152285
sI124073
F1014155136
sI124074
F1014156608
sI124075
F1014169244
sI124076
F1014169638
sI124077
F1014172331
sI124079
F1014174515
sI124080
F1014175413
sI124081
F1014179584
sI124083
F1014183821
sI124084
F1014184596
sI124085
F1014188612
sI124086
F1014193755
sI124087
F1014197954
sI124088
F1014202197
sI124089
F1014203410
sI124090
F1014205645
sI124091
F1014206332
sI124092
F1014210109
sI124094
F1014240406
sI124095
F1014241773
sI124096
F1014244070
sI124097
F1014245959
sI124098
F1014246191
sI124099
F1014247396
sI124100
F1014249855
sI124101
F1014259589
sI124102
F1014260941
sI124103
F1014269745
sI124104
F1014274128
sI124105
F1014274990
sI124106
F1014277504
sI124107
F1014280781
sI124108
F1014284419
sI124109
F1014284708
sI124110
F1014287993
sI124111
F1014291207
sI124112
F1014294448
sI124113
F1014297621
sI124114
F1014302718
sI124115
F1014308124
sI124116
F1014312763
sI124117
F1014314116
sI124118
F1014315445
sI124119
F1014316121
sI124121
F1014318011
sI124122
F1014321249
sI124123
F1014322151
sI124124
F1014326435
sI124125
F1014327025
sI124126
F1014332086
sI124127
F1014336651
sI124128
F1014341568
sI124129
F1014346210
sI124130
F1014351382
sI124131
F1014351914
sI124132
F1014352784
sI124134
F1014357727
sI124136
F1014360436
sI124137
F1014360713
sI124138
F1014365976
sI124139
F1014370726
sI124140
F1014375567
sI124141
F1014380428
sI124142
F1014386132
sI124143
F1014387614
sI124144
F1014388378
sI124145
F1014394449
sI124146
F1014395052
sI124148
F1014399620
sI124149
F1014401909
sI124150
F1014404549
sI124151
F1014408697
sI124152
F1014409733
sI124153
F1014414618
sI124154
F1014419403
sI124155
F1014424207
sI124156
F1014426047
sI124158
F1014431319
sI124159
F1014432350
sI124160
F1014435045
sI124161
F1014435539
sI124162
F1014440419
sI124163
F1014445156
sI124164
F1014449187
sI124165
F1014449960
sI124166
F1014454761
sI124167
F1014459543
sI124168
F1014464206
sI124170
F1014465766
sI124171
F1014469142
sI124172
F1014474133
sI124173
F1014479833
sI124174
F1014485719
sI124175
F1014491435
sI124176
F1014497439
sI124177
F1014503073
sI124178
F1014508733
sI124179
F1014510144
sI124181
F1014516419
sI124182
F1014521068
sI124183
F1014521812
sI124185
F1014523132
sI124186
F1014527558
sI124187
F1014532818
sI124188
F1014539712
sI124189
F1014544001
sI124190
F1014544315
sI124191
F1014550073
sI124192
F1014550297
sI124193
F1014555845
sI124194
F1014561552
sI124195
F1014567251
sI124196
F1014572971
sI124197
F1014578779
sI124199
F1014584113
sI124200
F1014584568
sI124201
F1014586697
sI124202
F1014590080
sI124203
F1014595781
sI124205
F1014597989
sI124206
F1014603634
sI124207
F1014604266
sI124208
F1014604996
sI124209
F1014609903
sI124210
F1014615844
sI124211
F1014620981
sI124212
F1014621529
sI124213
F1014627159
sI124214
F1014633973
sI124215
F1014648915
sI124216
F1014650127
sI124217
F1014650785
sI124218
F1014654465
sI124219
F1014662862
sI124220
F1014665210
sI124221
F1014666153
sI124222
F1014669979
sI124223
F1014694396
sI124224
F1014695341
sI124225
F1014697175
sI124227
F1014713509
sI124228
F1014728472
sI124229
F1014729221
sI124230
F1014729474
sI124231
F1014730298
sI124236
F1014749116
sI124237
F1014749436
sI124238
F1014752341
sI124239
F1014753609
sI124240
F1014754366
sI124241
F1014756738
sI124242
F1014764771
sI124243
F1014772912
sI124244
F1014775651
sI124245
F1014777373
sI124246
F1014778746
sI124247
F1014779718
sI124248
F1014779841
sI124249
F1014780633
sI124250
F1014781464
sI124251
F1014781946
sI124252
F1014783171
sI124253
F1014783571
sI124254
F1014784714
sI124255
F1014785167
sI124256
F1014785432
sI124258
F1014787059
sI124259
F1014790250
sI124261
F1014791711
sI124262
F1014795282
sI124263
F1014796622
sI124265
F1014806263
sI124266
F1014810528
sI124267
F1014811775
sI124269
F1014817607
sI124270
F1014818289
sI124271
F1014818564
sI124272
F1014844933
sI124273
F1014845831
sI124274
F1014846926
sI124275
F1014847756
sI124276
F1014853482
sI124277
F1014854870
sI124278
F1014861361
sI124279
F1014865729
sI124280
F1014869137
sI124281
F1014869883
sI124282
F1014874512
sI124285
F1014880571
sI124286
F1014881037
sI124287
F1014882421
sI124288
F1014883915
sI124289
F1014884525
sI124290
F1014887121
sI124291
F1014891065
sI124293
F1014895507
sI124294
F1014899202
sI124295
F1014902493
sI124296
F1014903080
sI124297
F1014909214
sI124298
F1014909798
sI124299
F1014910551
sI124300
F1014913856
sI124301
F1014917732
sI124302
F1014921527
sI124304
F1014926067
sI124305
F1014926672
sI124306
F1014927782
sI124308
F1014929800
sI124309
F1014930656
sI124310
F1014935858
sI124311
F1014937149
sI124312
F1014938779
sI124313
F1014943762
sI124314
F1014948643
sI124315
F1014953621
sI124316
F1014957893
sI124317
F1014958447
sI124318
F1014959561
sI124319
F1014963631
sI124321
F1014969439
sI124322
F1014973678
sI124323
F1014981887
sI124324
F1014982744
sI124325
F1014986576
sI124326
F1014986918
sI124327
F1014992252
sI124328
F1014997832
sI124329
F1015002671
sI124330
F1015008873
sI124331
F1015012786
sI124332
F1015013083
sI124333
F1015013626
sI124334
F1015018853
sI124335
F1015020869
sI124336
F1015023772
sI124337
F1015028745
sI124338
F1015033738
sI124339
F1015038690
sI124340
F1015042988
sI124341
F1015043588
sI124342
F1015045012
sI124343
F1015045993
sI124344
F1015048824
sI124345
F1015053641
sI124346
F1015053939
sI124347
F1015056453
sI124348
F1015061344
sI124349
F1015066446
sI124350
F1015071562
sI124351
F1015076441
sI124352
F1015082179
sI124353
F1015087916
sI124354
F1015093582
sI124355
F1015098659
sI124356
F1015099402
sI124357
F1015105317
sI124358
F1015105669
sI124359
F1015106118
sI124360
F1015111063
sI124361
F1015117233
sI124362
F1015123016
sI124363
F1015123854
sI124364
F1015128803
sI124365
F1015134807
sI124366
F1015140146
sI124367
F1015140824
sI124368
F1015142683
sI124369
F1015146653
sI124370
F1015152212
sI124371
F1015152649
sI124372
F1015153021
sI124373
F1015156564
sI124374
F1015162676
sI124375
F1015168445
sI124376
F1015174314
sI124377
F1015180069
sI124378
F1015184491
sI124379
F1015185430
sI124380
F1015187873
sI124382
F1015190427
sI124383
F1015196275
sI124384
F1015202126
sI124385
F1015208002
sI124386
F1015214949
sI124387
F1015215374
sI124388
F1015215585
sI124389
F1015216310
sI124390
F1015222182
sI124391
F1015227950
sI124392
F1015233841
sI124393
F1015239628
sI124394
F1015245193
sI124395
F1015263396
sI124397
F1015266681
sI124398
F1015268684
sI124399
F1015270833
sI124401
F1015272946
sI124402
F1015273721
sI124403
F1015276493
sI124404
F1015337904
sI124405
F1015338810
sI124406
F1015339768
sI124407
F1015340154
sI124408
F1015341352
sI124409
F1015342546
sI124410
F1015344629
sI124411
F1015348851
sI124412
F1015350872
sI124413
F1015353507
sI124414
F1015358193
sI124415
F1015420481
sI124416
F1015420953
sI124417
F1015421604
sI124418
F1015422240
sI124420
F1015422826
sI124421
F1015424772
sI124423
F1015427420
sI124424
F1015432331
sI124425
F1015440032
sI124428
F1015447494
sI124429
F1015449981
sI124430
F1015450652
sI124431
F1015466269
sI124432
F1015469635
sI124433
F1015470340
sI124434
F1015470755
sI124435
F1015471119
sI124436
F1015472923
sI124437
F1015474662
sI124439
F1015479007
sI124440
F1015479991
sI124444
F1015489895
sI124445
F1015493833
sI124446
F1015496164
sI124447
F1015496584
sI124448
F1015496978
sI124449
F1015500284
sI124450
F1015503653
sI124451
F1015507082
sI124452
F1015511715
sI124453
F1015514340
sI124454
F1015516294
sI124456
F1015521891
sI124458
F1015524490
sI124459
F1015525732
sI124460
F1015529825
sI124461
F1015530311
sI124462
F1015533745
sI124463
F1015540189
sI124464
F1015540860
sI124465
F1015545877
sI124466
F1015550755
sI124467
F1015555635
sI124468
F1015560094
sI124469
F1015561117
sI124472
F1015566579
sI124473
F1015570344
sI124474
F1015575229
sI124475
F1015580260
sI124476
F1015585131
sI124477
F1015586542
sI124478
F1015589942
sI124479
F1015595386
sI124480
F1015596786
sI124481
F1015601973
sI124482
F1015606752
sI124484
F1015612077
sI124485
F1015615858
sI124486
F1015616466
sI124487
F1015622374
sI124488
F1015622947
sI124489
F1015623335
sI124490
F1015623550
sI124491
F1015626135
sI124492
F1015629800
sI124493
F1015634743
sI124494
F1015638893
sI124495
F1015639568
sI124496
F1015644410
sI124497
F1015649337
sI124498
F1015654860
sI124499
F1015660149
sI124500
F1015664945
sI124501
F1015669654
sI124502
F1015669929
sI124505
F1015676030
sI124506
F1015679841
sI124507
F1015681401
sI124508
F1015687117
sI124509
F1015692783
sI124510
F1015698417
sI124511
F1015700123
sI124512
F1015700973
sI124513
F1015701427
sI124514
F1015705793
sI124515
F1015706366
sI124516
F1015712035
sI124517
F1015717757
sI124518
F1015723495
sI124519
F1015728243
sI124520
F1015735716
sI124522
F1015753870
sI124523
F1015758197
sI124524
F1015761652
sI124525
F1015764368
sI124526
F1015767398
sI124527
F1015769368
sI124528
F1015772585
sI124529
F1015773057
sI124530
F1015774069
sI124531
F1015778782
sI124532
F1015784487
sI124533
F1015787354
sI124534
F1015790508
sI124535
F1015792221
sI124536
F1015793494
sI124537
F1015796243
sI124538
F1015801924
sI124539
F1015807694
sI124540
F1015813502
sI124541
F1015814782
sI124542
F1015820515
sI124543
F1015826356
sI124545
F1015832772
sI124546
F1015838623
sI124547
F1015839500
sI124548
F1015845227
sI124549
F1015856941
sI124550
F1015868664
sI124551
F1015877248
sI124552
F1015879441
sI124553
F1015881457
sI124554
F1015882850
sI124555
F1015884205
sI124556
F1015885816
sI124557
F1015886653
sI124559
F1015898111
sI124560
F1015899787
sI124562
F1015900932
sI124565
F1015904017
sI124566
F1015905073
sI124567
F1015905508
sI124569
F1015913733
sI124570
F1015916441
sI124571
F1015916891
sI124572
F1015919571
sI124573
F1015924711
sI124574
F1015930876
sI124575
F1015934983
sI124576
F1015936874
sI124577
F1015939299
sI124578
F1015943973
sI124579
F1015944855
sI124580
F1015946114
sI124581
F1015946930
sI124582
F1015950542
sI124583
F1015951653
sI124584
F1015952546
sI124585
F1015962394
sI124586
F1015962899
sI124587
F1015963318
sI124589
F1015965189
sI124590
F1015965498
sI124591
F1015968600
sI124594
F1015971955
sI124595
F1015973444
sI124596
F1015978342
sI124597
F1015979983
sI124598
F1015981006
sI124600
F1015983005
sI124602
F1015986039
sI124603
F1015989108
sI124604
F1015989885
sI124605
F1015991759
sI124606
F1015992875
sI124607
F1016031107
sI124608
F1016033123
sI124609
F1016034026
sI124611
F1016038807
sI124612
F1016041827
sI124613
F1016045500
sI124614
F1016047697
sI124615
F1016050354
sI124616
F1016054134
sI124617
F1016055373
sI124618
F1016059101
sI124620
F1016063917
sI124621
F1016072927
sI124622
F1016073426
sI124623
F1016074799
sI124624
F1016076326
sI124625
F1016076843
sI124626
F1016080837
sI124629
F1016085437
sI124630
F1016087893
sI124631
F1016091045
sI124632
F1016096163
sI124633
F1016100689
sI124634
F1016105003
sI124636
F1016106224
sI124637
F1016109871
sI124638
F1016110439
sI124639
F1016112503
sI124640
F1016116368
sI124641
F1016117753
sI124643
F1016123330
sI124644
F1016124411
sI124645
F1016129078
sI124646
F1016133990
sI124647
F1016134439
sI124648
F1016138692
sI124650
F1016144088
sI124651
F1016148971
sI124652
F1016153826
sI124653
F1016158764
sI124655
F1016160611
sI124656
F1016163364
sI124657
F1016163974
sI124658
F1016169129
sI124659
F1016174273
sI124660
F1016179639
sI124662
F1016184769
sI124663
F1016185433
sI124664
F1016187633
sI124665
F1016187809
sI124666
F1016192580
sI124667
F1016194256
sI124668
F1016197434
sI124669
F1016202167
sI124670
F1016203136
sI124671
F1016204595
sI124672
F1016209398
sI124673
F1016214246
sI124674
F1016219071
sI124675
F1016224939
sI124676
F1016229763
sI124677
F1016234838
sI124678
F1016237715
sI124679
F1016239514
sI124680
F1016240919
sI124681
F1016245736
sI124682
F1016249980
sI124683
F1016250512
sI124684
F1016255534
sI124685
F1016260474
sI124687
F1016266262
sI124688
F1016268503
sI124689
F1016273002
sI124690
F1016273448
sI124691
F1016278327
sI124695
F1016287469
sI124696
F1016288238
sI124697
F1016288714
sI124698
F1016289189
sI124699
F1016289688
sI124700
F1016294093
sI124701
F1016294530
sI124702
F1016300212
sI124703
F1016305568
sI124704
F1016306044
sI124705
F1016311908
sI124706
F1016317564
sI124707
F1016323375
sI124708
F1016328972
sI124709
F1016334685
sI124710
F1016339871
sI124711
F1016340400
sI124712
F1016346180
sI124713
F1016351955
sI124714
F1016357740
sI124715
F1016363399
sI124716
F1016363638
sI124718
F1016369703
sI124719
F1016375411
sI124720
F1016381210
sI124721
F1016386969
sI124722
F1016392719
sI124723
F1016397791
sI124724
F1016397905
sI124725
F1016398444
sI124726
F1016404111
sI124727
F1016409800
sI124728
F1016413222
sI124729
F1016418903
sI124730
F1016424524
sI124731
F1016430433
sI124732
F1016436239
sI124733
F1016439088
sI124734
F1016444964
sI124735
F1016450850
sI124736
F1016455122
sI124737
F1016463673
sI124738
F1016464481
sI124739
F1016467398
sI124740
F1016468629
sI124741
F1016476753
sI124742
F1016487322
sI124743
F1016487679
sI124744
F1016489500
sI124746
F1016493314
sI124747
F1016497464
sI124748
F1016501626
sI124749
F1016502272
sI124751
F1016504071
sI124752
F1016505087
sI124753
F1016506484
sI124754
F1016507050
sI124755
F1016508148
sI124756
F1016508572
sI124757
F1016509133
sI124758
F1016509793
sI124759
F1016510396
sI124761
F1016511587
sI124762
F1016512451
sI124763
F1016513268
sI124764
F1016519027
sI124766
F1016527011
sI124767
F1016528038
sI124770
F1016561935
sI124771
F1016562379
sI124772
F1016563918
sI124773
F1016564272
sI124774
F1016565195
sI124775
F1016565332
sI124776
F1016567024
sI124777
F1016571245
sI124778
F1016571507
sI124779
F1016573122
sI124780
F1016574244
sI124781
F1016586384
sI124783
F1016588583
sI124784
F1016589737
sI124785
F1016599496
sI124786
F1016626881
sI124788
F1016635585
sI124789
F1016637220
sI124791
F1016645872
sI124792
F1016648534
sI124793
F1016657332
sI124794
F1016667369
sI124795
F1016677424
sI124796
F1016680108
sI124797
F1016681644
sI124798
F1016681900
sI124799
F1016682361
sI124800
F1016683230
sI124801
F1016683665
sI124802
F1016685017
sI124803
F1016686250
sI124804
F1016688395
sI124805
F1016689579
sI124806
F1016691602
sI124807
F1016695053
sI124808
F1016697750
sI124809
F1016701461
sI124810
F1016703349
sI124812
F1016706101
sI124814
F1016710556
sI124816
F1016715280
sI124817
F1016717540
sI124818
F1016719082
sI124819
F1016719835
sI124820
F1016721838
sI124821
F1016724168
sI124822
F1016725537
sI124823
F1016726933
sI124824
F1016730408
sI124825
F1016732824
sI124826
F1016733314
sI124828
F1016734605
sI124829
F1016740211
sI124830
F1016745793
sI124831
F1016750824
sI124832
F1016754161
sI124833
F1016759060
sI124836
F1016764968
sI124837
F1016768572
sI124838
F1016768815
sI124839
F1016773625
sI124840
F1016778518
sI124841
F1016779349
sI124842
F1016783292
sI124843
F1016783965
sI124844
F1016784949
sI124845
F1016788887
sI124846
F1016793065
sI124847
F1016794063
sI124848
F1016798940
sI124849
F1016803761
sI124850
F1016808790
sI124851
F1016813774
sI124852
F1016818893
sI124853
F1016823822
sI124854
F1016828812
sI124855
F1016830197
sI124856
F1016834036
sI124858
F1016841202
sI124859
F1016842454
sI124860
F1016848990
sI124861
F1016853769
sI124862
F1016858630
sI124863
F1016863612
sI124864
F1016868828
sI124865
F1016873724
sI124866
F1016878472
sI124869
F1016879993
sI124870
F1016880244
sI124871
F1016883474
sI124873
F1016886820
sI124874
F1016887387
sI124875
F1016889806
sI124876
F1016894901
sI124877
F1016895832
sI124878
F1016901949
sI124879
F1016903780
sI124880
F1016909639
sI124881
F1016915401
sI124882
F1016921097
sI124883
F1016927269
sI124884
F1016933014
sI124885
F1016938514
sI124886
F1016938812
sI124887
F1016944379
sI124888
F1016950623
sI124889
F1016956412
sI124890
F1016962243
sI124892
F1016969097
sI124893
F1016971499
sI124894
F1016972050
sI124895
F1016977768
sI124896
F1016983589
sI124897
F1016989407
sI124898
F1016995183
sI124899
F1017001002
sI124900
F1017006484
sI124901
F1017006999
sI124902
F1017012359
sI124903
F1017016966
sI124904
F1017018761
sI124905
F1017020243
sI124906
F1017026156
sI124907
F1017027772
sI124908
F1017033588
sI124909
F1017034024
sI124911
F1017039615
sI124912
F1017040388
sI124913
F1017045498
sI124914
F1017051297
sI124915
F1017052045
sI124916
F1017056439
sI124917
F1017057760
sI124918
F1017084444
sI124919
F1017099887
sI124920
F1017100707
sI124924
F1017105951
sI124925
F1017106584
sI124926
F1017109482
sI124927
F1017113639
sI124929
F1017116585
sI124930
F1017117180
sI124931
F1017119329
sI124932
F1017119947
sI124933
F1017124518
sI124934
F1017125598
sI124935
F1017140851
sI124936
F1017142385
sI124937
F1017146075
sI124938
F1017146757
sI124939
F1017146863
sI124940
F1017147369
sI124941
F1017149362
sI124943
F1017151513
sI124944
F1017153535
sI124945
F1017162574
sI124946
F1017163713
sI124947
F1017186022
sI124948
F1017211095
sI124949
F1017211455
sI124950
F1017213863
sI124951
F1017215745
sI124952
F1017219741
sI124953
F1017222031
sI124954
F1017223591
sI124956
F1017244817
sI124957
F1017272944
sI124958
F1017273543
sI124959
F1017274445
sI124960
F1017276036
sI124961
F1017278495
sI124962
F1017283669
sI124963
F1017287961
sI124964
F1017292292
sI124966
F1017294376
sI124967
F1017297049
sI124968
F1017300784
sI124969
F1017304410
sI124970
F1017307916
sI124971
F1017311702
sI124972
F1017315598
sI124973
F1017318851
sI124974
F1017322994
sI124975
F1017328071
sI124978
F1017339667
sI124979
F1017341245
sI124980
F1017343379
sI124981
F1017343891
sI124982
F1017345395
sI124983
F1017350781
sI124984
F1017350980
sI124985
F1017353616
sI124986
F1017354267
sI124988
F1017355990
sI124989
F1017360902
sI124990
F1017365930
sI124991
F1017367611
sI124992
F1017368313
sI124993
F1017370221
sI124994
F1017373332
sI124995
F1017378865
sI124996
F1017381111
sI124997
F1017382277
sI124999
F1017384744
sI125000
F1017389158
sI125001
F1017394051
sI125002
F1017398364
sI125003
F1017399005
sI125004
F1017403930
sI125005
F1017408116
sI125006
F1017409050
sI125007
F1017415047
sI125008
F1017416507
sI125009
F1017417545
sI125011
F1017424328
sI125012
F1017425066
sI125013
F1017427184
sI125014
F1017427672
sI125015
F1017427907
sI125016
F1017429344
sI125017
F1017429955
sI125018
F1017432871
sI125019
F1017433620
sI125020
F1017434944
sI125021
F1017439834
sI125022
F1017444624
sI125023
F1017449514
sI125024
F1017454764
sI125025
F1017456745
sI125026
F1017461687
sI125027
F1017466339
sI125028
F1017466799
sI125029
F1017471721
sI125030
F1017476564
sI125031
F1017481565
sI125032
F1017486316
sI125033
F1017491159
sI125034
F1017496710
sI125036
F1017502919
sI125037
F1017507857
sI125038
F1017509079
sI125039
F1017514735
sI125040
F1017520505
sI125041
F1017525962
sI125042
F1017526538
sI125043
F1017532302
sI125044
F1017538109
sI125046
F1017539922
sI125048
F1017545546
sI125049
F1017551491
sI125050
F1017557107
sI125051
F1017557568
sI125052
F1017563091
sI125053
F1017563566
sI125054
F1017564070
sI125055
F1017568912
sI125056
F1017570561
sI125057
F1017576327
sI125058
F1017577654
sI125059
F1017582079
sI125061
F1017586180
sI125062
F1017587822
sI125064
F1017598667
sI125065
F1017600740
sI125066
F1017606441
sI125067
F1017606715
sI125068
F1017612191
sI125069
F1017617755
sI125070
F1017618030
sI125071
F1017619697
sI125072
F1017621931
sI125075
F1017626204
sI125076
F1017628729
sI125077
F1017634882
sI125078
F1017640841
sI125079
F1017644222
sI125080
F1017646635
sI125081
F1017647233
sI125082
F1017652985
sI125084
F1017654444
sI125085
F1017655216
sI125086
F1017655720
sI125088
F1017659146
sI125089
F1017677569
sI125090
F1017678421
sI125091
F1017697643
sI125092
F1017719019
sI125093
F1017719812
sI125094
F1017721331
sI125095
F1017723946
sI125096
F1017731985
sI125097
F1017734396
sI125098
F1017744922
sI125101
F1017753252
sI125102
F1017754553
sI125103
F1017755621
sI125104
F1017755740
sI125105
F1017756921
sI125106
F1017758297
sI125107
F1017759349
sI125108
F1017761490
sI125109
F1017762433
sI125110
F1017764117
sI125112
F1017764833
sI125113
F1017772860
sI125114
F1017774267
sI125115
F1017789405
sI125116
F1017790396
sI125117
F1017801497
sI125118
F1017802203
sI125119
F1017802695
sI125120
F1017806584
sI125121
F1017811262
sI125122
F1017816366
sI125123
F1017819255
sI125124
F1017820625
sI125125
F1017822246
sI125126
F1017825667
sI125127
F1017829564
sI125130
F1017858492
sI125131
F1017859209
sI125132
F1017859919
sI125133
F1017861876
sI125134
F1017862101
sI125135
F1017862514
sI125136
F1017863524
sI125137
F1017865036
sI125138
F1017867868
sI125139
F1017868064
sI125140
F1017868270
sI125141
F1017868658
sI125143
F1017869512
sI125144
F1017870068
sI125146
F1017878354
sI125147
F1017878794
sI125148
F1017904704
sI125149
F1017909158
sI125151
F1017913527
sI125152
F1017917002
sI125153
F1017917777
sI125154
F1017921953
sI125155
F1017926062
sI125157
F1017938938
sI125158
F1017940213
sI125159
F1017943935
sI125160
F1017948879
sI125161
F1017950977
sI125162
F1017951576
sI125163
F1017952294
sI125164
F1017953516
sI125165
F1017954337
sI125166
F1017954974
sI125167
F1017959053
sI125168
F1017960093
sI125169
F1017964940
sI125170
F1017969884
sI125171
F1017986842
sI125172
F1017994446
sI125174
F1017995423
sI125175
F1017996117
sI125176
F1018001100
sI125177
F1018006149
sI125178
F1018011046
sI125179
F1018016470
sI125180
F1018024622
sI125181
F1018030602
sI125182
F1018034914
sI125183
F1018036062
sI125184
F1018036792
sI125185
F1018039574
sI125186
F1018039728
sI125187
F1018040585
sI125188
F1018045558
sI125189
F1018050440
sI125190
F1018055342
sI125191
F1018060230
sI125192
F1018065086
sI125193
F1018070382
sI125194
F1018074903
sI125195
F1018079764
sI125196
F1018080021
sI125197
F1018082222
sI125198
F1018084386
sI125199
F1018088866
sI125200
F1018093361
sI125201
F1018097883
sI125202
F1018101690
sI125203
F1018106820
sI125204
F1018107230
sI125205
F1018107688
sI125206
F1018113169
sI125207
F1018119022
sI125208
F1018124780
sI125209
F1018125490
sI125210
F1018127679
sI125211
F1018128406
sI125212
F1018134343
sI125213
F1018140001
sI125214
F1018145750
sI125215
F1018151539
sI125216
F1018156925
sI125217
F1018157557
sI125218
F1018163550
sI125219
F1018163948
sI125220
F1018164535
sI125221
F1018164869
sI125222
F1018165365
sI125223
F1018170315
sI125224
F1018176102
sI125225
F1018181956
sI125226
F1018185799
sI125227
F1018187735
sI125228
F1018193449
sI125229
F1018199158
sI125230
F1018204194
sI125231
F1018204887
sI125232
F1018209596
sI125233
F1018211223
sI125234
F1018214619
sI125235
F1018220237
sI125236
F1018221010
sI125237
F1018227110
sI125238
F1018232857
sI125239
F1018238612
sI125240
F1018244338
sI125241
F1018244894
sI125242
F1018245349
sI125243
F1018246827
sI125244
F1018250091
sI125245
F1018251815
sI125246
F1018257689
sI125247
F1018259580
sI125248
F1018263181
sI125249
F1018263596
sI125250
F1018264874
sI125251
F1018265323
sI125252
F1018307380
sI125253
F1018309905
sI125254
F1018316677
sI125255
F1018320786
sI125256
F1018324948
sI125257
F1018329185
sI125258
F1018332429
sI125259
F1018333263
sI125260
F1018337411
sI125261
F1018341493
sI125262
F1018345799
sI125263
F1018349042
sI125264
F1018350000
sI125265
F1018352883
sI125266
F1018353342
sI125267
F1018354235
sI125268
F1018354929
sI125269
F1018356028
sI125270
F1018370264
sI125271
F1018370807
sI125273
F1018372785
sI125275
F1018390892
sI125276
F1018391329
sI125277
F1018392439
sI125278
F1018393136
sI125279
F1018393796
sI125281
F1018398023
sI125282
F1018400961
sI125284
F1018403299
sI125285
F1018407769
sI125286
F1018411645
sI125287
F1018415792
sI125288
F1018419728
sI125289
F1018420836
sI125290
F1018421434
sI125291
F1018425029
sI125292
F1018428819
sI125293
F1018429810
sI125294
F1018433208
sI125295
F1018437176
sI125296
F1018440118
sI125297
F1018441097
sI125298
F1018454813
sI125299
F1018463736
sI125300
F1018465405
sI125302
F1018479433
sI125303
F1018485595
sI125304
F1018488714
sI125305
F1018489734
sI125306
F1018492905
sI125307
F1018493811
sI125308
F1018498535
sI125309
F1018502700
sI125310
F1018507134
sI125311
F1018511460
sI125312
F1018515633
sI125313
F1018519743
sI125314
F1018519879
sI125315
F1018520397
sI125316
F1018531471
sI125317
F1018536350
sI125318
F1018541166
sI125319
F1018545887
sI125320
F1018546403
sI125322
F1018548760
sI125323
F1018549843
sI125324
F1018550552
sI125325
F1018551676
sI125326
F1018556632
sI125327
F1018561567
sI125329
F1018567338
sI125330
F1018570166
sI125331
F1018571311
sI125332
F1018575018
sI125333
F1018575878
sI125335
F1018577151
sI125336
F1018581393
sI125337
F1018581813
sI125338
F1018586684
sI125339
F1018591762
sI125340
F1018596661
sI125341
F1018601577
sI125342
F1018601823
sI125343
F1018607004
sI125344
F1018611401
sI125345
F1018616341
sI125346
F1018621319
sI125347
F1018626514
sI125348
F1018629457
sI125349
F1018630763
sI125350
F1018630946
sI125351
F1018631560
sI125352
F1018634417
sI125353
F1018639341
sI125354
F1018644596
sI125355
F1018649454
sI125357
F1018650600
sI125358
F1018654748
sI125359
F1018658919
sI125360
F1018659644
sI125361
F1018664602
sI125362
F1018669587
sI125363
F1018674446
sI125364
F1018679487
sI125365
F1018683964
sI125366
F1018684230
sI125367
F1018689199
sI125368
F1018694167
sI125369
F1018699046
sI125370
F1018703975
sI125371
F1018709808
sI125372
F1018712836
sI125373
F1018715651
sI125374
F1018720815
sI125375
F1018721514
sI125376
F1018726905
sI125377
F1018727499
sI125378
F1018730249
sI125379
F1018732863
sI125380
F1018733575
sI125382
F1018741178
sI125383
F1018745490
sI125384
F1018752762
sI125385
F1018757014
sI125388
F1018758206
sI125389
F1018758813
sI125390
F1018763033
sI125391
F1018769827
sI125392
F1018775278
sI125393
F1018781101
sI125395
F1018782445
sI125396
F1018787038
sI125397
F1018793026
sI125398
F1018795667
sI125399
F1018798906
sI125400
F1018804728
sI125401
F1018809888
sI125403
F1018810607
sI125404
F1018816520
sI125405
F1018822333
sI125406
F1018828044
sI125407
F1018828575
sI125408
F1018832472
sI125409
F1018838385
sI125410
F1018844233
sI125411
F1018849304
sI125412
F1018850049
sI125413
F1018855380
sI125414
F1018855934
sI125415
F1018861109
sI125416
F1018861738
sI125417
F1018897466
sI125418
F1018905453
sI125420
F1018912629
sI125421
F1018912886
sI125422
F1018913464
sI125423
F1018915587
sI125424
F1018916729
sI125426
F1018919283
sI125428
F1018920926
sI125429
F1018923652
sI125430
F1018926785
sI125431
F1018927819
sI125433
F1018930742
sI125434
F1018931211
sI125435
F1018933267
sI125436
F1018936990
sI125437
F1018939988
sI125438
F1018942826
sI125439
F1018946170
sI125440
F1018948141
sI125441
F1018949916
sI125442
F1018950385
sI125444
F1018952808
sI125445
F1018953629
sI125446
F1018955026
sI125447
F1018955447
sI125448
F1018956308
sI125449
F1018956850
sI125450
F1018957492
sI125451
F1018958359
sI125452
F1018960464
sI125453
F1018985607
sI125454
F1018986293
sI125455
F1018987505
sI125456
F1018992189
sI125457
F1018993981
sI125458
F1018994645
sI125461
F1019001962
sI125463
F1019006659
sI125464
F1019015532
sI125465
F1019017716
sI125466
F1019018797
sI125467
F1019022529
sI125468
F1019024167
sI125469
F1019029351
sI125470
F1019034646
sI125472
F1019082981
sI125473
F1019084207
sI125474
F1019087249
sI125475
F1019146427
sI125476
F1019163683
sI125478
F1019169047
sI125479
F1019172080
sI125480
F1019174212
sI125482
F1019177896
sI125483
F1019180580
sI125484
F1019182449
sI125488
F1019188230
sI125489
F1019188813
sI125490
F1019192438
sI125491
F1019196434
sI125492
F1019198296
sI125495
F1019205680
sI125497
F1019228898
sI125498
F1019242657
sI125499
F1019243405
sI125500
F1019247288
sI125501
F1019253239
sI125502
F1019258048
sI125503
F1019262895
sI125504
F1019275136
sI125505
F1019275693
sI125506
F1019280029
sI125507
F1019280694
sI125508
F1019281319
sI125509
F1019284904
sI125511
F1019290271
sI125512
F1019309280
sI125513
F1019314847
sI125514
F1019320843
sI125515
F1019322497
sI125516
F1019325957
sI125517
F1019326848
sI125518
F1019332518
sI125519
F1019332923
sI125520
F1019333259
sI125521
F1019337631
sI125522
F1019338792
sI125523
F1019344017
sI125524
F1019344761
sI125525
F1019350608
sI125526
F1019356576
sI125527
F1019357833
sI125528
F1019362425
sI125529
F1019368139
sI125530
F1019374033
sI125531
F1019379805
sI125532
F1019385584
sI125533
F1019391399
sI125534
F1019394282
sI125535
F1019422471
sI125536
F1019428192
sI125537
F1019436020
sI125538
F1019436706
sI125539
F1019438260
sI125540
F1019442621
sI125541
F1019448654
sI125542
F1019453765
sI125543
F1019454351
sI125544
F1019460316
sI125545
F1019466276
sI125546
F1019469974
sI125547
F1019473281
sI125548
F1019502246
sI125549
F1019502629
sI125550
F1019503115
sI125551
F1019505559
sI125552
F1019507727
sI125553
F1019509692
sI125554
F1019512590
sI125555
F1019516457
sI125556
F1019520352
sI125557
F1019522079
sI125558
F1019526022
sI125559
F1019527447
sI125560
F1019530274
sI125561
F1019532700
sI125562
F1019536464
sI125563
F1019541757
sI125564
F1019547221
sI125565
F1019552406
sI125566
F1019557080
sI125567
F1019557576
sI125571
F1019564122
sI125572
F1019564858
sI125573
F1019566412
sI125574
F1019566532
sI125575
F1019567234
sI125576
F1019567737
sI125577
F1019568489
sI125578
F1019578066
sI125579
F1019580514
sI125581
F1019586013
sI125582
F1019588776
sI125583
F1019589260
sI125584
F1019589429
sI125585
F1019590284
sI125587
F1019593721
sI125588
F1019596433
sI125589
F1019598117
sI125590
F1019599749
sI125591
F1019600545
sI125592
F1019601798
sI125593
F1019605726
sI125594
F1019606332
sI125595
F1019610280
sI125596
F1019613253
sI125597
F1019614086
sI125598
F1019618065
sI125599
F1019620176
sI125601
F1019627015
sI125602
F1019630949
sI125603
F1019634281
sI125604
F1019635563
sI125605
F1019636871
sI125606
F1019637370
sI125607
F1019638675
sI125608
F1019641173
sI125609
F1019643492
sI125610
F1019647083
sI125611
F1019666473
sI125612
F1019667271
sI125613
F1019669546
sI125614
F1019680570
sI125615
F1019684784
sI125616
F1019687601
sI125617
F1019691039
sI125619
F1019692556
sI125620
F1019693496
sI125621
F1019694884
sI125622
F1019697687
sI125623
F1019701740
sI125624
F1019704041
sI125625
F1019705531
sI125627
F1019709618
sI125629
F1019710423
sI125630
F1019712472
sI125631
F1019713536
sI125632
F1019715515
sI125633
F1019718599
sI125634
F1019722186
sI125635
F1019724764
sI125636
F1019727699
sI125637
F1019731490
sI125638
F1019732504
sI125639
F1019736529
sI125640
F1019740721
sI125641
F1019741341
sI125642
F1019746276
sI125643
F1019752081
sI125645
F1019756947
sI125646
F1019765732
sI125647
F1019770140
sI125648
F1019770656
sI125649
F1019775721
sI125650
F1019781193
sI125651
F1019786421
sI125652
F1019791310
sI125653
F1019793372
sI125654
F1019799123
sI125655
F1019804022
sI125656
F1019808731
sI125657
F1019809463
sI125658
F1019813845
sI125659
F1019817213
sI125660
F1019819502
sI125661
F1019832543
sI125662
F1019836787
sI125663
F1019837338
sI125664
F1019837928
sI125665
F1019838145
sI125666
F1019839497
sI125667
F1019842556
sI125668
F1019847404
sI125669
F1019852674
sI125670
F1019858966
sI125671
F1019863640
sI125672
F1019864007
sI125673
F1019868699
sI125675
F1019871117
sI125676
F1019875161
sI125677
F1019875538
sI125679
F1019881598
sI125681
F1019886468
sI125682
F1019886976
sI125683
F1019887373
sI125684
F1019890285
sI125685
F1019895258
sI125686
F1019895520
sI125687
F1019900177
sI125688
F1019910048
sI125689
F1019919589
sI125691
F1019927598
sI125692
F1019932984
sI125693
F1019938317
sI125694
F1019940593
sI125695
F1019946556
sI125696
F1019953110
sI125697
F1019954585
sI125700
F1019956919
sI125701
F1019960404
sI125702
F1019966245
sI125703
F1019972130
sI125704
F1019977258
sI125705
F1019978107
sI125706
F1019983857
sI125707
F1019989999
sI125708
F1019990227
sI125709
F1019996806
sI125710
F1020002655
sI125711
F1020008369
sI125712
F1020014229
sI125713
F1020019392
sI125714
F1020019872
sI125715
F1020028572
sI125716
F1020034472
sI125717
F1020040429
sI125718
F1020045705
sI125719
F1020051387
sI125721
F1020061137
sI125722
F1020062139
sI125723
F1020095489
sI125724
F1020096112
sI125725
F1020096631
sI125726
F1020103123
sI125727
F1020103697
sI125728
F1020113826
sI125729
F1020114708
sI125732
F1020122059
sI125733
F1020122826
sI125734
F1020122960
sI125735
F1020125282
sI125736
F1020126286
sI125737
F1020129812
sI125738
F1020130706
sI125739
F1020134803
sI125740
F1020138761
sI125741
F1020151809
sI125742
F1020169148
sI125743
F1020187766
sI125744
F1020188282
sI125745
F1020189953
sI125746
F1020197245
sI125747
F1020197754
sI125749
F1020199274
sI125750
F1020219416
sI125751
F1020221030
sI125752
F1020221561
sI125753
F1020222884
sI125755
F1020270385
sI125756
F1020271146
sI125757
F1020273552
sI125758
F1020274793
sI125759
F1020277862
sI125760
F1020278388
sI125761
F1020279612
sI125763
F1020291354
sI125765
F1020293145
sI125766
F1020295447
sI125767
F1020295768
sI125768
F1020298901
sI125770
F1020299624
sI125771
F1020301973
sI125772
F1020303564
sI125773
F1020305741
sI125774
F1020308483
sI125775
F1020310465
sI125776
F1020311295
sI125777
F1020311877
sI125778
F1020312615
sI125779
F1020313933
sI125780
F1020315536
sI125781
F1020316413
sI125782
F1020317244
sI125783
F1020318728
sI125784
F1020320139
sI125785
F1020324289
sI125786
F1020328196
sI125787
F1020330814
sI125788
F1020332182
sI125789
F1020336239
sI125790
F1020340164
sI125791
F1020341187
sI125792
F1020343420
sI125794
F1020343889
sI125795
F1020344798
sI125796
F1020345953
sI125797
F1020349760
sI125798
F1020350349
sI125799
F1020351382
sI125800
F1020362869
sI125802
F1020366575
sI125804
F1020367852
sI125805
F1020368368
sI125806
F1020373311
sI125807
F1020379160
sI125808
F1020380537
sI125809
F1020381237
sI125810
F1020383787
sI125811
F1020388316
sI125812
F1020389487
sI125813
F1020394392
sI125814
F1020399361
sI125815
F1020404124
sI125816
F1020408920
sI125817
F1020413735
sI125818
F1020418513
sI125819
F1020423058
sI125820
F1020423392
sI125821
F1020427523
sI125822
F1020429115
sI125823
F1020433910
sI125824
F1020435174
sI125825
F1020438849
sI125826
F1020443982
sI125827
F1020448083
sI125828
F1020452808
sI125829
F1020454910
sI125830
F1020457287
sI125831
F1020461616
sI125832
F1020462147
sI125833
F1020467176
sI125834
F1020472366
sI125835
F1020473340
sI125836
F1020477897
sI125837
F1020482241
sI125838
F1020482866
sI125839
F1020487614
sI125840
F1020487888
sI125841
F1020491850
sI125842
F1020492706
sI125843
F1020497786
sI125844
F1020499020
sI125845
F1020504237
sI125846
F1020509230
sI125847
F1020513461
sI125848
F1020515210
sI125849
F1020521448
sI125850
F1020527100
sI125851
F1020532486
sI125852
F1020538198
sI125853
F1020543650
sI125854
F1020544208
sI125855
F1020550113
sI125856
F1020556726
sI125857
F1020557289
sI125858
F1020562477
sI125859
F1020568299
sI125860
F1020574700
sI125861
F1020581581
sI125862
F1020587920
sI125863
F1020593103
sI125865
F1020594390
sI125866
F1020599343
sI125867
F1020602413
sI125868
F1020608203
sI125869
F1020614014
sI125870
F1020619780
sI125871
F1020624840
sI125872
F1020625496
sI125873
F1020631504
sI125874
F1020637960
sI125876
F1020644429
sI125877
F1020645192
sI125878
F1020650008
sI125879
F1020655419
sI125880
F1020655903
sI125881
F1020659438
sI125882
F1020661074
sI125883
F1020661692
sI125884
F1020667845
sI125885
F1020673688
sI125886
F1020679914
sI125887
F1020682457
sI125888
F1020683162
sI125890
F1020738433
sI125891
F1020739157
sI125892
F1020739978
sI125893
F1020759018
sI125894
F1020760106
sI125895
F1020763420
sI125896
F1020765169
sI125898
F1020766526
sI125899
F1020767185
sI125900
F1020767769
sI125901
F1020771052
sI125903
F1020773329
sI125904
F1020773902
sI125905
F1020774534
sI125906
F1020774652
sI125907
F1020775519
sI125909
F1020776476
sI125910
F1020777291
sI125911
F1020788896
sI125912
F1020789901
sI125913
F1020790728
sI125914
F1020804795
sI125915
F1020806056
sI125916
F1020806369
sI125917
F1020814462
sI125918
F1020818771
sI125919
F1020826769
sI125920
F1020832083
sI125921
F1020832810
sI125922
F1020834413
sI125923
F1020839043
sI125924
F1020844144
sI125925
F1020849149
sI125926
F1020853476
sI125927
F1020857548
sI125928
F1020865591
sI125929
F1020890303
sI125930
F1020895595
sI125931
F1020900083
sI125932
F1020901200
sI125933
F1020902674
sI125934
F1020905981
sI125935
F1020911326
sI125936
F1020915981
sI125937
F1020916528
sI125938
F1020921929
sI125939
F1020927182
sI125940
F1020932931
sI125941
F1020933785
sI125942
F1020938030
sI125943
F1020943101
sI125944
F1020943372
sI125945
F1020944149
sI125946
F1020944581
sI125947
F1020945362
sI125948
F1020945981
sI125950
F1020947275
sI125951
F1020947616
sI125952
F1020953322
sI125953
F1020956429
sI125954
F1020960671
sI125955
F1020961289
sI125956
F1020963276
sI125957
F1020966969
sI125958
F1020970517
sI125960
F1020972347
sI125961
F1020977326
sI125962
F1020982019
sI125963
F1020986835
sI125964
F1020991732
sI125965
F1020998346
sI125966
F1020999928
sI125967
F1021004438
sI125968
F1021004986
sI125969
F1021009822
sI125970
F1021014574
sI125971
F1021019303
sI125972
F1021024132
sI125973
F1021028945
sI125974
F1021035084
sI125975
F1021039349
sI125976
F1021040238
sI125977
F1021040743
sI125978
F1021044912
sI125979
F1021045407
sI125980
F1021049943
sI125981
F1021054760
sI125982
F1021059565
sI125983
F1021061794
sI125984
F1021064766
sI125985
F1021069707
sI125986
F1021077100
sI125987
F1021082470
sI125988
F1021087142
sI125989
F1021087658
sI125990
F1021089596
sI125992
F1021093268
sI125993
F1021097650
sI125994
F1021101593
sI125997
F1021105300
sI125998
F1021106323
sI125999
F1021107627
sI126000
F1021108097
sI126001
F1021111233
sI126002
F1021111658
sI126003
F1021112033
sI126005
F1021112461
sI126006
F1021116045
sI126007
F1021120781
sI126008
F1021126640
sI126009
F1021132299
sI126010
F1021137947
sI126011
F1021143589
sI126012
F1021149225
sI126013
F1021154562
sI126014
F1021155889
sI126015
F1021162537
sI126016
F1021168308
sI126017
F1021173985
sI126018
F1021180066
sI126019
F1021180668
sI126020
F1021185535
sI126021
F1021191096
sI126022
F1021191593
sI126024
F1021193043
sI126025
F1021197604
sI126026
F1021203901
sI126027
F1021209920
sI126028
F1021224824
sI126029
F1021230063
sI126030
F1021230732
sI126031
F1021234951
sI126032
F1021236169
sI126033
F1021240801
sI126034
F1021246763
sI126035
F1021252608
sI126036
F1021258468
sI126037
F1021261125
sI126038
F1021262372
sI126039
F1021262875
sI126040
F1021264304
sI126041
F1021269583
sI126042
F1021270006
sI126043
F1021270513
sI126044
F1021273629
sI126045
F1021275864
sI126046
F1021281621
sI126047
F1021287392
sI126048
F1021300468
sI126049
F1021304343
sI126050
F1021305255
sI126051
F1021316040
sI126052
F1021332895
sI126053
F1021334906
sI126054
F1021335067
sI126056
F1021351419
sI126057
F1021355906
sI126058
F1021360236
sI126059
F1021363012
sI126060
F1021364667
sI126061
F1021366967
sI126063
F1021370286
sI126064
F1021371365
sI126065
F1021373394
sI126066
F1021376791
sI126067
F1021377364
sI126068
F1021377875
sI126069
F1021378687
sI126070
F1021379042
sI126071
F1021379280
sI126073
F1021399164
sI126074
F1021406658
sI126075
F1021409467
sI126077
F1021412504
sI126078
F1021415886
sI126079
F1021417518
sI126080
F1021418870
sI126081
F1021427923
sI126082
F1021447063
sI126083
F1021449671
sI126084
F1021451978
sI126086
F1021456319
sI126087
F1021458769
sI126089
F1021459429
sI126091
F1021474768
sI126092
F1021475532
sI126093
F1021481829
sI126094
F1021484529
sI126095
F1021491016
sI126096
F1021492213
sI126097
F1021493643
sI126098
F1021495827
sI126099
F1021498025
sI126100
F1021498786
sI126101
F1021500751
sI126102
F1021506257
sI126103
F1021522659
sI126104
F1021552933
sI126106
F1021562820
sI126107
F1021563230
sI126108
F1021563725
sI126109
F1021565244
sI126110
F1021566774
sI126111
F1021571644
sI126112
F1021578940
sI126113
F1021583742
sI126114
F1021587639
sI126115
F1021588547
sI126116
F1021589009
sI126117
F1021592739
sI126118
F1021593817
sI126119
F1021598590
sI126120
F1021603474
sI126121
F1021608252
sI126122
F1021613334
sI126123
F1021618302
sI126124
F1021622672
sI126125
F1021623190
sI126126
F1021628099
sI126127
F1021632696
sI126129
F1021638929
sI126130
F1021642858
sI126131
F1021647672
sI126132
F1021652522
sI126133
F1021653207
sI126134
F1021653421
sI126135
F1021654100
sI126136
F1021657161
sI126137
F1021658640
sI126138
F1021663606
sI126139
F1021664265
sI126140
F1021665227
sI126141
F1021668303
sI126142
F1021670174
sI126143
F1021675370
sI126144
F1021680259
sI126145
F1021685266
sI126146
F1021690110
sI126147
F1021694610
sI126149
F1021698545
sI126150
F1021699016
sI126151
F1021699760
sI126152
F1021704670
sI126153
F1021709656
sI126154
F1021710082
sI126155
F1021711118
sI126156
F1021711956
sI126157
F1021712262
sI126158
F1021712750
sI126159
F1021714456
sI126161
F1021719849
sI126162
F1021723981
sI126163
F1021741422
sI126164
F1021747382
sI126165
F1021753469
sI126166
F1021756256
sI126167
F1021756787
sI126168
F1021759314
sI126169
F1021765218
sI126170
F1021771073
sI126171
F1021776320
sI126172
F1021776968
sI126173
F1021782699
sI126174
F1021788491
sI126175
F1021788766
sI126176
F1021794577
sI126177
F1021797466
sI126179
F1021798911
sI126180
F1021799340
sI126181
F1021800754
sI126182
F1021806495
sI126183
F1021811814
sI126184
F1021812335
sI126185
F1021817926
sI126186
F1021823648
sI126187
F1021829381
sI126188
F1021832739
sI126189
F1021833571
sI126190
F1021835583
sI126191
F1021841513
sI126192
F1021847422
sI126193
F1021853573
sI126194
F1021859376
sI126195
F1021862618
sI126196
F1021864859
sI126197
F1021865387
sI126198
F1021870416
sI126199
F1021871376
sI126200
F1021873768
sI126202
F1021875231
sI126203
F1021875897
sI126204
F1021877687
sI126205
F1021882650
sI126206
F1021888782
sI126207
F1021928687
sI126208
F1021929352
sI126211
F1021981450
sI126212
F1021982086
sI126213
F1021982210
sI126214
F1021983151
sI126215
F1021984259
sI126216
F1021988769
sI126217
F1021990399
sI126218
F1021991241
sI126220
F1021995125
sI126222
F1021998475
sI126223
F1021998785
sI126224
F1022000887
sI126225
F1022002173
sI126226
F1022002431
sI126227
F1022002661
sI126228
F1022003864
sI126229
F1022004670
sI126230
F1022005481
sI126233
F1022008963
sI126234
F1022009751
sI126235
F1022011852
sI126236
F1022012897
sI126237
F1022014428
sI126238
F1022015138
sI126239
F1022016975
sI126240
F1022017904
sI126241
F1022021623
sI126242
F1022031844
sI126243
F1022035126
sI126245
F1022035906
sI126246
F1022036314
sI126247
F1022036725
sI126248
F1022037922
sI126249
F1022098744
sI126251
F1022113115
sI126252
F1022118849
sI126253
F1022124925
sI126254
F1022127103
sI126255
F1022128814
sI126256
F1022130663
sI126257
F1022132837
sI126258
F1022135848
sI126259
F1022139624
sI126260
F1022141454
sI126261
F1022144081
sI126262
F1022144550
sI126263
F1022146188
sI126264
F1022147247
sI126265
F1022147916
sI126266
F1022151936
sI126267
F1022157111
sI126268
F1022157543
sI126270
F1022163322
sI126271
F1022166110
sI126272
F1022166327
sI126273
F1022167455
sI126274
F1022169087
sI126275
F1022170705
sI126276
F1022170892
sI126277
F1022171576
sI126278
F1022171807
sI126279
F1022172452
sI126280
F1022172993
sI126282
F1022174097
sI126283
F1022174682
sI126284
F1022175259
sI126285
F1022175557
sI126287
F1022178819
sI126288
F1022179354
sI126289
F1022182981
sI126290
F1022183978
sI126292
F1022189263
sI126293
F1022195269
sI126294
F1022200320
sI126295
F1022204711
sI126296
F1022205356
sI126297
F1022209667
sI126298
F1022210478
sI126299
F1022215889
sI126300
F1022221127
sI126301
F1022225550
sI126302
F1022226194
sI126303
F1022230608
sI126304
F1022231333
sI126305
F1022236330
sI126306
F1022241408
sI126307
F1022245350
sI126308
F1022246521
sI126309
F1022254168
sI126310
F1022259971
sI126311
F1022265528
sI126312
F1022266797
sI126313
F1022267264
sI126314
F1022267516
sI126315
F1022271343
sI126316
F1022275997
sI126317
F1022281047
sI126318
F1022281340
sI126319
F1022285364
sI126321
F1022286739
sI126322
F1022287317
sI126323
F1022291139
sI126325
F1022298294
sI126326
F1022301947
sI126327
F1022306609
sI126328
F1022310976
sI126329
F1022311470
sI126330
F1022315385
sI126332
F1022350773
sI126333
F1022351582
sI126334
F1022352261
sI126335
F1022353552
sI126337
F1022355310
sI126338
F1022355536
sI126340
F1022356629
sI126341
F1022362791
sI126342
F1022364817
sI126343
F1022366272
sI126344
F1022367047
sI126345
F1022370754
sI126346
F1022375897
sI126347
F1022376740
sI126348
F1022382249
sI126349
F1022382751
sI126350
F1022388426
sI126351
F1022388643
sI126352
F1022389120
sI126353
F1022394831
sI126354
F1022400926
sI126355
F1022406847
sI126356
F1022413814
sI126357
F1022419230
sI126359
F1022420573
sI126360
F1022434686
sI126361
F1022435334
sI126362
F1022441381
sI126363
F1022446683
sI126364
F1022447395
sI126365
F1022452842
sI126366
F1022453430
sI126367
F1022454132
sI126368
F1022458342
sI126369
F1022459723
sI126370
F1022465597
sI126371
F1022471531
sI126372
F1022477393
sI126373
F1022483341
sI126374
F1022489298
sI126375
F1022494634
sI126376
F1022495331
sI126378
F1022516784
sI126379
F1022518303
sI126380
F1022523094
sI126381
F1022523423
sI126382
F1022527080
sI126383
F1022528727
sI126384
F1022528993
sI126385
F1022530696
sI126386
F1022531392
sI126387
F1022532041
sI126388
F1022532491
sI126389
F1022533780
sI126390
F1022535177
sI126391
F1022536148
sI126392
F1022536776
sI126393
F1022538038
sI126394
F1022538617
sI126395
F1022539000
sI126396
F1022539652
sI126399
F1022555744
sI126400
F1022586606
sI126401
F1022587359
sI126404
F1022589724
sI126405
F1022590771
sI126406
F1022592347
sI126407
F1022592991
sI126408
F1022594681
sI126409
F1022594842
sI126410
F1022595684
sI126411
F1022596713
sI126412
F1022596972
sI126415
F1022601355
sI126416
F1022602515
sI126417
F1022612745
sI126418
F1022615485
sI126419
F1022622616
sI126420
F1022623621
sI126421
F1022624220
sI126422
F1022628916
sI126424
F1022629829
sI126427
F1022633117
sI126428
F1022634574
sI126429
F1022637340
sI126430
F1022641075
sI126431
F1022641595
sI126432
F1022646601
sI126433
F1022651387
sI126434
F1022655931
sI126435
F1022660519
sI126436
F1022665216
sI126438
F1022687042
sI126439
F1022688042
sI126440
F1022688455
sI126441
F1022689161
sI126442
F1022689446
sI126443
F1022690529
sI126446
F1022708625
sI126447
F1022709325
sI126449
F1022710820
sI126450
F1022721850
sI126451
F1022725893
sI126452
F1022727441
sI126453
F1022727714
sI126454
F1022730271
sI126455
F1022732482
sI126456
F1022733414
sI126457
F1022734094
sI126458
F1022734411
sI126459
F1022734899
sI126460
F1022735357
sI126461
F1022739390
sI126462
F1022743915
sI126464
F1022752926
sI126465
F1022756660
sI126466
F1022759870
sI126467
F1022761469
sI126468
F1022764673
sI126469
F1022764945
sI126471
F1022771592
sI126472
F1022775346
sI126473
F1022782457
sI126474
F1022786750
sI126475
F1022787428
sI126476
F1022789896
sI126477
F1022792566
sI126478
F1022797710
sI126479
F1022802787
sI126480
F1022807994
sI126481
F1022811901
sI126482
F1022812986
sI126483
F1022813448
sI126484
F1022817450
sI126485
F1022818360
sI126487
F1022824507
sI126488
F1022829513
sI126489
F1022834356
sI126490
F1022834783
sI126491
F1022839135
sI126492
F1022839646
sI126494
F1022845363
sI126496
F1022856968
sI126497
F1022858447
sI126498
F1022859237
sI126499
F1022859683
sI126500
F1022860482
sI126503
F1022863641
sI126504
F1022864945
sI126505
F1022869074
sI126506
F1022874577
sI126507
F1022877208
sI126508
F1022879664
sI126509
F1022885184
sI126510
F1022889644
sI126511
F1022894491
sI126512
F1022896075
sI126513
F1022897420
sI126514
F1022899477
sI126515
F1022903682
sI126516
F1022904766
sI126517
F1022905017
sI126519
F1022910247
sI126520
F1022910662
sI126521
F1022912979
sI126522
F1022914755
sI126523
F1022919517
sI126524
F1022924091
sI126525
F1022924643
sI126526
F1022925231
sI126527
F1022926131
sI126528
F1022929171
sI126529
F1022930432
sI126530
F1022931120
sI126531
F1022931870
sI126532
F1022933207
sI126533
F1022938837
sI126534
F1022939969
sI126535
F1022942320
sI126536
F1022943522
sI126537
F1022948882
sI126538
F1022949410
sI126539
F1022955038
sI126540
F1022960809
sI126541
F1022966884
sI126542
F1022972351
sI126543
F1022973719
sI126544
F1022977709
sI126545
F1022978070
sI126546
F1022978834
sI126547
F1022981125
sI126548
F1022981319
sI126549
F1022981548
sI126550
F1022982596
sI126551
F1022983296
sI126552
F1022983796
sI126553
F1022988815
sI126554
F1022989437
sI126555
F1022995197
sI126556
F1023001231
sI126557
F1023006924
sI126558
F1023012170
sI126559
F1023012730
sI126560
F1023017970
sI126561
F1023018337
sI126562
F1023018888
sI126563
F1023024142
sI126564
F1023029846
sI126565
F1023033359
sI126566
F1023034319
sI126567
F1023035596
sI126568
F1023035914
sI126569
F1023041288
sI126571
F1023047689
sI126572
F1023064443
sI126573
F1023070367
sI126574
F1023075801
sI126575
F1023076321
sI126576
F1023081872
sI126577
F1023087556
sI126578
F1023093263
sI126579
F1023097803
sI126580
F1023101037
sI126581
F1023102043
sI126582
F1023132593
sI126586
F1023138455
sI126587
F1023138682
sI126588
F1023152744
sI126589
F1023157397
sI126590
F1023158664
sI126591
F1023188869
sI126595
F1023202004
sI126596
F1023202233
sI126598
F1023203133
sI126599
F1023204369
sI126600
F1023204486
sI126601
F1023204860
sI126605
F1023213267
sI126606
F1023214072
sI126607
F1023214177
sI126608
F1023214378
sI126609
F1023224304
sI126610
F1023224918
sI126611
F1023225402
sI126612
F1023226404
sI126613
F1023232090
sI126614
F1023233436
sI126615
F1023234390
sI126616
F1023248979
sI126617
F1023255420
sI126618
F1023256959
sI126619
F1023262786
sI126620
F1023265426
sI126621
F1023266305
sI126622
F1023269770
sI126623
F1023273736
sI126624
F1023274285
sI126625
F1023276712
sI126626
F1023283084
sI126628
F1023303208
sI126630
F1023306733
sI126631
F1023317764
sI126632
F1023318131
sI126635
F1023321154
sI126636
F1023321567
sI126637
F1023321898
sI126639
F1023330765
sI126640
F1023331238
sI126641
F1023345910
sI126643
F1023349834
sI126644
F1023352269
sI126645
F1023355142
sI126646
F1023360691
sI126647
F1023364931
sI126648
F1023369257
sI126649
F1023369825
sI126650
F1023370960
sI126651
F1023372340
sI126652
F1023374338
sI126653
F1023379315
sI126655
F1023384340
sI126656
F1023389378
sI126657
F1023394461
sI126658
F1023401426
sI126659
F1023405617
sI126660
F1023406566
sI126661
F1023407164
sI126662
F1023407474
sI126663
F1023410818
sI126664
F1023412029
sI126665
F1023416926
sI126666
F1023421773
sI126667
F1023427036
sI126668
F1023432027
sI126669
F1023437075
sI126670
F1023441994
sI126671
F1023446461
sI126672
F1023447579
sI126673
F1023447909
sI126674
F1023451169
sI126675
F1023453821
sI126676
F1023454046
sI126677
F1023457254
sI126678
F1023459379
sI126679
F1023459793
sI126680
F1023466827
sI126682
F1023473053
sI126683
F1023476712
sI126684
F1023481596
sI126685
F1023486481
sI126686
F1023490716
sI126687
F1023491508
sI126688
F1023492010
sI126689
F1023496550
sI126690
F1023501611
sI126691
F1023506238
sI126692
F1023509635
sI126693
F1023514671
sI126694
F1023518959
sI126695
F1023519577
sI126697
F1023524927
sI126698
F1023525114
sI126699
F1023525443
sI126700
F1023529123
sI126701
F1023529461
sI126702
F1023534336
sI126703
F1023539416
sI126704
F1023545234
sI126705
F1023551136
sI126706
F1023552596
sI126707
F1023556750
sI126708
F1023562099
sI126709
F1023562505
sI126710
F1023568383
sI126711
F1023569932
sI126712
F1023575108
sI126713
F1023575832
sI126714
F1023576265
sI126715
F1023581337
sI126716
F1023581736
sI126717
F1023587441
sI126718
F1023592882
sI126719
F1023594552
sI126720
F1023598732
sI126721
F1023604520
sI126722
F1023606312
sI126723
F1023610247
sI126724
F1023615848
sI126725
F1023616160
sI126726
F1023621139
sI126727
F1023621376
sI126728
F1023621772
sI126729
F1023627647
sI126730
F1023632977
sI126731
F1023633482
sI126732
F1023639200
sI126733
F1023644953
sI126734
F1023650636
sI126735
F1023656563
sI126736
F1023662293
sI126737
F1023668004
sI126738
F1023673693
sI126739
F1023679080
sI126740
F1023679411
sI126742
F1023684998
sI126743
F1023685352
sI126744
F1023686335
sI126745
F1023691614
sI126746
F1023694105
sI126747
F1023699874
sI126748
F1023705129
sI126749
F1023705719
sI126751
F1023720113
sI126752
F1023720552
sI126753
F1023731484
sI126754
F1023731876
sI126755
F1023732686
sI126756
F1023733315
sI126757
F1023737060
sI126760
F1023753267
sI126761
F1023755325
sI126762
F1023756932
sI126763
F1023768398
sI126764
F1023770096
sI126765
F1023787671
sI126767
F1023793344
sI126768
F1023795006
sI126769
F1023795225
sI126770
F1023795874
sI126771
F1023796232
sI126772
F1023828374
sI126773
F1023837285
sI126774
F1023838164
sI126775
F1023839613
sI126776
F1023840247
sI126777
F1023844959
sI126778
F1023849841
sI126779
F1023855221
sI126780
F1023860587
sI126782
F1023866084
sI126783
F1023871484
sI126784
F1023876730
sI126785
F1023877476
sI126786
F1023881938
sI126787
F1023884155
sI126788
F1023885583
sI126789
F1023888032
sI126790
F1023888943
sI126791
F1023891900
sI126792
F1023892402
sI126793
F1023893548
sI126794
F1023894186
sI126795
F1023895930
sI126796
F1023898126
sI126798
F1023899027
sI126799
F1023899415
sI126800
F1023901492
sI126802
F1023905145
sI126803
F1023905339
sI126804
F1023905699
sI126805
F1023906570
sI126806
F1023908661
sI126807
F1023910673
sI126810
F1023919330
sI126811
F1023920023
sI126812
F1023921552
sI126813
F1023921782
sI126814
F1023922645
sI126815
F1023926877
sI126816
F1023931385
sI126817
F1023931691
sI126819
F1023939400
sI126820
F1023940029
sI126821
F1023940766
sI126822
F1023945625
sI126823
F1023946404
sI126824
F1023952074
sI126825
F1023957250
sI126826
F1023961734
sI126827
F1023962366
sI126828
F1023963235
sI126831
F1023970483
sI126832
F1023973946
sI126833
F1023979231
sI126834
F1023985090
sI126835
F1023990071
sI126836
F1023994939
sI126837
F1024000044
sI126838
F1024004924
sI126839
F1024007973
sI126840
F1024012265
sI126841
F1024013024
sI126842
F1024013466
sI126843
F1024017219
sI126844
F1024018774
sI126845
F1024019134
sI126846
F1024022623
sI126847
F1024027433
sI126848
F1024031926
sI126850
F1024033385
sI126851
F1024033702
sI126852
F1024036732
sI126853
F1024037393
sI126854
F1024042216
sI126855
F1024047124
sI126856
F1024051966
sI126858
F1024057869
sI126859
F1024062891
sI126860
F1024067239
sI126862
F1024068934
sI126863
F1024071981
sI126864
F1024072683
sI126865
F1024073157
sI126866
F1024073469
sI126867
F1024076995
sI126868
F1024077464
sI126869
F1024082284
sI126870
F1024087169
sI126871
F1024092048
sI126872
F1024096989
sI126873
F1024102029
sI126874
F1024102368
sI126875
F1024106727
sI126877
F1024110241
sI126878
F1024111888
sI126879
F1024117128
sI126880
F1024119753
sI126881
F1024121645
sI126882
F1024126454
sI126883
F1024131636
sI126884
F1024136078
sI126886
F1024139382
sI126888
F1024141735
sI126889
F1024147850
sI126890
F1024148653
sI126891
F1024153146
sI126892
F1024153769
sI126893
F1024159355
sI126894
F1024162687
sI126895
F1024165465
sI126896
F1024171731
sI126897
F1024172595
sI126898
F1024173025
sI126900
F1024173928
sI126901
F1024175031
sI126902
F1024175480
sI126903
F1024175798
sI126904
F1024176067
sI126905
F1024177344
sI126906
F1024177666
sI126907
F1024179337
sI126908
F1024180536
sI126909
F1024181538
sI126910
F1024187123
sI126911
F1024193109
sI126912
F1024198658
sI126913
F1024202113
sI126914
F1024207911
sI126915
F1024213676
sI126918
F1024228401
sI126919
F1024229646
sI126920
F1024249680
sI126921
F1024252744
sI126922
F1024253126
sI126923
F1024270569
sI126924
F1024273110
sI126925
F1024273897
sI126926
F1024276268
sI126927
F1024282570
sI126928
F1024282946
sI126929
F1024284262
sI126930
F1024287876
sI126931
F1024288313
sI126932
F1024294764
sI126933
F1024299242
sI126934
F1024304960
sI126935
F1024310055
sI126936
F1024310639
sI126937
F1024317686
sI126938
F1024318871
sI126939
F1024319216
sI126941
F1024325958
sI126942
F1024343711
sI126943
F1024346602
sI126944
F1024347130
sI126945
F1024349398
sI126946
F1024350381
sI126947
F1024351096
sI126948
F1024351489
sI126949
F1024353289
sI126950
F1024355150
sI126951
F1024357594
sI126952
F1024360182
sI126953
F1024360732
sI126955
F1024367054
sI126956
F1024371693
sI126957
F1024373161
sI126958
F1024376055
sI126959
F1024379799
sI126960
F1024384210
sI126962
F1024402568
sI126963
F1024407068
sI126964
F1024407401
sI126965
F1024408227
sI126966
F1024410649
sI126967
F1024410923
sI126968
F1024412062
sI126969
F1024413559
sI126970
F1024422872
sI126973
F1024426476
sI126975
F1024426966
sI126977
F1024427936
sI126978
F1024428375
sI126980
F1024430083
sI126981
F1024432899
sI126982
F1024433149
sI126983
F1024433576
sI126984
F1024434211
sI126986
F1024436703
sI126987
F1024439521
sI126988
F1024440296
sI126989
F1024445447
sI126990
F1024446692
sI126991
F1024447439
sI126992
F1024450709
sI126993
F1024453106
sI126994
F1024454701
sI126995
F1024456380
sI126996
F1024457797
sI126997
F1024459510
sI126998
F1024465134
sI126999
F1024467841
sI127000
F1024471679
sI127001
F1024476064
sI127002
F1024477512
sI127003
F1024479014
sI127004
F1024481376
sI127005
F1024484642
sI127006
F1024487119
sI127007
F1024493155
sI127008
F1024497957
sI127009
F1024502439
sI127010
F1024505332
sI127012
F1024508185
sI127013
F1024508430
sI127014
F1024509397
sI127016
F1024516354
sI127017
F1024520916
sI127018
F1024523450
sI127019
F1024524694
sI127020
F1024525007
sI127021
F1024525432
sI127022
F1024526026
sI127023
F1024529676
sI127024
F1024530980
sI127025
F1024534612
sI127026
F1024540668
sI127028
F1024547097
sI127029
F1024551812
sI127030
F1024553544
sI127031
F1024555872
sI127032
F1024560421
sI127033
F1024562895
sI127034
F1024564787
sI127035
F1024568785
sI127036
F1024573414
sI127037
F1024589375
sI127038
F1024590012
sI127039
F1024591107
sI127040
F1024600937
sI127041
F1024602333
sI127042
F1024614070
sI127043
F1024614932
sI127046
F1024629861
sI127047
F1024630954
sI127048
F1024632680
sI127049
F1024636637
sI127050
F1024637167
sI127051
F1024638092
sI127052
F1024642336
sI127053
F1024646798
sI127054
F1024651650
sI127055
F1024653435
sI127056
F1024657137
sI127057
F1024657508
sI127058
F1024663449
sI127059
F1024700680
sI127060
F1024703360
sI127061
F1024705023
sI127062
F1024710016
sI127063
F1024714617
sI127064
F1024715002
sI127065
F1024720321
sI127066
F1024725200
sI127067
F1024730177
sI127068
F1024735076
sI127069
F1024739623
sI127070
F1024739978
sI127071
F1024745637
sI127072
F1024749984
sI127073
F1024755796
sI127074
F1024758963
sI127076
F1024774673
sI127077
F1024775103
sI127078
F1024775950
sI127079
F1024777878
sI127080
F1024778280
sI127081
F1024782343
sI127082
F1024783860
sI127083
F1024784814
sI127084
F1024798715
sI127086
F1024799979
sI127087
F1024800878
sI127088
F1024802397
sI127089
F1024803305
sI127090
F1024803802
sI127091
F1024804796
sI127092
F1024805515
sI127093
F1024806236
sI127094
F1024807060
sI127095
F1024808837
sI127096
F1024843928
sI127097
F1024849624
sI127098
F1024853155
sI127099
F1024853615
sI127101
F1024864303
sI127103
F1024871951
sI127105
F1024873707
sI127106
F1024874514
sI127107
F1024875081
sI127108
F1024876327
sI127109
F1024880318
sI127110
F1024880794
sI127111
F1024886613
sI127112
F1024892951
sI127113
F1024898973
sI127114
F1024904761
sI127115
F1024910498
sI127116
F1024916306
sI127117
F1024921627
sI127118
F1024922212
sI127120
F1024927860
sI127121
F1024953564
sI127123
F1024957326
sI127125
F1024958472
sI127126
F1024961541
sI127127
F1024962497
sI127128
F1024963698
sI127129
F1024964896
sI127130
F1024967548
sI127131
F1024969110
sI127132
F1024971281
sI127133
F1024972105
sI127134
F1024973949
sI127135
F1024981667
sI127136
F1024984356
sI127137
F1024985944
sI127138
F1024987068
sI127139
F1024988757
sI127140
F1024993152
sI127141
F1024997193
sI127142
F1025000749
sI127143
F1025003593
sI127145
F1025007865
sI127146
F1025008381
sI127147
F1025011940
sI127149
F1025013072
sI127150
F1025013925
sI127151
F1025014350
sI127153
F1025015297
sI127154
F1025016366
sI127156
F1025018055
sI127157
F1025018909
sI127158
F1025019689
sI127160
F1025020393
sI127161
F1025021414
sI127162
F1025022512
sI127164
F1025024330
sI127165
F1025025091
sI127166
F1025026303
sI127167
F1025026499
sI127168
F1025027342
sI127169
F1025029206
sI127170
F1025030800
sI127171
F1025031766
sI127172
F1025034052
sI127173
F1025034456
sI127174
F1025035546
sI127175
F1025037442
sI127176
F1025037978
sI127177
F1025040056
sI127178
F1025045561
sI127180
F1025047376
sI127181
F1025048372
sI127182
F1025052107
sI127184
F1025053411
sI127185
F1025054780
sI127186
F1025056559
sI127187
F1025057499
sI127188
F1025059063
sI127189
F1025061918
sI127190
F1025062162
sI127191
F1025064069
sI127193
F1025069560
sI127194
F1025072421
sI127195
F1025073089
sI127196
F1025077435
sI127197
F1025081865
sI127198
F1025086134
sI127199
F1025090412
sI127200
F1025128185
sI127201
F1025129473
sI127202
F1025131378
sI127204
F1025142386
sI127205
F1025143904
sI127206
F1025147255
sI127207
F1025148301
sI127208
F1025148933
sI127209
F1025149271
sI127210
F1025150635
sI127211
F1025150986
sI127212
F1025151253
sI127213
F1025151601
sI127214
F1025155201
sI127215
F1025163879
sI127217
F1025168711
sI127218
F1025172095
sI127219
F1025176557
sI127220
F1025179547
sI127221
F1025181342
sI127222
F1025186269
sI127223
F1025190903
sI127224
F1025193907
sI127225
F1025196961
sI127226
F1025197392
sI127228
F1025199845
sI127229
F1025203788
sI127230
F1025207600
sI127231
F1025208723
sI127232
F1025213417
sI127233
F1025214040
sI127234
F1025214859
sI127235
F1025218552
sI127237
F1025224563
sI127238
F1025229046
sI127239
F1025232567
sI127240
F1025233262
sI127241
F1025238169
sI127242
F1025252559
sI127244
F1025253493
sI127245
F1025254484
sI127247
F1025256227
sI127249
F1025262015
sI127250
F1025265188
sI127251
F1025270531
sI127252
F1025274704
sI127253
F1025275446
sI127254
F1025276245
sI127255
F1025280438
sI127256
F1025280725
sI127257
F1025281066
sI127259
F1025285910
sI127260
F1025286385
sI127261
F1025287402
sI127262
F1025293234
sI127263
F1025295758
sI127264
F1025298884
sI127265
F1025303747
sI127266
F1025304795
sI127267
F1025308968
sI127268
F1025313899
sI127269
F1025318730
sI127270
F1025323499
sI127271
F1025328288
sI127272
F1025333082
sI127273
F1025337989
sI127274
F1025342649
sI127275
F1025343490
sI127276
F1025343873
sI127277
F1025344318
sI127278
F1025344725
sI127279
F1025347530
sI127280
F1025351722
sI127281
F1025355158
sI127282
F1025355513
sI127283
F1025365242
sI127285
F1025371072
sI127287
F1025377390
sI127288
F1025381709
sI127289
F1025383172
sI127290
F1025388905
sI127291
F1025394658
sI127293
F1025400717
sI127294
F1025401525
sI127295
F1025407642
sI127296
F1025413531
sI127297
F1025416685
sI127298
F1025422363
sI127299
F1025422594
sI127301
F1025423565
sI127302
F1025423892
sI127303
F1025424213
sI127304
F1025424550
sI127305
F1025428345
sI127306
F1025428961
sI127307
F1025431918
sI127308
F1025437788
sI127309
F1025449918
sI127310
F1025450346
sI127311
F1025451523
sI127312
F1025452194
sI127313
F1025456684
sI127314
F1025457172
sI127315
F1025464464
sI127316
F1025469818
sI127317
F1025470674
sI127318
F1025475499
sI127319
F1025476823
sI127320
F1025483646
sI127321
F1025489322
sI127322
F1025490521
sI127323
F1025495788
sI127324
F1025497976
sI127325
F1025498304
sI127326
F1025501560
sI127327
F1025501885
sI127328
F1025507646
sI127329
F1025513171
sI127330
F1025519029
sI127331
F1025612125
sI127332
F1025619396
sI127333
F1025626471
sI127335
F1025633629
sI127336
F1025634617
sI127337
F1025636421
sI127338
F1025639444
sI127339
F1025640347
sI127340
F1025641100
sI127341
F1025641877
sI127342
F1025642430
sI127343
F1025643635
sI127345
F1025644457
sI127346
F1025647454
sI127347
F1025648764
sI127348
F1025655669
sI127349
F1025655892
sI127350
F1025656561
sI127351
F1025661092
sI127352
F1025662897
sI127353
F1025665346
sI127354
F1025667360
sI127355
F1025668661
sI127361
F1025681473
sI127365
F1025687416
sI127366
F1025688438
sI127371
F1025701982
sI127372
F1025702723
sI127373
F1025703505
sI127374
F1025706024
sI127375
F1025706376
sI127376
F1025710795
sI127377
F1025711868
sI127378
F1025712161
sI127379
F1025713518
sI127381
F1025718504
sI127382
F1025719565
sI127383
F1025720070
sI127384
F1025729477
sI127386
F1025733535
sI127387
F1025734733
sI127389
F1025736454
sI127390
F1025737612
sI127391
F1025738079
sI127393
F1025739664
sI127394
F1025739808
sI127396
F1025740681
sI127397
F1025742170
sI127399
F1025743978
sI127402
F1025748787
sI127403
F1025752164
sI127404
F1025753438
sI127406
F1025754689
sI127407
F1025755473
sI127408
F1025757993
sI127409
F1025758749
sI127410
F1025759523
sI127411
F1025760472
sI127412
F1025761568
sI127413
F1025763900
sI127415
F1025765309
sI127416
F1025765984
sI127417
F1025767490
sI127418
F1025768581
sI127419
F1025774498
sI127420
F1025784386
sI127421
F1025789190
sI127422
F1025794097
sI127423
F1025799763
sI127424
F1025804578
sI127425
F1025810145
sI127426
F1025812698
sI127429
F1025815096
sI127437
F1025840572
sI127438
F1025840938
sI127439
F1025842025
sI127440
F1025843640
sI127441
F1025843923
sI127442
F1025844553
sI127443
F1025848660
sI127444
F1025853710
sI127445
F1025861598
sI127446
F1025862856
sI127447
F1025863744
sI127449
F1025864714
sI127451
F1025866567
sI127452
F1025867151
sI127453
F1025869808
sI127454
F1025871803
sI127455
F1025873599
sI127458
F1025878522
sI127459
F1025878848
sI127460
F1025882215
sI127461
F1025887101
sI127462
F1025891972
sI127463
F1025896574
sI127465
F1025897426
sI127466
F1025901729
sI127467
F1025902594
sI127468
F1025906580
sI127470
F1025908167
sI127471
F1025909145
sI127472
F1025910630
sI127473
F1025914172
sI127474
F1025918758
sI127475
F1025919058
sI127476
F1025919744
sI127477
F1025920393
sI127478
F1025923978
sI127479
F1025928963
sI127480
F1025934117
sI127481
F1025935252
sI127482
F1025940243
sI127483
F1025945083
sI127484
F1025949579
sI127485
F1025950444
sI127486
F1025950781
sI127487
F1025951108
sI127488
F1025951497
sI127489
F1025954844
sI127491
F1025959335
sI127492
F1025959692
sI127493
F1025965301
sI127494
F1025970996
sI127495
F1025971877
sI127497
F1025976064
sI127498
F1025976719
sI127499
F1025978945
sI127500
F1025982443
sI127501
F1025983701
sI127502
F1025985794
sI127503
F1025989609
sI127504
F1025990753
sI127505
F1025994836
sI127506
F1025995407
sI127507
F1026001221
sI127508
F1026007215
sI127509
F1026013623
sI127510
F1026019474
sI127511
F1026025442
sI127512
F1026026490
sI127513
F1026032256
sI127514
F1026037240
sI127515
F1026037879
sI127516
F1026038288
sI127517
F1026038615
sI127518
F1026038930
sI127519
F1026043757
sI127520
F1026044616
sI127521
F1026045686
sI127522
F1026049756
sI127523
F1026050197
sI127524
F1026055915
sI127525
F1026061643
sI127526
F1026063720
sI127527
F1026064080
sI127528
F1026073021
sI127529
F1026073741
sI127530
F1026074349
sI127531
F1026074986
sI127532
F1026080759
sI127533
F1026086055
sI127534
F1026086745
sI127535
F1026092546
sI127536
F1026094666
sI127537
F1026098690
sI127538
F1026104499
sI127539
F1026110735
sI127540
F1026114269
sI127542
F1026117255
sI127543
F1026121672
sI127544
F1026122203
sI127545
F1026128051
sI127546
F1026153865
sI127547
F1026172641
sI127548
F1026176821
sI127549
F1026185289
sI127550
F1026209529
sI127552
F1026210216
sI127553
F1026211126
sI127554
F1026212052
sI127555
F1026213303
sI127556
F1026213698
sI127557
F1026214362
sI127558
F1026215144
sI127560
F1026223395
sI127561
F1026230542
sI127562
F1026231367
sI127563
F1026231736
sI127565
F1026246404
sI127566
F1026248593
sI127567
F1026259021
sI127569
F1026266521
sI127570
F1026275345
sI127571
F1026279660
sI127572
F1026280100
sI127574
F1026284983
sI127575
F1026289333
sI127576
F1026291469
sI127577
F1026292007
sI127578
F1026299560
sI127579
F1026310250
sI127580
F1026313051
sI127581
F1026313443
sI127582
F1026314687
sI127583
F1026317668
sI127584
F1026320484
sI127586
F1026330832
sI127587
F1026343981
sI127588
F1026344555
sI127589
F1026349434
sI127591
F1026354160
sI127592
F1026354748
sI127594
F1026360727
sI127595
F1026365503
sI127596
F1026366216
sI127597
F1026367635
sI127598
F1026367865
sI127599
F1026371088
sI127600
F1026372516
sI127601
F1026376831
sI127602
F1026381300
sI127603
F1026387056
sI127606
F1026392718
sI127607
F1026396291
sI127609
F1026397658
sI127610
F1026397984
sI127611
F1026404469
sI127612
F1026410196
sI127613
F1026416284
sI127614
F1026420997
sI127615
F1026422423
sI127616
F1026426948
sI127619
F1026429227
sI127620
F1026432890
sI127621
F1026437748
sI127622
F1026442651
sI127623
F1026447762
sI127624
F1026453828
sI127625
F1026461011
sI127626
F1026465777
sI127627
F1026470505
sI127628
F1026475619
sI127630
F1026477177
sI127631
F1026480456
sI127632
F1026485246
sI127633
F1026485851
sI127634
F1026486439
sI127635
F1026486763
sI127636
F1026488834
sI127637
F1026490219
sI127638
F1026495398
sI127641
F1026501451
sI127642
F1026503067
sI127643
F1026505056
sI127644
F1026510424
sI127645
F1026515288
sI127646
F1026520178
sI127647
F1026525012
sI127649
F1026529890
sI127650
F1026530640
sI127651
F1026534704
sI127652
F1026539463
sI127654
F1026544609
sI127655
F1026547932
sI127656
F1026548273
sI127657
F1026549058
sI127658
F1026553929
sI127659
F1026554591
sI127660
F1026558620
sI127661
F1026560599
sI127662
F1026563395
sI127663
F1026569130
sI127664
F1026575712
sI127667
F1026579292
sI127668
F1026581397
sI127669
F1026586593
sI127670
F1026587398
sI127671
F1026591859
sI127672
F1026592324
sI127673
F1026593148
sI127674
F1026598382
sI127676
F1026599745
sI127677
F1026600068
sI127678
F1026604551
sI127679
F1026609783
sI127680
F1026610271
sI127681
F1026616052
sI127682
F1026621754
sI127683
F1026627449
sI127684
F1026633061
sI127685
F1026638808
sI127686
F1026644078
sI127687
F1026644691
sI127688
F1026644990
sI127689
F1026645398
sI127690
F1026645733
sI127691
F1026650189
sI127692
F1026652132
sI127693
F1026655947
sI127694
F1026656579
sI127695
F1026658493
sI127696
F1026662079
sI127697
F1026662737
sI127698
F1026663067
sI127699
F1026667313
sI127700
F1026667861
sI127701
F1026673588
sI127702
F1026679486
sI127703
F1026685264
sI127704
F1026691504
sI127708
F1026696987
sI127709
F1026697280
sI127710
F1026698135
sI127711
F1026703057
sI127712
F1026706498
sI127713
F1026708564
sI127714
F1026709872
sI127715
F1026711370
sI127718
F1026712706
sI127719
F1026713037
sI127720
F1026713492
sI127721
F1026714348
sI127722
F1026720049
sI127723
F1026725201
sI127724
F1026729578
sI127725
F1026730076
sI127727
F1026747214
sI127728
F1026765979
sI127729
F1026767549
sI127730
F1026771226
sI127731
F1026784236
sI127734
F1026786640
sI127735
F1026787561
sI127736
F1026788794
sI127737
F1026790184
sI127739
F1026803261
sI127740
F1026805434
sI127743
F1026827247
sI127744
F1026828554
sI127745
F1026829828
sI127746
F1026829948
sI127747
F1026830226
sI127748
F1026834394
sI127749
F1026835152
sI127750
F1026835379
sI127751
F1026835930
sI127752
F1026836190
sI127754
F1026836991
sI127755
F1026837525
sI127756
F1026838833
sI127757
F1026848692
sI127758
F1026850547
sI127759
F1026855585
sI127761
F1026880923
sI127762
F1026883635
sI127763
F1026884861
sI127764
F1026885660
sI127765
F1026888629
sI127766
F1026890276
sI127767
F1026896534
sI127768
F1026900383
sI127769
F1026903902
sI127770
F1026906175
sI127771
F1026915214
sI127772
F1026916183
sI127773
F1026916739
sI127774
F1026917092
sI127775
F1026918108
sI127776
F1026920336
sI127777
F1026921076
sI127778
F1026923400
sI127780
F1026924967
sI127781
F1026926321
sI127782
F1026930005
sI127783
F1026930685
sI127784
F1026931819
sI127786
F1026937992
sI127787
F1026943366
sI127788
F1026944300
sI127790
F1026967681
sI127791
F1026968404
sI127792
F1026970244
sI127793
F1026976285
sI127794
F1026977259
sI127795
F1026980829
sI127796
F1026985468
sI127797
F1026990066
sI127798
F1026994884
sI127799
F1027000602
sI127800
F1027003609
sI127801
F1027008042
sI127802
F1027013562
sI127803
F1027015970
sI127804
F1027031863
sI127805
F1027034581
sI127806
F1027037693
sI127807
F1027042713
sI127808
F1027047071
sI127809
F1027048168
sI127810
F1027051593
sI127812
F1027053661
sI127813
F1027053864
sI127814
F1027058932
sI127815
F1027075713
sI127816
F1027080880
sI127817
F1027081044
sI127818
F1027082311
sI127819
F1027089501
sI127820
F1027096808
sI127822
F1027101203
sI127824
F1027106141
sI127825
F1027106977
sI127826
F1027107505
sI127827
F1027109431
sI127828
F1027109753
sI127830
F1027116959
sI127831
F1027121181
sI127832
F1027123193
sI127833
F1027126085
sI127834
F1027131073
sI127835
F1027135975
sI127836
F1027138356
sI127837
F1027138778
sI127838
F1027141722
sI127839
F1027143366
sI127840
F1027147061
sI127841
F1027152015
sI127842
F1027156933
sI127843
F1027162590
sI127844
F1027167792
sI127845
F1027173211
sI127846
F1027179251
sI127848
F1027182198
sI127849
F1027184005
sI127850
F1027193212
sI127851
F1027193765
sI127855
F1027199493
sI127856
F1027200244
sI127857
F1027205593
sI127858
F1027206635
sI127859
F1027213232
sI127861
F1027219774
sI127862
F1027224902
sI127863
F1027225358
sI127864
F1027231264
sI127865
F1027237384
sI127866
F1027243332
sI127867
F1027249191
sI127868
F1027254228
sI127869
F1027255067
sI127870
F1027255709
sI127871
F1027261009
sI127872
F1027261927
sI127873
F1027262149
sI127874
F1027262464
sI127875
F1027267745
sI127876
F1027268593
sI127877
F1027269164
sI127878
F1027273526
sI127879
F1027274211
sI127880
F1027274615
sI127881
F1027277252
sI127883
F1027282214
sI127884
F1027283327
sI127885
F1027287744
sI127886
F1027293939
sI127887
F1027299440
sI127888
F1027301123
sI127889
F1027301541
sI127890
F1027305186
sI127891
F1027305562
sI127892
F1027312125
sI127893
F1027316943
sI127894
F1027322872
sI127895
F1027328762
sI127896
F1027333859
sI127897
F1027334863
sI127899
F1027369465
sI127900
F1027372339
sI127902
F1027380162
sI127903
F1027382697
sI127904
F1027384324
sI127905
F1027388900
sI127906
F1027436115
sI127907
F1027436645
sI127910
F1027438048
sI127911
F1027438869
sI127912
F1027439737
sI127913
F1027440233
sI127914
F1027440773
sI127915
F1027449436
sI127916
F1027450572
sI127918
F1027454437
sI127919
F1027458666
sI127922
F1027474460
sI127923
F1027474839
sI127924
F1027476071
sI127925
F1027480215
sI127927
F1027486394
sI127928
F1027491523
sI127929
F1027495060
sI127930
F1027496371
sI127931
F1027498353
sI127932
F1027502826
sI127933
F1027507750
sI127934
F1027511002
sI127936
F1027521873
sI127937
F1027522737
sI127938
F1027531942
sI127939
F1027532441
sI127940
F1027537894
sI127941
F1027542156
sI127942
F1027546756
sI127943
F1027547439
sI127944
F1027548010
sI127945
F1027548705
sI127946
F1027549517
sI127947
F1027552016
sI127949
F1027553300
sI127950
F1027557685
sI127951
F1027559178
sI127952
F1027562820
sI127953
F1027568760
sI127954
F1027571377
sI127955
F1027577672
sI127956
F1027580882
sI127957
F1027585438
sI127958
F1027588082
sI127959
F1027590791
sI127961
F1027595154
sI127962
F1027598486
sI127963
F1027602118
sI127965
F1027609294
sI127966
F1027610070
sI127967
F1027610941
sI127968
F1027613951
sI127969
F1027620073
sI127970
F1027625427
sI127971
F1027631501
sI127976
F1027643071
sI127978
F1027643743
sI127979
F1027644706
sI127980
F1027645568
sI127981
F1027646492
sI127982
F1027651106
sI127983
F1027651353
sI127984
F1027651569
sI127985
F1027656514
sI127986
F1027657615
sI127988
F1027662531
sI127989
F1027663003
sI127990
F1027667354
sI127991
F1027672252
sI127992
F1027677086
sI127993
F1027681327
sI127994
F1027681833
sI127995
F1027686816
sI127996
F1027691656
sI127997
F1027696655
sI127998
F1027702414
sI127999
F1027706699
sI128000
F1027711431
sI128001
F1027716343
sI128002
F1027720774
sI128003
F1027721138
sI128004
F1027725987
sI128005
F1027730923
sI128006
F1027734184
sI128007
F1027736092
sI128008
F1027740908
sI128009
F1027745789
sI128010
F1027750748
sI128011
F1027758722
sI128012
F1027763990
sI128013
F1027768383
sI128014
F1027769084
sI128015
F1027769452
sI128016
F1027769758
sI128017
F1027770139
sI128019
F1027775546
sI128020
F1027781794
sI128021
F1027788355
sI128022
F1027794741
sI128023
F1027796760
sI128024
F1027797358
sI128025
F1027800550
sI128029
F1027812120
sI128030
F1027813839
sI128031
F1027817238
sI128032
F1027823392
sI128033
F1027828663
sI128034
F1027829448
sI128035
F1027830460
sI128036
F1027836175
sI128038
F1027864359
sI128040
F1027876947
sI128043
F1027884373
sI128044
F1027888713
sI128045
F1027894771
sI128046
F1027896843
sI128048
F1027901712
sI128049
F1027902157
sI128050
F1027903591
sI128051
F1027904955
sI128052
F1027905500
sI128053
F1027906870
sI128054
F1027907460
sI128055
F1027913085
sI128056
F1027918892
sI128057
F1027925070
sI128061
F1027929053
sI128062
F1027929487
sI128063
F1027929858
sI128064
F1027931345
sI128065
F1027937546
sI128066
F1027991127
sI128068
F1027992215
sI128069
F1027995101
sI128070
F1027999941
sI128071
F1028028008
sI128072
F1028028437
sI128074
F1028029363
sI128076
F1028030420
sI128077
F1028031126
sI128078
F1028033509
sI128079
F1028034064
sI128080
F1028035108
sI128081
F1028035966
sI128082
F1028036167
sI128084
F1028047744
sI128085
F1028061857
sI128086
F1028068843
sI128087
F1028071344
sI128088
F1028072215
sI128089
F1028073736
sI128091
F1028075424
sI128094
F1028086413
sI128099
F1028091881
sI128100
F1028092555
sI128101
F1028094615
sI128102
F1028098679
sI128104
F1028101944
sI128105
F1028102814
sI128106
F1028106918
sI128107
F1028109573
sI128108
F1028110335
sI128109
F1028110667
sI128110
F1028113317
sI128111
F1028113663
sI128113
F1028152208
sI128114
F1028153601
sI128115
F1028154944
sI128116
F1028157331
sI128117
F1028160760
sI128118
F1028163571
sI128119
F1028163749
sI128120
F1028164123
sI128121
F1028165324
sI128122
F1028168712
sI128123
F1028172905
sI128124
F1028177471
sI128125
F1028181627
sI128127
F1028185886
sI128128
F1028186912
sI128129
F1028189185
sI128130
F1028189686
sI128131
F1028193672
sI128132
F1028197754
sI128133
F1028201846
sI128134
F1028207127
sI128135
F1028213962
sI128136
F1028218949
sI128137
F1028220272
sI128138
F1028225160
sI128139
F1028229626
sI128140
F1028231484
sI128141
F1028231835
sI128142
F1028234726
sI128143
F1028235972
sI128144
F1028237017
sI128145
F1028242462
sI128146
F1028247540
sI128147
F1028252741
sI128148
F1028257571
sI128149
F1028262916
sI128150
F1028268408
sI128151
F1028272783
sI128152
F1028274063
sI128153
F1028278993
sI128154
F1028284029
sI128155
F1028291030
sI128156
F1028295384
sI128157
F1028296021
sI128158
F1028301138
sI128159
F1028303290
sI128160
F1028304397
sI128162
F1028308722
sI128163
F1028309380
sI128164
F1028313687
sI128165
F1028314364
sI128166
F1028314643
sI128167
F1028315521
sI128168
F1028315974
sI128169
F1028317087
sI128170
F1028322051
sI128171
F1028326928
sI128172
F1028331838
sI128173
F1028333873
sI128174
F1028335098
sI128175
F1028335805
sI128176
F1028336732
sI128177
F1028341590
sI128178
F1028346497
sI128179
F1028351996
sI128180
F1028357066
sI128181
F1028362062
sI128182
F1028366991
sI128185
F1028373107
sI128186
F1028376828
sI128187
F1028382633
sI128188
F1028388535
sI128189
F1028391589
sI128190
F1028394490
sI128191
F1028399768
sI128192
F1028400352
sI128193
F1028400587
sI128194
F1028401027
sI128195
F1028406261
sI128196
F1028408657
sI128197
F1028408986
sI128198
F1028414231
sI128199
F1028420008
sI128200
F1028425808
sI128201
F1028431427
sI128202
F1028438158
sI128203
F1028443117
sI128204
F1028443941
sI128205
F1028449698
sI128206
F1028450248
sI128208
F1028458773
sI128209
F1028462723
sI128210
F1028463145
sI128211
F1028468928
sI128212
F1028474778
sI128213
F1028480728
sI128214
F1028486463
sI128215
F1028492437
sI128216
F1028497604
sI128217
F1028498295
sI128218
F1028502422
sI128219
F1028503383
sI128220
F1028503600
sI128221
F1028508553
sI128222
F1028509536
sI128223
F1028509919
sI128224
F1028513672
sI128225
F1028514354
sI128226
F1028514989
sI128227
F1028520804
sI128228
F1028526661
sI128229
F1028532880
sI128230
F1028538204
sI128233
F1028543705
sI128234
F1028544437
sI128236
F1028545662
sI128237
F1028545981
sI128238
F1028546313
sI128239
F1028560068
sI128240
F1028560689
sI128241
F1028561332
sI128242
F1028561491
sI128243
F1028561642
sI128244
F1028562264
sI128245
F1028571140
sI128246
F1028571415
sI128247
F1028572253
sI128248
F1028572854
sI128249
F1028574494
sI128250
F1028575017
sI128251
F1028575457
sI128252
F1028576787
sI128253
F1028577547
sI128254
F1028579448
sI128255
F1028580868
sI128256
F1028581298
sI128257
F1028594175
sI128258
F1028595347
sI128259
F1028596075
sI128260
F1028598296
sI128262
F1028600498
sI128263
F1028601901
sI128264
F1028607490
sI128265
F1028611460
sI128266
F1028617159
sI128267
F1028627674
sI128268
F1028628686
sI128269
F1028630663
sI128270
F1028632123
sI128271
F1028633235
sI128272
F1028634148
sI128273
F1028634762
sI128274
F1028635668
sI128275
F1028636578
sI128276
F1028637242
sI128277
F1028637507
sI128278
F1028657804
sI128279
F1028669404
sI128280
F1028670095
sI128281
F1028670550
sI128282
F1028671327
sI128285
F1028677639
sI128287
F1028683004
sI128288
F1028683893
sI128289
F1028688282
sI128290
F1028692145
sI128291
F1028696228
sI128292
F1028699685
sI128293
F1028700649
sI128294
F1028704930
sI128295
F1028709602
sI128297
F1028714452
sI128298
F1028719322
sI128299
F1028745129
sI128300
F1028748650
sI128301
F1028758772
sI128302
F1028759377
sI128303
F1028760119
sI128304
F1028763181
sI128305
F1028764064
sI128306
F1028767890
sI128307
F1028772971
sI128309
F1028775718
sI128310
F1028778286
sI128312
F1028780403
sI128313
F1028783101
sI128314
F1028786554
sI128315
F1028789168
sI128316
F1028793200
sI128317
F1028796365
sI128320
F1028831422
sI128321
F1028832958
sI128323
F1028833829
sI128324
F1028834721
sI128326
F1028838425
sI128327
F1028841372
sI128328
F1028847382
sI128329
F1028848655
sI128330
F1028848859
sI128332
F1028853120
sI128333
F1028897751
sI128334
F1028898135
sI128335
F1028922530
sI128336
F1028923693
sI128338
F1028925760
sI128339
F1028926792
sI128340
F1028928025
sI128341
F1028929406
sI128342
F1028933763
sI128343
F1028934562
sI128344
F1028935346
sI128346
F1028940112
sI128348
F1028948658
sI128349
F1028953028
sI128350
F1028954977
sI128351
F1028959856
sI128352
F1028964481
sI128353
F1028965117
sI128354
F1028965454
sI128355
F1028969477
sI128356
F1028969903
sI128357
F1028974821
sI128359
F1028980170
sI128360
F1028981034
sI128362
F1028987023
sI128363
F1028991720
sI128364
F1028997551
sI128365
F1029003384
sI128366
F1029004748
sI128367
F1029008641
sI128368
F1029009611
sI128369
F1029009933
sI128371
F1029014489
sI128372
F1029015283
sI128373
F1029019142
sI128375
F1029021348
sI128376
F1029021708
sI128377
F1029026735
sI128378
F1029032495
sI128379
F1029035769
sI128380
F1029038403
sI128381
F1029044165
sI128382
F1029044777
sI128383
F1029047449
sI128384
F1029049446
sI128385
F1029050038
sI128386
F1029051153
sI128387
F1029055601
sI128388
F1029061337
sI128389
F1029062011
sI128391
F1029067551
sI128392
F1029074058
sI128393
F1029080032
sI128394
F1029085867
sI128395
F1029091701
sI128396
F1029097500
sI128397
F1029103322
sI128399
F1029110031
sI128400
F1029114854
sI128401
F1029120620
sI128402
F1029156286
sI128403
F1029157064
sI128404
F1029158298
sI128405
F1029158926
sI128406
F1029159553
sI128407
F1029160297
sI128408
F1029160486
sI128409
F1029161896
sI128410
F1029162330
sI128411
F1029162712
sI128413
F1029164606
sI128415
F1029175245
sI128416
F1029187265
sI128417
F1029195223
sI128421
F1029273423
sI128422
F1029273932
sI128423
F1029274187
sI128425
F1030385343
sI128426
F1030386072
sI128427
F1030387145
sI128432
F1030394078
sI128433
F1030394540
sI128434
F1030456375
sI128435
F1030457171
sI128436
F1030458035
sI128437
F1030460596
sI128438
F1030461245
sI128439
F1030478160
sI128440
F1030478587
sI128441
F1030482536
sI128442
F1030482627
sI128443
F1030483651
sI128444
F1030484241
sI128445
F1030484459
sI128446
F1030540605
sI128447
F1030540732
sI128448
F1030541191
sI128449
F1030541802
sI128453
F1030544692
sI128454
F1030545448
sI128455
F1030545561
sI128456
F1030545763
sI128457
F1030546687
sI128458
F1030547070
sI128459
F1030548159
sI128460
F1030550264
sI128462
F1030554262
sI128464
F1030558320
sI128465
F1030559754
sI128466
F1030560127
sI128467
F1030579403
sI128468
F1030580040
sI128469
F1030630763
sI128471
F1030632706
sI128472
F1030640204
sI128473
F1030641669
sI128474
F1030642000
sI128475
F1030642413
sI128476
F1030643460
sI128477
F1030643955
sI128478
F1030644993
sI128479
F1030645634
sI128480
F1030646107
sI128481
F1030646291
sI128482
F1030647543
sI128484
F1030649655
sI128485
F1030719150
sI128486
F1030719647
sI128487
F1030720121
sI128488
F1030721106
sI128489
F1030723594
sI128490
F1030732612
sI128491
F1030733060
sI128493
F1030735743
sI128494
F1030736013
sI128495
F1030736147
sI128496
F1030736565
sI128497
F1030736890
sI128498
F1030737110
sI128499
F1030739627
sI128500
F1030739989
sI128501
F1030740338
sI128502
F1030740683
sI128504
F1030971674
sI128505
F1030972007
sI128506
F1030972244
sI128507
F1030972819
sI128508
F1030973184
sI128509
F1030973482
sI128510
F1030976982
sI128512
F1030978236
sI128513
F1030978454
sI128514
F1030979840
sI128515
F1030987521
sI128517
F1030989388
sI128518
F1030989575
sI128519
F1030994625
sI128520
F1030995102
sI128521
F1030995180
sI128522
F1030995723
sI128524
F1030996160
sI128526
F1031060416
sI128527
F1031060649
sI128528
F1031062652
sI128529
F1031062867
sI128530
F1031074618
sI128531
F1031074938
sI128532
F1031076078
sI128533
F1031076267
sI128534
F1031077347
sI128535
F1031077527
sI128536
F1031078536
sI128537
F1031078719
sI128539
F1031144689
sI128540
F1031147118
sI128541
F1031148202
sI128542
F1031148325
sI128543
F1031148488
sI128544
F1031149577
sI128547
F1031152810
sI128548
F1031153040
sI128549
F1031156429
sI128550
F1031156634
sI128551
F1031157770
sI128552
F1031157956
sI128553
F1031166646
sI128554
F1031166836
sI128555
F1031168414
sI128557
F1031231132
sI128559
F1031232831
sI128560
F1031233043
sI128561
F1031236775
sI128562
F1031237055
sI128563
F1031240695
sI128564
F1031241908
sI128565
F1031242215
sI128566
F1031243024
sI128567
F1031243203
sI128568
F1031248071
sI128569
F1031248730
sI128570
F1031259027
sI128571
F1031260021
sI128572
F1031316760
sI128573
F1031318585
sI128574
F1031319825
sI128575
F1031320031
sI128576
F1031322248
sI128577
F1031326347
sI128578
F1031329811
sI128579
F1031329959
sI128580
F1031330145
sI128581
F1031331279
sI128582
F1031334244
sI128583
F1031348663
sI128584
F1031576958
sI128586
F1031578351
sI128587
F1031578538
sI128588
F1031579785
sI128589
F1031584107
sI128590
F1031584780
sI128591
F1031592108
sI128592
F1031595381
sI128593
F1031598525
sI128594
F1031661535
sI128595
F1031661656
sI128597
F1031663011
sI128598
F1031664725
sI128599
F1031665713
sI128600
F1031666549
sI128603
F1031668417
sI128604
F1031670546
sI128606
F1031677319
sI128607
F1031677511
sI128608
F1031677993
sI128609
F1031678249
sI128611
F1031679813
sI128613
F1031753962
sI128614
F1031754782
sI128615
F1031755334
sI128616
F1031755547
sI128617
F1031756886
sI128618
F1031757638
sI128619
F1031757904
sI128621
F1031760559
sI128622
F1031761510
sI128623
F1031761880
sI128624
F1031762186
sI128625
F1031763626
sI128626
F1031764030
sI128627
F1031765001
sI128628
F1031766116
sI128629
F1031839480
sI128630
F1031839692
sI128631
F1031840388
sI128632
F1031840585
sI128633
F1031840715
sI128634
F1031840874
sI128635
F1031844511
sI128636
F1031845015
sI128637
F1031845697
sI128638
F1031846916
sI128639
F1031847962
sI128640
F1031852594
sI128641
F1031857960
sI128642
F1031858139
sI128643
F1031862681
sI128644
F1031864207
sI128645
F1031920974
sI128646
F1031921227
sI128648
F1031927932
sI128649
F1031928174
sI128650
F1031930187
sI128651
F1031930412
sI128652
F1031930591
sI128653
F1031931050
sI128654
F1031931229
sI128655
F1031931818
sI128656
F1031931994
sI128657
F1031933288
sI128658
F1031933666
sI128659
F1031933868
sI128660
F1031933991
sI128661
F1031934153
sI128662
F1031936040
sI128663
F1031936200
sI128664
F1031936379
sI128665
F1031937077
sI128666
F1031937662
sI128667
F1031939875
sI128668
F1031940579
sI128669
F1031940833
sI128670
F1031942469
sI128671
F1031942577
sI128672
F1031943405
sI128673
F1031943628
sI128674
F1031943829
sI128676
F1031950532
sI128677
F1031951439
sI128678
F1031952469
sI128679
F1031952959
sI128680
F1031954032
sI128681
F1031955503
sI128683
F1032059571
sI128684
F1032060204
sI128685
F1032061259
sI128686
F1032123939
sI128687
F1032124302
sI128689
F1032126494
sI128690
F1032127591
sI128691
F1032128594
sI128692
F1032130236
sI128693
F1032130487
sI128694
F1032131017
sI128695
F1032131636
sI128696
F1032133050
sI128697
F1032138757
sI128698
F1032182061
sI128699
F1032182435
sI128700
F1032182895
sI128701
F1032186445
sI128703
F1032187049
sI128704
F1032188421
sI128705
F1032188723
sI128706
F1032189525
sI128710
F1032199240
sI128711
F1032199809
sI128712
F1032199996
sI128713
F1032201221
sI128714
F1032202389
sI128715
F1032267089
sI128716
F1032267567
sI128717
F1032268073
sI128718
F1032268855
sI128719
F1032269262
sI128723
F1032270846
sI128724
F1032271115
sI128725
F1032271359
sI128727
F1032273478
sI128728
F1032274599
sI128729
F1032275926
sI128730
F1032276095
sI128732
F1032280828
sI128735
F1032285779
sI128736
F1032286139
sI128737
F1032288470
sI128741
F1032292799
sI128742
F1032353608
sI128745
F1032354592
sI128746
F1032355151
sI128747
F1032359436
sI128748
F1032359805
sI128749
F1032365013
sI128750
F1032365660
sI128751
F1032374861
sI128752
F1032385359
sI128753
F1032439630
sI128755
F1032455048
sI128756
F1032525609
sI128757
F1032531139
sI128758
F1032532289
sI128759
F1032533025
sI128760
F1032542622
sI128762
F1032549315
sI128763
F1032555838
sI128764
F1032561195
sI128765
F1032561380
sI128766
F1032561522
sI128767
F1032563992
sI128768
F1032566178
sI128769
F1032569364
sI128770
F1032570233
sI128771
F1032576867
sI128772
F1032579878
sI128773
F1032580693
sI128775
F1032581462
sI128776
F1032583951
sI128777
F1032586042
sI128779
F1032612668
sI128780
F1032613112
sI128781
F1032616373
sI128782
F1032617087
sI128783
F1032619813
sI128784
F1032620878
sI128785
F1032621334
sI128787
F1032626237
sI128788
F1032632046
sI128789
F1032638290
sI128790
F1032644297
sI128791
F1032648204
sI128792
F1032648481
sI128793
F1032650995
sI128797
F1032659769
sI128798
F1032664028
sI128799
F1032670637
sI128800
F1032671463
sI128801
F1032672753
sI128802
F1032672849
sI128804
F1032673896
sI128805
F1032674737
sI128806
F1032675501
sI128809
F1032677435
sI128810
F1032699802
sI128812
F1032700470
sI128813
F1032702449
sI128814
F1032705848
sI128815
F1032706993
sI128816
F1032712162
sI128817
F1032713513
sI128818
F1032714385
sI128819
F1032719641
sI128820
F1032722018
sI128821
F1032726991
sI128822
F1032729368
sI128823
F1032729928
sI128824
F1032730153
sI128825
F1032731725
sI128827
F1032732377
sI128828
F1032733358
sI128829
F1032734829
sI128831
F1032735325
sI128832
F1032738168
sI128833
F1032741640
sI128834
F1032743193
sI128835
F1032747444
sI128836
F1032748710
sI128837
F1032748910
sI128838
F1032753613
sI128839
F1032753734
sI128840
F1032754872
sI128841
F1032763780
sI128842
F1032771037
sI128843
F1032776970
sI128844
F1032778427
sI128846
F1032778990
sI128847
F1032816376
sI128848
F1032816580
sI128849
F1032816713
sI128851
F1032817846
sI128852
F1032818317
sI128853
F1032819484
sI128854
F1032820540
sI128856
F1032822262
sI128857
F1032824852
sI128858
F1032827833
sI128859
F1032828469
sI128860
F1032828667
sI128861
F1032832914
sI128863
F1032834498
sI128864
F1032838390
sI128865
F1032838888
sI128866
F1032839683
sI128868
F1032846531
sI128869
F1032850095
sI128870
F1032851607
sI128871
F1032852798
sI128872
F1032859072
sI128873
F1032864981
sI128874
F1032870376
sI128875
F1032870980
sI128876
F1032872327
sI128877
F1032872861
sI128878
F1032873447
sI128879
F1032873577
sI128880
F1032874328
sI128886
F1032894449
sI128887
F1032896059
sI128888
F1032896385
sI128889
F1032896609
sI128890
F1032898273
sI128891
F1032899909
sI128892
F1032900524
sI128897
F1032907296
sI128899
F1032914132
sI128900
F1032914795
sI128901
F1032917094
sI128902
F1032917568
sI128903
F1032918180
sI128904
F1032918622
sI128905
F1032918862
sI128906
F1032919404
sI128907
F1032919677
sI128908
F1032919869
sI128909
F1032920157
sI128910
F1032920371
sI128911
F1032921012
sI128912
F1032922813
sI128913
F1032923296
sI128914
F1032937822
sI128916
F1032939924
sI128917
F1032941896
sI128918
F1032946625
sI128919
F1032951449
sI128920
F1032955332
sI128923
F1032960814
sI128924
F1032961024
sI128925
F1032962593
sI128926
F1032963215
sI128927
F1032963537
sI128928
F1032964177
sI128929
F1032964685
sI128930
F1032964973
sI128931
F1032977514
sI128932
F1032978712
sI128933
F1032983045
sI128934
F1032984579
sI128935
F1032987795
sI128936
F1032987860
sI128937
F1032988444
sI128938
F1032988680
sI128939
F1032992736
sI128940
F1032996020
sI128941
F1032996596
sI128942
F1033000761
sI128943
F1033002994
sI128944
F1033003743
sI128945
F1033006483
sI128946
F1033009253
sI128947
F1033009564
sI128948
F1033010297
sI128949
F1033011017
sI128950
F1033015542
sI128951
F1033019643
sI128952
F1033023741
sI128953
F1033027955
sI128954
F1033032099
sI128955
F1033036277
sI128956
F1033039648
sI128957
F1033040394
sI128958
F1033044581
sI128959
F1033050139
sI128960
F1033053062
sI128963
F1033055478
sI128964
F1033060282
sI128965
F1033065505
sI128966
F1033070535
sI128967
F1033074694
sI128968
F1033075817
sI128970
F1033079916
sI128971
F1033080812
sI128972
F1033086972
sI128973
F1033091230
sI128974
F1033095850
sI128975
F1033101016
sI128977
F1033111139
sI128978
F1033111463
sI128979
F1033112073
sI128980
F1033112246
sI128981
F1033112495
sI128982
F1033114780
sI128983
F1033115628
sI128984
F1033116222
sI128985
F1033117043
sI128986
F1033119475
sI128987
F1033122211
sI128988
F1033126827
sI128990
F1033127636
sI128991
F1033129708
sI128992
F1033132568
sI128994
F1033138960
sI128997
F1033144165
sI128998
F1033145088
sI129000
F1033149187
sI129001
F1033153814
sI129002
F1033154666
sI129004
F1033160191
sI129006
F1033165037
sI129007
F1033179670
sI129008
F1033180077
sI129009
F1033180540
sI129010
F1033180628
sI129011
F1033181205
sI129012
F1033181390
sI129014
F1033184322
sI129015
F1033184552
sI129016
F1033189535
sI129018
F1033195051
sI129019
F1033198085
sI129020
F1033201203
sI129021
F1033206075
sI129022
F1033210314
sI129023
F1033210976
sI129024
F1033215260
sI129025
F1033215782
sI129026
F1033217834
sI129027
F1033222603
sI129028
F1033224410
sI129029
F1033230132
sI129030
F1033235918
sI129031
F1033241931
sI129032
F1033242968
sI129033
F1033248840
sI129034
F1033254647
sI129035
F1033260115
sI129036
F1033260654
sI129037
F1033260858
sI129038
F1033264158
sI129039
F1033265107
sI129040
F1033265699
sI129041
F1033266094
sI129042
F1033267974
sI129043
F1033272165
sI129044
F1033273119
sI129045
F1033278115
sI129046
F1033278433
sI129047
F1033278989
sI129048
F1033283963
sI129049
F1033290322
sI129050
F1033291423
sI129051
F1033295176
sI129052
F1033295438
sI129053
F1033296872
sI129054
F1033298557
sI129055
F1033301543
sI129056
F1033307374
sI129058
F1033314057
sI129059
F1033319668
sI129060
F1033325383
sI129061
F1033326012
sI129062
F1033326828
sI129063
F1033333586
sI129064
F1033338647
sI129065
F1033339521
sI129066
F1033345391
sI129067
F1033350680
sI129068
F1033351195
sI129069
F1033355437
sI129070
F1033357231
sI129071
F1033363325
sI129072
F1033369337
sI129073
F1033375270
sI129075
F1033380926
sI129078
F1033382484
sI129079
F1033382836
sI129080
F1033383087
sI129081
F1033397329
sI129082
F1033399134
sI129083
F1033399969
sI129084
F1033400691
sI129085
F1033402105
sI129086
F1033407669
sI129087
F1033408303
sI129088
F1033408556
sI129089
F1033409161
sI129090
F1033409418
sI129091
F1033474281
sI129092
F1033475207
sI129093
F1033476120
sI129094
F1033476329
sI129095
F1033476726
sI129097
F1033479233
sI129098
F1033479589
sI129099
F1033479945
sI129100
F1033480244
sI129101
F1033480856
sI129102
F1033481096
sI129103
F1033481779
sI129104
F1033482016
sI129106
F1033490518
sI129107
F1033499135
sI129108
F1033502145
sI129109
F1033506177
sI129110
F1033507134
sI129111
F1033507815
sI129112
F1033509784
sI129114
F1033569058
sI129115
F1033570533
sI129116
F1033570821
sI129117
F1033656328
sI129118
F1033656757
sI129119
F1033657215
sI129120
F1033657602
sI129122
F1033671375
sI129123
F1033672661
sI129124
F1033674064
sI129125
F1033677075
sI129127
F1033677891
sI129130
F1033682265
sI129131
F1033682411
sI129132
F1033683704
sI129133
F1033735156
sI129134
F1033735470
sI129135
F1033740179
sI129137
F1033742917
sI129139
F1033749339
sI129140
F1033753432
sI129141
F1033757673
sI129142
F1033761077
sI129143
F1033768017
sI129144
F1033768357
sI129145
F1033769098
sI129146
F1033788916
sI129147
F1033791772
sI129148
F1033797195
sI129149
F1033805098
sI129150
F1033811008
sI129152
F1033819731
sI129153
F1033820308
sI129154
F1033821104
sI129156
F1033822567
sI129157
F1033826680
sI129158
F1033830117
sI129159
F1033832663
sI129160
F1033838641
sI129161
F1033841027
sI129162
F1033841412
sI129163
F1033845843
sI129164
F1033850175
sI129166
F1033851190
sI129167
F1033851735
sI129168
F1033856652
sI129169
F1033862558
sI129170
F1033869643
sI129171
F1033877916
sI129172
F1033880485
sI129173
F1033884081
sI129174
F1033892269
sI129176
F1033900580
sI129177
F1033901064
sI129178
F1033902230
sI129179
F1033906305
sI129180
F1033912316
sI129181
F1033918291
sI129182
F1033923426
sI129183
F1033924190
sI129184
F1033929529
sI129185
F1033929920
sI129186
F1033936123
sI129187
F1033942009
sI129188
F1033942663
sI129189
F1033942875
sI129190
F1033948187
sI129191
F1033948577
sI129192
F1033949900
sI129193
F1033955870
sI129194
F1033957375
sI129195
F1033963149
sI129196
F1033969261
sI129197
F1033970501
sI129199
F1033975851
sI129200
F1033976193
sI129201
F1033982152
sI129202
F1033982992
sI129203
F1033989022
sI129204
F1033995312
sI129205
F1034001143
sI129206
F1034006953
sI129207
F1034007820
sI129208
F1034012895
sI129209
F1034018608
sI129210
F1034024686
sI129211
F1034030299
sI129212
F1034036119
sI129213
F1034041890
sI129214
F1034042002
sI129215
F1034046613
sI129218
F1034054500
sI129219
F1034055511
sI129220
F1034066074
sI129221
F1034067008
sI129223
F1034074528
sI129226
F1034080924
sI129227
F1034081556
sI129228
F1034082121
sI129229
F1034082254
sI129230
F1034082569
sI129231
F1034101053
sI129232
F1034102970
sI129233
F1034105020
sI129234
F1034111749
sI129235
F1034112404
sI129236
F1034169571
sI129237
F1034170748
sI129238
F1034200683
sI129239
F1034202089
sI129240
F1034202715
sI129242
F1034203471
sI129243
F1034204060
sI129244
F1034256441
sI129245
F1034257359
sI129246
F1034278132
sI129247
F1034282281
sI129249
F1034285564
sI129250
F1034285742
sI129251
F1034286007
sI129253
F1034286778
sI129254
F1034294041
sI129255
F1034310236
sI129256
F1034310428
sI129257
F1034311685
sI129258
F1034314474
sI129259
F1034318414
sI129261
F1034362978
sI129262
F1034364749
sI129263
F1034369364
sI129264
F1034369666
sI129265
F1034369933
sI129266
F1034380177
sI129267
F1034383290
sI129268
F1034386220
sI129269
F1034390677
sI129270
F1034393718
sI129272
F1034397222
sI129274
F1034400153
sI129275
F1034406048
sI129276
F1034411182
sI129277
F1034414828
sI129278
F1034415622
sI129279
F1034420142
sI129280
F1034424421
sI129281
F1034431656
sI129282
F1034437708
sI129283
F1034443017
sI129284
F1034447226
sI129285
F1034447600
sI129286
F1034447912
sI129287
F1034452091
sI129288
F1034454117
sI129289
F1034454926
sI129290
F1034458888
sI129291
F1034461439
sI129292
F1034463081
sI129293
F1034464109
sI129294
F1034464346
sI129295
F1034467437
sI129297
F1034471131
sI129298
F1034483727
sI129299
F1034490240
sI129300
F1034495888
sI129302
F1034501420
sI129303
F1034503553
sI129304
F1034508630
sI129308
F1034625475
sI129309
F1034643466
sI129310
F1034657979
sI129311
F1034659768
sI129312
F1034660684
sI129313
F1034663104
sI129314
F1034667332
sI129315
F1034673910
sI129316
F1034676406
sI129317
F1034680545
sI129318
F1034684084
sI129319
F1034684686
sI129320
F1034685309
sI129321
F1034685467
sI129322
F1034686295
sI129324
F1034703985
sI129325
F1034706297
sI129326
F1034706938
sI129327
F1034708001
sI129328
F1034708752
sI129329
F1034709396
sI129330
F1034709941
sI129331
F1034710326
sI129332
F1034711913
sI129333
F1034712330
sI129334
F1034713038
sI129335
F1034714730
sI129336
F1034729595
sI129337
F1034729892
sI129338
F1034733159
sI129339
F1034733467
sI129340
F1034751310
sI129341
F1034756625
sI129342
F1034759028
sI129345
F1034762582
sI129346
F1034764545
sI129347
F1034766038
sI129348
F1034768017
sI129349
F1034769571
sI129351
F1034824222
sI129352
F1034824525
sI129353
F1034833280
sI129354
F1034836474
sI129356
F1034842727
sI129357
F1034845515
sI129358
F1034847161
sI129359
F1034848063
sI129360
F1034852000
sI129361
F1034856220
sI129362
F1034888198
sI129363
F1034888410
sI129365
F1034913027
sI129367
F1034915055
sI129368
F1034915584
sI129369
F1034917596
sI129370
F1034920457
sI129371
F1034922567
sI129373
F1034926156
sI129374
F1034926851
sI129375
F1034928965
sI129376
F1034931330
sI129377
F1034933127
sI129378
F1034936033
sI129379
F1034937549
sI129380
F1034942172
sI129381
F1034946143
sI129382
F1034949636
sI129383
F1034950851
sI129384
F1034953177
sI129385
F1034956293
sI129386
F1034960386
sI129387
F1034960538
sI129388
F1034960653
sI129389
F1034960809
sI129390
F1034961936
sI129391
F1034964295
sI129392
F1034964863
sI129393
F1034965240
sI129394
F1034967477
sI129395
F1034967665
sI129396
F1034968560
sI129397
F1034974726
sI129398
F1034981839
sI129400
F1034993626
sI129401
F1034993740
sI129402
F1034994092
sI129403
F1034997216
sI129404
F1035000176
sI129405
F1035004082
sI129406
F1035012346
sI129407
F1035016931
sI129408
F1035018047
sI129409
F1035026931
sI129410
F1035038498
sI129411
F1035040712
sI129412
F1035044327
sI129413
F1035048900
sI129414
F1035049558
sI129416
F1035061116
sI129417
F1035061670
sI129418
F1035062056
sI129419
F1035062243
sI129420
F1035062946
sI129421
F1035066589
sI129422
F1035066857
sI129423
F1035067107
sI129424
F1035067473
sI129425
F1035068170
sI129426
F1035073325
sI129427
F1035079192
sI129428
F1035084978
sI129429
F1035093540
sI129430
F1035097228
sI129431
F1035102167
sI129432
F1035110511
sI129433
F1035116858
sI129434
F1035117522
sI129435
F1035120641
sI129437
F1035123937
sI129438
F1035130676
sI129439
F1035130818
sI129440
F1035131655
sI129441
F1035134993
sI129442
F1035137362
sI129443
F1035140898
sI129444
F1035141860
sI129445
F1035142187
sI129446
F1035144069
sI129447
F1035145629
sI129448
F1035147687
sI129449
F1035148268
sI129450
F1035149201
sI129451
F1035151142
sI129453
F1035154610
sI129454
F1035157485
sI129455
F1035157979
sI129456
F1035158867
sI129457
F1035161946
sI129458
F1035163800
sI129459
F1035166351
sI129460
F1035172620
sI129461
F1035173361
sI129462
F1035174930
sI129463
F1035176793
sI129464
F1035180818
sI129465
F1035184365
sI129466
F1035190593
sI129467
F1035194286
sI129468
F1035194949
sI129469
F1035197867
sI129470
F1035199092
sI129471
F1035199692
sI129472
F1035218100
sI129473
F1035218302
sI129474
F1035220015
sI129475
F1035222344
sI129476
F1035227865
sI129477
F1035228104
sI129478
F1035228825
sI129479
F1035252630
sI129480
F1035252820
sI129481
F1035253946
sI129482
F1035255278
sI129483
F1035255530
sI129484
F1035264272
sI129485
F1035269816
sI129486
F1035277621
sI129487
F1035280347
sI129488
F1035282378
sI129489
F1035288421
sI129490
F1035289066
sI129491
F1035289766
sI129492
F1035289947
sI129493
F1035290152
sI129494
F1035293988
sI129496
F1035297001
sI129497
F1035297665
sI129499
F1035303281
sI129500
F1035303896
sI129506
F1035319890
sI129507
F1035321054
sI129508
F1035322030
sI129510
F1035323949
sI129511
F1035324384
sI129512
F1035324931
sI129513
F1035325138
sI129514
F1035325766
sI129515
F1035326326
sI129517
F1035337367
sI129518
F1035338576
sI129519
F1035341787
sI129521
F1035344066
sI129522
F1035346508
sI129523
F1035347904
sI129524
F1035350103
sI129525
F1035352882
sI129526
F1035354252
sI129527
F1035357776
sI129528
F1035360947
sI129529
F1035362196
sI129530
F1035368932
sI129531
F1035370756
sI129533
F1035410086
sI129534
F1035411117
sI129535
F1035411436
sI129536
F1035415213
sI129538
F1035424338
sI129539
F1035427341
sI129540
F1035435138
sI129541
F1035438910
sI129542
F1035439952
sI129543
F1035441143
sI129544
F1035441903
sI129545
F1035442226
sI129548
F1035454509
sI129549
F1035455075
sI129550
F1035458853
sI129551
F1035461141
sI129552
F1035466259
sI129553
F1035469814
sI129554
F1035471431
sI129555
F1035473855
sI129556
F1035478810
sI129557
F1035484878
sI129558
F1035490976
sI129559
F1035493644
sI129560
F1035496405
sI129561
F1035500464
sI129562
F1035500658
sI129563
F1035500852
sI129564
F1035502042
sI129565
F1035507331
sI129566
F1035509682
sI129567
F1035514730
sI129568
F1035516280
sI129569
F1035519347
sI129570
F1035520100
sI129571
F1035520750
sI129572
F1035523459
sI129573
F1035529096
sI129574
F1035530687
sI129575
F1035534686
sI129576
F1035539728
sI129578
F1035545151
sI129579
F1035545888
sI129580
F1035550187
sI129581
F1035550809
sI129582
F1035551828
sI129583
F1035556267
sI129584
F1035557515
sI129586
F1035559515
sI129589
F1035566134
sI129590
F1035574904
sI129591
F1035575512
sI129592
F1035580059
sI129593
F1035582662
sI129594
F1035584723
sI129596
F1035587234
sI129597
F1035592489
sI129598
F1035597485
sI129599
F1035602482
sI129600
F1035607821
sI129601
F1035612893
sI129602
F1035622135
sI129603
F1035623104
sI129604
F1035628758
sI129605
F1035633959
sI129607
F1035640161
sI129610
F1035647645
sI129611
F1035648787
sI129613
F1035651811
sI129616
F1035652506
sI129617
F1035653212
sI129618
F1035658493
sI129619
F1035664447
sI129620
F1035670355
sI129621
F1035674426
sI129622
F1035675920
sI129623
F1035676619
sI129625
F1035679733
sI129626
F1035680162
sI129628
F1035685490
sI129629
F1035687875
sI129630
F1035695641
sI129631
F1035700643
sI129632
F1035707703
sI129633
F1035714453
sI129635
F1035720522
sI129636
F1035726012
sI129637
F1035726408
sI129638
F1035732654
sI129639
F1035738969
sI129640
F1035739875
sI129641
F1035741466
sI129642
F1035746992
sI129643
F1035747422
sI129644
F1035752796
sI129645
F1035756208
sI129646
F1035758729
sI129647
F1035764722
sI129648
F1035765506
sI129649
F1035770452
sI129650
F1035775788
sI129651
F1035776161
sI129652
F1035782017
sI129653
F1035784582
sI129654
F1035790439
sI129655
F1035791255
sI129656
F1035797052
sI129657
F1035802544
sI129659
F1035804066
sI129660
F1035805474
sI129661
F1035825705
sI129662
F1035831379
sI129663
F1035832890
sI129664
F1035835929
sI129665
F1035836498
sI129666
F1035838408
sI129667
F1035843569
sI129668
F1035843708
sI129669
F1035846858
sI129670
F1035847023
sI129671
F1035849312
sI129672
F1035849583
sI129673
F1035853337
sI129674
F1035855553
sI129675
F1035856646
sI129676
F1035857897
sI129677
F1035859172
sI129678
F1035860070
sI129679
F1035861828
sI129680
F1035862068
sI129681
F1035864345
sI129682
F1035865769
sI129683
F1035866626
sI129684
F1035868208
sI129685
F1035868940
sI129686
F1035872241
sI129687
F1035872699
sI129688
F1035875016
sI129689
F1035876026
sI129690
F1035878576
sI129691
F1035880149
sI129692
F1035881775
sI129693
F1035883774
sI129694
F1035899098
sI129695
F1035900598
sI129696
F1035901534
sI129697
F1035902664
sI129698
F1035906493
sI129699
F1035920352
sI129701
F1035921391
sI129702
F1035923890
sI129703
F1035926844
sI129704
F1035927150
sI129705
F1035929808
sI129707
F1035944959
sI129708
F1035946217
sI129709
F1035947587
sI129710
F1035949105
sI129711
F1035950562
sI129712
F1035951879
sI129713
F1035956059
sI129714
F1035960180
sI129715
F1035964397
sI129716
F1035968460
sI129718
F1035976773
sI129719
F1035977153
sI129720
F1036004295
sI129721
F1036011313
sI129722
F1036011626
sI129723
F1036012282
sI129724
F1036014464
sI129725
F1036015838
sI129726
F1036016477
sI129727
F1036017033
sI129728
F1036017714
sI129730
F1036022425
sI129731
F1036027372
sI129732
F1036030476
sI129733
F1036032207
sI129734
F1036035588
sI129735
F1036039811
sI129736
F1036047432
sI129737
F1036048123
sI129738
F1036054140
sI129739
F1036055950
sI129740
F1036059543
sI129741
F1036061879
sI129742
F1036064876
sI129743
F1036076169
sI129744
F1036084998
sI129745
F1036085156
sI129746
F1036085626
sI129747
F1036085821
sI129748
F1036088182
sI129749
F1036088302
sI129750
F1036088838
sI129751
F1036089049
sI129752
F1036093828
sI129753
F1036097653
sI129754
F1036101124
sI129755
F1036107672
sI129756
F1036108467
sI129757
F1036110307
sI129758
F1036112325
sI129759
F1036113558
sI129760
F1036114049
sI129761
F1036120475
sI129762
F1036126916
sI129763
F1036133412
sI129764
F1036134561
sI129766
F1036141216
sI129768
F1036142072
sI129769
F1036148362
sI129770
F1036154305
sI129771
F1036154742
sI129772
F1036161290
sI129773
F1036167571
sI129774
F1036173938
sI129775
F1036185748
sI129776
F1036191733
sI129777
F1036192716
sI129778
F1036193047
sI129779
F1036199296
sI129780
F1036200599
sI129781
F1036205611
sI129783
F1036210784
sI129784
F1036215759
sI129785
F1036220296
sI129786
F1036220677
sI129787
F1036225663
sI129788
F1036230715
sI129789
F1036235779
sI129790
F1036240773
sI129791
F1036245885
sI129792
F1036251813
sI129793
F1036257148
sI129794
F1036257307
sI129795
F1036257667
sI129796
F1036263880
sI129797
F1036269726
sI129798
F1036271202
sI129799
F1036275591
sI129800
F1036281458
sI129801
F1036286922
sI129802
F1036287075
sI129803
F1036287432
sI129804
F1036293331
sI129805
F1036299206
sI129806
F1036305125
sI129808
F1036311943
sI129809
F1036317088
sI129810
F1036322795
sI129811
F1036323485
sI129812
F1036326765
sI129813
F1036329015
sI129814
F1036334853
sI129815
F1036340682
sI129816
F1036342632
sI129817
F1036342950
sI129818
F1036348659
sI129819
F1036354484
sI129820
F1036357219
sI129821
F1036362600
sI129822
F1036362711
sI129823
F1036362821
sI129824
F1036363147
sI129825
F1036369161
sI129826
F1036369422
sI129827
F1036370548
sI129828
F1036370727
sI129829
F1036371537
sI129830
F1036375449
sI129831
F1036377133
sI129832
F1036381964
sI129833
F1036382474
sI129834
F1036388312
sI129835
F1036394386
sI129836
F1036400180
sI129837
F1036405039
sI129838
F1036409567
sI129839
F1036409687
sI129840
F1036409897
sI129841
F1036410956
sI129842
F1036418746
sI129843
F1036418875
sI129844
F1036419083
sI129845
F1036420385
sI129846
F1036425476
sI129847
F1036426370
sI129848
F1036431253
sI129849
F1036436040
sI129850
F1036444697
sI129851
F1036448322
sI129852
F1036451008
sI129853
F1036452255
sI129854
F1036456854
sI129855
F1036457160
sI129856
F1036462129
sI129857
F1036462971
sI129859
F1036469250
sI129860
F1036472796
sI129861
F1036478679
sI129862
F1036483934
sI129863
F1036484292
sI129864
F1036490414
sI129865
F1036496122
sI129866
F1036500647
sI129867
F1036501306
sI129868
F1036502271
sI129869
F1036502927
sI129870
F1036503333
sI129871
F1036503447
sI129872
F1036503672
sI129873
F1036503937
sI129878
F1036507807
sI129883
F1036525568
sI129885
F1036526025
sI129886
F1036527099
sI129887
F1036528137
sI129888
F1036528690
sI129891
F1036533685
sI129892
F1036534604
sI129893
F1036551600
sI129894
F1036552205
sI129895
F1036552416
sI129896
F1036553066
sI129897
F1036562731
sI129899
F1036569539
sI129900
F1036578734
sI129901
F1036581703
sI129902
F1036583019
sI129903
F1036583882
sI129904
F1036584842
sI129911
F1036606991
sI129912
F1036607214
sI129913
F1036608163
sI129914
F1036616941
sI129915
F1036618247
sI129918
F1036626560
sI129919
F1036627081
sI129920
F1036627969
sI129921
F1036645333
sI129922
F1036645530
sI129923
F1036646481
sI129924
F1036647095
sI129925
F1036647558
sI129926
F1036649778
sI129927
F1036654316
sI129928
F1036658911
sI129930
F1036665161
sI129932
F1036666210
sI129933
F1036669456
sI129935
F1036680494
sI129936
F1036710053
sI129937
F1036711698
sI129938
F1036711924
sI129939
F1036712672
sI129940
F1036719089
sI129941
F1036720605
sI129942
F1036721490
sI129943
F1036721925
sI129944
F1036723151
sI129945
F1036724427
sI129946
F1036725175
sI129947
F1036725813
sI129948
F1036728741
sI129949
F1036729674
sI129950
F1036729951
sI129951
F1036731320
sI129953
F1036733008
sI129954
F1036740903
sI129955
F1036741739
sI129956
F1036742978
sI129957
F1036743175
sI129958
F1036744179
sI129959
F1036746830
sI129960
F1036748934
sI129962
F1036754414
sI129963
F1036755564
sI129965
F1036777131
sI129966
F1036778032
sI129967
F1036778611
sI129968
F1036794602
sI129969
F1036795104
sI129970
F1036813142
sI129971
F1036813349
sI129972
F1036814186
sI129973
F1036814999
sI129975
F1036816118
sI129976
F1036823031
sI129977
F1036828468
sI129978
F1036833096
sI129979
F1036834468
sI129980
F1036840119
sI129981
F1036846213
sI129982
F1036847638
sI129983
F1036848836
sI129984
F1036849055
sI129985
F1036849278
sI129986
F1036850119
sI129988
F1036854819
sI129989
F1036861298
sI129991
F1036866312
sI129992
F1036868210
sI129993
F1036869824
sI129994
F1036883214
sI129996
F1036887544
sI129997
F1036888176
sI129998
F1036893400
sI129999
F1036893467
sI130000
F1036898331
sI130001
F1036900424
sI130002
F1036904219
sI130003
F1036905856
sI130004
F1036909491
sI130005
F1036912355
sI130006
F1036915760
sI130007
F1036923109
sI130008
F1036930391
sI130009
F1036931847
sI130010
F1036933219
sI130012
F1036935144
sI130014
F1036939779
sI130016
F1036949102
sI130017
F1036952299
sI130018
F1036958857
sI130019
F1036963829
sI130020
F1036969289
sI130021
F1036970384
sI130022
F1036970956
sI130023
F1036973418
sI130026
F1036980352
sI130027
F1036980900
sI130028
F1036981702
sI130029
F1036982751
sI130030
F1036983438
sI130031
F1036988371
sI130032
F1036988812
sI130033
F1036993649
sI130034
F1036994642
sI130036
F1036998297
sI130037
F1037000832
sI130038
F1037001277
sI130039
F1037006538
sI130040
F1037010980
sI130041
F1037016366
sI130042
F1037071707
sI130043
F1037071994
sI130044
F1037077156
sI130045
F1037082092
sI130046
F1037087597
sI130047
F1037091297
sI130048
F1037092263
sI130049
F1037093533
sI130050
F1037096202
sI130051
F1037101805
sI130052
F1037106150
sI130053
F1037108163
sI130054
F1037108837
sI130055
F1037109609
sI130056
F1037110025
sI130057
F1037110516
sI130058
F1037111826
sI130059
F1037112549
sI130061
F1037113520
sI130063
F1037114699
sI130064
F1037115306
sI130065
F1037115489
sI130066
F1037115752
sI130068
F1037118086
sI130069
F1037119530
sI130070
F1037119907
sI130071
F1037131054
sI130072
F1037131440
sI130073
F1037132024
sI130074
F1037132813
sI130075
F1037137459
sI130077
F1037139416
sI130078
F1037149897
sI130079
F1037150103
sI130080
F1037154838
sI130081
F1037155484
sI130082
F1037156820
sI130084
F1037163392
sI130085
F1037165443
sI130086
F1037169519
sI130087
F1037174818
sI130088
F1037184305
sI130089
F1037189155
sI130090
F1037230383
sI130091
F1037231313
sI130092
F1037242034
sI130093
F1037242451
sI130094
F1037244768
sI130095
F1037246201
sI130096
F1037266220
sI130097
F1037270931
sI130098
F1037271346
sI130099
F1037271600
sI130103
F1037314889
sI130104
F1037315519
sI130105
F1037316417
sI130106
F1037318669
sI130107
F1037323001
sI130108
F1037326086
sI130111
F1037335980
sI130112
F1037338205
sI130114
F1037338977
sI130115
F1037345904
sI130116
F1037349821
sI130117
F1037352645
sI130118
F1037358801
sI130119
F1037362784
sI130120
F1037364706
sI130124
F1037417274
sI130125
F1037417583
sI130127
F1037418805
sI130128
F1037419005
sI130129
F1037419287
sI130130
F1037420126
sI130131
F1037421895
sI130132
F1037430528
sI130133
F1037433385
sI130134
F1037436630
sI130135
F1037437389
sI130139
F1037447287
sI130140
F1037448100
sI130141
F1037448586
sI130142
F1037449019
sI130143
F1037449258
sI130144
F1037452497
sI130145
F1037455336
sI130146
F1037456750
sI130147
F1037461287
sI130148
F1037467917
sI130149
F1037471896
sI130150
F1037475239
sI130151
F1037476188
sI130152
F1037476757
sI130155
F1037481151
sI130156
F1037484707
sI130157
F1037487944
sI130158
F1037488113
sI130159
F1037488294
sI130160
F1037490623
sI130161
F1037493839
sI130162
F1037495694
sI130163
F1037498986
sI130164
F1037503578
sI130165
F1037509238
sI130166
F1037509814
sI130167
F1037514710
sI130168
F1037516863
sI130169
F1037526505
sI130170
F1037532624
sI130171
F1037538124
sI130172
F1037538653
sI130173
F1037545229
sI130174
F1037550053
sI130175
F1037553536
sI130176
F1037560298
sI130177
F1037570156
sI130178
F1037573242
sI130179
F1037576484
sI130180
F1037576724
sI130181
F1037583972
sI130182
F1037591769
sI130183
F1037597818
sI130184
F1037603870
sI130185
F1037611628
sI130186
F1037620163
sI130187
F1037621192
sI130189
F1037649140
sI130190
F1037649551
sI130191
F1037649771
sI130194
F1037652292
sI130195
F1037652585
sI130196
F1037655258
sI130197
F1037655903
sI130198
F1037658264
sI130199
F1037660024
sI130200
F1037666717
sI130201
F1037671381
sI130202
F1037671547
sI130203
F1037671739
sI130204
F1037674679
sI130205
F1037676656
sI130206
F1037681461
sI130207
F1037690422
sI130208
F1037695127
sI130209
F1037696154
sI130210
F1037701913
sI130211
F1037710771
sI130212
F1037711275
sI130213
F1037711377
sI130214
F1037711988
sI130216
F1037713413
sI130218
F1037714368
sI130219
F1037715086
sI130220
F1037715350
sI130221
F1037715720
sI130225
F1037723399
sI130227
F1037724155
sI130228
F1037731039
sI130229
F1037731640
sI130230
F1037732477
sI130231
F1037732720
sI130232
F1037733463
sI130233
F1037733702
sI130234
F1037734075
sI130235
F1037734609
sI130236
F1037734925
sI130237
F1037736569
sI130238
F1037736630
sI130239
F1037737694
sI130240
F1037738321
sI130241
F1037738568
sI130242
F1037743702
sI130244
F1037743864
sI130245
F1037744573
sI130246
F1037751452
sI130247
F1037752898
sI130248
F1037754990
sI130249
F1037759114
sI130250
F1037761679
sI130251
F1037766588
sI130252
F1037773280
sI130253
F1037778361
sI130254
F1037779170
sI130255
F1037783077
sI130256
F1037791200
sI130258
F1037792282
sI130259
F1037793441
sI130260
F1037799671
sI130262
F1037801373
sI130263
F1037801926
sI130264
F1037802526
sI130265
F1037808156
sI130266
F1037815520
sI130267
F1037823538
sI130268
F1037824487
sI130269
F1037827355
sI130270
F1037827562
sI130271
F1037828629
sI130272
F1037834487
sI130273
F1037840117
sI130275
F1037841251
sI130276
F1037846150
sI130277
F1037851774
sI130278
F1037851975
sI130279
F1037857434
sI130280
F1037858412
sI130281
F1037860812
sI130282
F1037861873
sI130283
F1037867577
sI130284
F1037868397
sI130285
F1037874393
sI130286
F1037874877
sI130287
F1037878427
sI130288
F1037880953
sI130289
F1037882491
sI130290
F1037890250
sI130292
F1037899349
sI130293
F1037900214
sI130294
F1037904394
sI130296
F1037905569
sI130297
F1037906471
sI130298
F1037910125
sI130299
F1037910362
sI130300
F1037915435
sI130301
F1037919002
sI130302
F1037923867
sI130303
F1037929650
sI130304
F1037933305
sI130305
F1037934041
sI130306
F1037934245
sI130307
F1037938490
sI130308
F1037939788
sI130309
F1037944410
sI130310
F1037944845
sI130312
F1037950409
sI130314
F1037953756
sI130315
F1037954377
sI130316
F1037957542
sI130317
F1037959488
sI130318
F1037964437
sI130319
F1037965899
sI130320
F1037971020
sI130321
F1037975492
sI130323
F1037976503
sI130324
F1037977189
sI130325
F1037981124
sI130326
F1037981933
sI130327
F1037982798
sI130328
F1037983621
sI130329
F1037987013
sI130330
F1037991249
sI130331
F1037991863
sI130332
F1037992731
sI130333
F1037995496
sI130334
F1037996660
sI130335
F1037997578
sI130336
F1038000102
sI130337
F1038000329
sI130338
F1038001164
sI130339
F1038005311
sI130342
F1038014933
sI130343
F1038015067
sI130344
F1038018129
sI130345
F1038019049
sI130346
F1038019816
sI130347
F1038024666
sI130348
F1038029705
sI130349
F1038034339
sI130350
F1038034605
sI130351
F1038039549
sI130352
F1038040822
sI130354
F1038046077
sI130355
F1038046714
sI130357
F1038048591
sI130358
F1038050706
sI130359
F1038052362
sI130360
F1038057280
sI130361
F1038062729
sI130363
F1038064929
sI130364
F1038065442
sI130365
F1038066303
sI130366
F1038066538
sI130367
F1038068233
sI130368
F1038069605
sI130369
F1038070142
sI130370
F1038076575
sI130371
F1038078472
sI130372
F1038084661
sI130373
F1038090183
sI130374
F1038090419
sI130375
F1038096217
sI130376
F1038099816
sI130377
F1038106884
sI130378
F1038122532
sI130379
F1038123340
sI130381
F1038126363
sI130382
F1038126556
sI130383
F1038126725
sI130384
F1038127315
sI130386
F1038132419
sI130387
F1038136527
sI130388
F1038140841
sI130389
F1038141353
sI130390
F1038147260
sI130391
F1038147867
sI130392
F1038153088
sI130394
F1038158901
sI130395
F1038164877
sI130396
F1038170653
sI130398
F1038171391
sI130399
F1038176701
sI130400
F1038182412
sI130401
F1038188166
sI130402
F1038193902
sI130403
F1038199661
sI130404
F1038205487
sI130405
F1038206653
sI130406
F1038212481
sI130407
F1038217977
sI130408
F1038218346
sI130409
F1038224157
sI130412
F1038265629
sI130413
F1038266394
sI130414
F1038266912
sI130415
F1038267725
sI130416
F1038267940
sI130418
F1038269342
sI130419
F1038271219
sI130420
F1038272239
sI130421
F1038277739
sI130422
F1038282276
sI130423
F1038282520
sI130424
F1038287398
sI130425
F1038292546
sI130426
F1038297579
sI130427
F1038304037
sI130428
F1038309478
sI130429
F1038309929
sI130430
F1038315175
sI130431
F1038315422
sI130432
F1038315792
sI130434
F1038316073
sI130435
F1038316630
sI130436
F1038317129
sI130437
F1038317353
sI130438
F1038318056
sI130439
F1038318986
sI130440
F1038319612
sI130441
F1038320329
sI130443
F1038322307
sI130444
F1038322931
sI130445
F1038323054
sI130446
F1038323253
sI130447
F1038331546
sI130449
F1038332019
sI130450
F1038344652
sI130451
F1038344797
sI130452
F1038345013
sI130453
F1038347051
sI130454
F1038347253
sI130455
F1038347923
sI130456
F1038348384
sI130457
F1038357808
sI130458
F1038357989
sI130459
F1038358187
sI130460
F1038359875
sI130461
F1038364841
sI130462
F1038369718
sI130463
F1038375221
sI130464
F1038381558
sI130465
F1038386538
sI130466
F1038386765
sI130467
F1038387503
sI130468
F1038391338
sI130469
F1038392447
sI130470
F1038398125
sI130471
F1038402738
sI130472
F1038404423
sI130473
F1038412057
sI130474
F1038417682
sI130475
F1038419961
sI130476
F1038423256
sI130477
F1038428718
sI130478
F1038429510
sI130479
F1038433190
sI130480
F1038434062
sI130481
F1038434303
sI130482
F1038434749
sI130483
F1038438025
sI130484
F1038438688
sI130485
F1038443572
sI130486
F1038448452
sI130487
F1038452890
sI130488
F1038453490
sI130489
F1038458346
sI130490
F1038464410
sI130491
F1038469968
sI130492
F1038474729
sI130493
F1038479424
sI130494
F1038479744
sI130495
F1038484742
sI130496
F1038490438
sI130497
F1038491083
sI130498
F1038496155
sI130499
F1038496384
sI130500
F1038496581
sI130501
F1038501068
sI130502
F1038506079
sI130503
F1038510891
sI130504
F1038515493
sI130505
F1038515737
sI130506
F1038520644
sI130507
F1038525556
sI130508
F1038530469
sI130509
F1038535466
sI130510
F1038540381
sI130511
F1038540987
sI130512
F1038545321
sI130513
F1038550243
sI130514
F1038551133
sI130515
F1038556215
sI130516
F1038560845
sI130517
F1038561518
sI130518
F1038566461
sI130519
F1038571500
sI130520
F1038572426
sI130521
F1038576251
sI130522
F1038581087
sI130523
F1038581333
sI130524
F1038585736
sI130525
F1038586081
sI130526
F1038590970
sI130527
F1038591310
sI130528
F1038596618
sI130529
F1038598462
sI130530
F1038600630
sI130531
F1038605692
sI130532
F1038610357
sI130533
F1038612935
sI130534
F1038617496
sI130535
F1038617784
sI130536
F1038622886
sI130537
F1038627817
sI130538
F1038632381
sI130540
F1038633931
sI130541
F1038634119
sI130542
F1038637596
sI130543
F1038642406
sI130545
F1038647089
sI130546
F1038647288
sI130547
F1038651886
sI130548
F1038656726
sI130550
F1038660311
sI130551
F1038660937
sI130553
F1038662004
sI130554
F1038662204
sI130556
F1038666639
sI130557
F1038667684
sI130558
F1038672442
sI130559
F1038673667
sI130560
F1038678020
sI130561
F1038678245
sI130562
F1038684260
sI130563
F1038686877
sI130564
F1038687788
sI130565
F1038690993
sI130566
F1038692020
sI130567
F1038692215
sI130569
F1038699747
sI130570
F1038702765
sI130571
F1038702978
sI130572
F1038704561
sI130573
F1038713472
sI130574
F1038714954
sI130575
F1038715823
sI130576
F1038717912
sI130577
F1038718095
sI130578
F1038719753
sI130579
F1038721554
sI130580
F1038736290
sI130582
F1038737293
sI130583
F1038738082
sI130585
F1038742828
sI130586
F1038743478
sI130587
F1038748872
sI130588
F1038749076
sI130589
F1038754903
sI130590
F1038755604
sI130591
F1038759071
sI130592
F1038760650
sI130593
F1038766448
sI130594
F1038772043
sI130595
F1038772250
sI130596
F1038777763
sI130597
F1038778315
sI130598
F1038785027
sI130599
F1038786217
sI130600
F1038786417
sI130601
F1038789448
sI130602
F1038789658
sI130603
F1038791186
sI130604
F1038791955
sI130605
F1038800759
sI130606
F1038804663
sI130607
F1038810864
sI130609
F1038817178
sI130610
F1038822644
sI130611
F1038828409
sI130612
F1038836624
sI130613
F1038837138
sI130614
F1038837748
sI130615
F1038846526
sI130616
F1038846885
sI130617
F1038852224
sI130620
F1038882426
sI130625
F1038890440
sI130626
F1038891115
sI130627
F1038893593
sI130628
F1038893964
sI130629
F1038903607
s.