(i__main__
variable
p1
(dp2
S'highbha'
p3
(dp4
F0
I689636
sF0.25
I689636
sF0.5
I689636
sF0.10000000000000001
I689636
sF0.64000000000000001
I689636
sF0.19
I689636
sF0.12
I689636
sF0.97999999999999998
I689636
sF0.75
I689636
sF0.14999999999999999
I689636
sF0.059999999999999998
I689636
sF0.52000000000000002
I689636
sF0.67000000000000004
I689636
sF0.23999999999999999
I689636
sF0.53000000000000003
I689636
sF0.94000000000000006
I689636
sF0.20999999999999999
I689636
sF0.89000000000000001
I689636
sF0.23000000000000001
I689636
sF0.40000000000000002
I689636
sF0.80000000000000004
I689636
sF0.55000000000000004
I689636
sF0.65000000000000002
I689636
sF0.39000000000000001
I689636
sF0.70999999999999996
I689636
sF0.95999999999999996
I689636
sF0.38
I689636
sF0.76000000000000001
I689636
sF0.28000000000000003
I689636
sF0.42999999999999999
I689636
sF0.35999999999999999
I689636
sF0.41000000000000003
I689636
sF0.58999999999999997
I689636
sF0.68000000000000005
I689636
sF0.28999999999999998
I689636
sF0.070000000000000007
I689636
sF0.089999999999999997
I689636
sF0.01
I689636
sF0.41999999999999998
I689636
sF0.57000000000000006
I689636
sF0.84999999999999998
I689636
sF0.59999999999999998
I689636
sF0.20000000000000001
I689636
sF0.56000000000000005
I689636
sF0.60999999999999999
I689636
sF0.51000000000000001
I689636
sF0.77000000000000002
I689636
sF0.62
I689636
sF0.98999999999999999
I689636
sF0.81000000000000005
I689636
sF0.11
I689636
sF0.48999999999999999
I689636
sF0.71999999999999997
I689636
sF0.96999999999999997
I689636
sF0.92000000000000004
I689636
sF0.13
I689636
sF0.040000000000000001
I689636
sF0.69000000000000006
I689636
sF0.22
I689636
sF0.95000000000000007
I689636
sF0.54000000000000004
I689636
sF0.45000000000000001
I689636
sF0.26000000000000001
I689636
sF0.17000000000000001
I689636
sF0.66000000000000003
I689636
sF0.44
I689636
sF0.91000000000000003
I689636
sF0.82000000000000006
I689636
sF0.46000000000000002
I689636
sF0.080000000000000002
I689636
sF0.02
I689636
sF0.63
I689636
sF0.78000000000000003
I689636
sF0.34000000000000002
I689636
sF0.87
I689636
sF0.73999999999999999
I689636
sF0.29999999999999999
I689636
sF0.47000000000000003
I689636
sF0.57999999999999996
I689636
sF0.35000000000000003
I689636
sF0.70000000000000007
I689636
sF0.33000000000000002
I689636
sF0.029999999999999999
I689636
sF0.14000000000000001
I689636
sF0.93000000000000005
I689636
sF0.31
I689636
sF0.83999999999999997
I689636
sF0.17999999999999999
I689636
sF0.27000000000000002
I689636
sF0.16
I689636
sF0.47999999999999998
I689636
sF0.83000000000000007
I689636
sF0.85999999999999999
I689636
sF0.72999999999999998
I689636
sF0.88
I689636
sF0.90000000000000002
I689636
sF0.79000000000000004
I689636
sF0.050000000000000003
I689636
sF0.32000000000000001
I689636
sF0.37
I689636
ssS'x'
cNumeric
array_constructor
p5
((I100
tS'd'
S'\x00\x00\x00\x00\x00\x00\x00\x00{\x14\xaeG\xe1z\x84?{\x14\xaeG\xe1z\x94?\xb8\x1e\x85\xebQ\xb8\x9e?{\x14\xaeG\xe1z\xa4?\x9a\x99\x99\x99\x99\x99\xa9?\xb8\x1e\x85\xebQ\xb8\xae?\xecQ\xb8\x1e\x85\xeb\xb1?{\x14\xaeG\xe1z\xb4?\n\xd7\xa3p=\n\xb7?\x9a\x99\x99\x99\x99\x99\xb9?)\\\x8f\xc2\xf5(\xbc?\xb8\x1e\x85\xebQ\xb8\xbe?\xa4p=\n\xd7\xa3\xc0?\xecQ\xb8\x1e\x85\xeb\xc1?333333\xc3?{\x14\xaeG\xe1z\xc4?\xc3\xf5(\\\x8f\xc2\xc5?\n\xd7\xa3p=\n\xc7?R\xb8\x1e\x85\xebQ\xc8?\x9a\x99\x99\x99\x99\x99\xc9?\xe1z\x14\xaeG\xe1\xca?)\\\x8f\xc2\xf5(\xcc?q=\n\xd7\xa3p\xcd?\xb8\x1e\x85\xebQ\xb8\xce?\x00\x00\x00\x00\x00\x00\xd0?\xa4p=\n\xd7\xa3\xd0?H\xe1z\x14\xaeG\xd1?\xecQ\xb8\x1e\x85\xeb\xd1?\x8f\xc2\xf5(\\\x8f\xd2?333333\xd3?\xd7\xa3p=\n\xd7\xd3?{\x14\xaeG\xe1z\xd4?\x1f\x85\xebQ\xb8\x1e\xd5?\xc3\xf5(\\\x8f\xc2\xd5?gfffff\xd6?\n\xd7\xa3p=\n\xd7?\xaeG\xe1z\x14\xae\xd7?R\xb8\x1e\x85\xebQ\xd8?\xf6(\\\x8f\xc2\xf5\xd8?\x9a\x99\x99\x99\x99\x99\xd9?>\n\xd7\xa3p=\xda?\xe1z\x14\xaeG\xe1\xda?\x85\xebQ\xb8\x1e\x85\xdb?)\\\x8f\xc2\xf5(\xdc?\xcd\xcc\xcc\xcc\xcc\xcc\xdc?q=\n\xd7\xa3p\xdd?\x15\xaeG\xe1z\x14\xde?\xb8\x1e\x85\xebQ\xb8\xde?\\\x8f\xc2\xf5(\\\xdf?\x00\x00\x00\x00\x00\x00\xe0?R\xb8\x1e\x85\xebQ\xe0?\xa4p=\n\xd7\xa3\xe0?\xf6(\\\x8f\xc2\xf5\xe0?H\xe1z\x14\xaeG\xe1?\x9a\x99\x99\x99\x99\x99\xe1?\xecQ\xb8\x1e\x85\xeb\xe1?>\n\xd7\xa3p=\xe2?\x8f\xc2\xf5(\\\x8f\xe2?\xe1z\x14\xaeG\xe1\xe2?333333\xe3?\x85\xebQ\xb8\x1e\x85\xe3?\xd7\xa3p=\n\xd7\xe3?)\\\x8f\xc2\xf5(\xe4?{\x14\xaeG\xe1z\xe4?\xcd\xcc\xcc\xcc\xcc\xcc\xe4?\x1f\x85\xebQ\xb8\x1e\xe5?q=\n\xd7\xa3p\xe5?\xc3\xf5(\\\x8f\xc2\xe5?\x15\xaeG\xe1z\x14\xe6?gfffff\xe6?\xb8\x1e\x85\xebQ\xb8\xe6?\n\xd7\xa3p=\n\xe7?\\\x8f\xc2\xf5(\\\xe7?\xaeG\xe1z\x14\xae\xe7?\x00\x00\x00\x00\x00\x00\xe8?R\xb8\x1e\x85\xebQ\xe8?\xa4p=\n\xd7\xa3\xe8?\xf6(\\\x8f\xc2\xf5\xe8?H\xe1z\x14\xaeG\xe9?\x9a\x99\x99\x99\x99\x99\xe9?\xecQ\xb8\x1e\x85\xeb\xe9?>\n\xd7\xa3p=\xea?\x90\xc2\xf5(\\\x8f\xea?\xe1z\x14\xaeG\xe1\xea?333333\xeb?\x85\xebQ\xb8\x1e\x85\xeb?\xd7\xa3p=\n\xd7\xeb?)\\\x8f\xc2\xf5(\xec?{\x14\xaeG\xe1z\xec?\xcd\xcc\xcc\xcc\xcc\xcc\xec?\x1f\x85\xebQ\xb8\x1e\xed?q=\n\xd7\xa3p\xed?\xc3\xf5(\\\x8f\xc2\xed?\x15\xaeG\xe1z\x14\xee?gfffff\xee?\xb8\x1e\x85\xebQ\xb8\xee?\n\xd7\xa3p=\n\xef?\\\x8f\xc2\xf5(\\\xef?\xaeG\xe1z\x14\xae\xef?'
I01
tRp6
sS'lowbha'
p7
(dp8
F0
I997646
sF0.25
I997646
sF0.5
I997646
sF0.10000000000000001
I997646
sF0.64000000000000001
I997646
sF0.19
I997646
sF0.12
I997646
sF0.97999999999999998
I997646
sF0.75
I997646
sF0.14999999999999999
I997646
sF0.059999999999999998
I997646
sF0.52000000000000002
I997646
sF0.67000000000000004
I997646
sF0.23999999999999999
I997646
sF0.53000000000000003
I997646
sF0.94000000000000006
I997646
sF0.20999999999999999
I997646
sF0.89000000000000001
I997646
sF0.23000000000000001
I997646
sF0.40000000000000002
I997646
sF0.80000000000000004
I997646
sF0.55000000000000004
I997646
sF0.65000000000000002
I997646
sF0.39000000000000001
I997646
sF0.70999999999999996
I997646
sF0.95999999999999996
I997646
sF0.38
I997646
sF0.76000000000000001
I997646
sF0.28000000000000003
I997646
sF0.42999999999999999
I997646
sF0.35999999999999999
I997646
sF0.41000000000000003
I997646
sF0.58999999999999997
I997646
sF0.68000000000000005
I997646
sF0.28999999999999998
I997646
sF0.070000000000000007
I997646
sF0.089999999999999997
I997646
sF0.01
I997646
sF0.41999999999999998
I997646
sF0.57000000000000006
I997646
sF0.84999999999999998
I997646
sF0.59999999999999998
I997646
sF0.20000000000000001
I997646
sF0.56000000000000005
I997646
sF0.60999999999999999
I997646
sF0.51000000000000001
I997646
sF0.77000000000000002
I997646
sF0.62
I997646
sF0.98999999999999999
I997646
sF0.81000000000000005
I997646
sF0.11
I997646
sF0.48999999999999999
I997646
sF0.71999999999999997
I997646
sF0.96999999999999997
I997646
sF0.92000000000000004
I997646
sF0.13
I997646
sF0.040000000000000001
I997646
sF0.69000000000000006
I997646
sF0.22
I997646
sF0.95000000000000007
I997646
sF0.54000000000000004
I997646
sF0.45000000000000001
I997646
sF0.26000000000000001
I997646
sF0.17000000000000001
I997646
sF0.66000000000000003
I997646
sF0.44
I997646
sF0.91000000000000003
I997646
sF0.82000000000000006
I997646
sF0.46000000000000002
I997646
sF0.080000000000000002
I997646
sF0.02
I997646
sF0.63
I997646
sF0.78000000000000003
I997646
sF0.34000000000000002
I997646
sF0.87
I997646
sF0.73999999999999999
I997646
sF0.29999999999999999
I997646
sF0.47000000000000003
I997646
sF0.57999999999999996
I997646
sF0.35000000000000003
I997646
sF0.70000000000000007
I997646
sF0.33000000000000002
I997646
sF0.029999999999999999
I997646
sF0.14000000000000001
I997646
sF0.93000000000000005
I997646
sF0.31
I997646
sF0.83999999999999997
I997646
sF0.17999999999999999
I997646
sF0.27000000000000002
I997646
sF0.16
I997646
sF0.47999999999999998
I997646
sF0.83000000000000007
I997646
sF0.85999999999999999
I997646
sF0.72999999999999998
I997646
sF0.88
I997646
sF0.90000000000000002
I997646
sF0.79000000000000004
I997646
sF0.050000000000000003
I997646
sF0.32000000000000001
I997646
sF0.37
I997646
ssS'highhad'
p9
(dp10
F0
I1328503
sF0.25
I1226305
sF0.5
I689320
sF0.10000000000000001
I1324493
sF0.64000000000000001
I294842
sF0.19
I1290910
sF0.12
I1321723
sF0.97999999999999998
I1020
sF0.75
I98246
sF0.14999999999999999
I1314586
sF0.059999999999999998
I1327402
sF0.52000000000000002
I629064
sF0.67000000000000004
I228887
sF0.23999999999999999
I1238240
sF0.53000000000000003
I599897
sF0.94000000000000006
I3302
sF0.20999999999999999
I1271569
sF0.89000000000000001
I10754
sF0.23000000000000001
I1249739
sF0.40000000000000002
I952084
sF0.80000000000000004
I50284
sF0.55000000000000004
I540093
sF0.65000000000000002
I271929
sF0.39000000000000001
I975744
sF0.70999999999999996
I155272
sF0.95999999999999996
I1905
sF0.38
I998398
sF0.76000000000000001
I86513
sF0.28000000000000003
I1186592
sF0.42999999999999999
I879963
sF0.35999999999999999
I1041795
sF0.41000000000000003
I928765
sF0.58999999999999997
I423651
sF0.68000000000000005
I208888
sF0.28999999999999998
I1171752
sF0.070000000000000007
I1326890
sF0.089999999999999997
I1325431
sF0.01
I1328503
sF0.41999999999999998
I904620
sF0.57000000000000006
I480736
sF0.84999999999999998
I23005
sF0.59999999999999998
I396050
sF0.20000000000000001
I1281851
sF0.56000000000000005
I510222
sF0.60999999999999999
I369361
sF0.51000000000000001
I658353
sF0.77000000000000002
I75946
sF0.62
I343786
sF0.98999999999999999
I712
sF0.81000000000000005
I43504
sF0.11
I1323230
sF0.48999999999999999
I719207
sF0.71999999999999997
I139465
sF0.96999999999999997
I1430
sF0.92000000000000004
I5449
sF0.13
I1319887
sF0.040000000000000001
I1328048
sF0.69000000000000006
I190000
sF0.22
I1260647
sF0.95000000000000007
I2497
sF0.54000000000000004
I570350
sF0.45000000000000001
I828522
sF0.26000000000000001
I1213719
sF0.17000000000000001
I1305879
sF0.66000000000000003
I250031
sF0.44
I854529
sF0.91000000000000003
I6870
sF0.82000000000000006
I37475
sF0.46000000000000002
I802016
sF0.080000000000000002
I1326300
sF0.02
I1328482
sF0.63
I318754
sF0.78000000000000003
I66401
sF0.34000000000000002
I1082369
sF0.87
I16002
sF0.73999999999999999
I110894
sF0.29999999999999999
I1155518
sF0.47000000000000003
I775001
sF0.57999999999999996
I451738
sF0.35000000000000003
I1062477
sF0.70000000000000007
I172030
sF0.33000000000000002
I1101714
sF0.029999999999999999
I1328292
sF0.14000000000000001
I1317445
sF0.93000000000000005
I4255
sF0.31
I1138200
sF0.83999999999999997
I27247
sF0.17999999999999999
I1299072
sF0.27000000000000002
I1200542
sF0.16
I1311067
sF0.47999999999999998
I747307
sF0.83000000000000007
I31990
sF0.85999999999999999
I19219
sF0.72999999999999998
I124439
sF0.88
I13148
sF0.90000000000000002
I8691
sF0.79000000000000004
I57802
sF0.050000000000000003
I1327774
sF0.32000000000000001
I1120275
sF0.37
I1020379
ssS'lowhad'
p11
(dp12
F0
I1897229
sF0.25
I1750319
sF0.5
I981813
sF0.10000000000000001
I1891552
sF0.64000000000000001
I420198
sF0.19
I1843533
sF0.12
I1887598
sF0.97999999999999998
I1440
sF0.75
I139651
sF0.14999999999999999
I1877622
sF0.059999999999999998
I1895675
sF0.52000000000000002
I896372
sF0.67000000000000004
I325635
sF0.23999999999999999
I1767658
sF0.53000000000000003
I854748
sF0.94000000000000006
I4664
sF0.20999999999999999
I1815750
sF0.89000000000000001
I14985
sF0.23000000000000001
I1784350
sF0.40000000000000002
I1356684
sF0.80000000000000004
I70884
sF0.55000000000000004
I769288
sF0.65000000000000002
I387205
sF0.39000000000000001
I1390229
sF0.70999999999999996
I220841
sF0.95999999999999996
I2686
sF0.38
I1423019
sF0.76000000000000001
I123085
sF0.28000000000000003
I1693444
sF0.42999999999999999
I1254068
sF0.35999999999999999
I1485317
sF0.41000000000000003
I1323790
sF0.58999999999999997
I603237
sF0.68000000000000005
I297333
sF0.28999999999999998
I1671813
sF0.070000000000000007
I1895026
sF0.089999999999999997
I1893016
sF0.01
I1897229
sF0.41999999999999998
I1289536
sF0.57000000000000006
I684536
sF0.84999999999999998
I32256
sF0.59999999999999998
I563893
sF0.20000000000000001
I1830313
sF0.56000000000000005
I726481
sF0.60999999999999999
I526239
sF0.51000000000000001
I937932
sF0.77000000000000002
I107840
sF0.62
I489511
sF0.98999999999999999
I996
sF0.81000000000000005
I61282
sF0.11
I1889790
sF0.48999999999999999
I1024436
sF0.71999999999999997
I198121
sF0.96999999999999997
I2015
sF0.92000000000000004
I7737
sF0.13
I1884926
sF0.040000000000000001
I1896634
sF0.69000000000000006
I270512
sF0.22
I1800458
sF0.95000000000000007
I3567
sF0.54000000000000004
I812609
sF0.45000000000000001
I1180951
sF0.26000000000000001
I1732141
sF0.17000000000000001
I1865026
sF0.66000000000000003
I355700
sF0.44
I1217959
sF0.91000000000000003
I9732
sF0.82000000000000006
I52621
sF0.46000000000000002
I1143191
sF0.080000000000000002
I1894114
sF0.02
I1897209
sF0.63
I453874
sF0.78000000000000003
I94186
sF0.34000000000000002
I1543750
sF0.87
I22212
sF0.73999999999999999
I157484
sF0.29999999999999999
I1648458
sF0.47000000000000003
I1104553
sF0.57999999999999996
I643335
sF0.35000000000000003
I1515170
sF0.70000000000000007
I244776
sF0.33000000000000002
I1571383
sF0.029999999999999999
I1896966
sF0.14000000000000001
I1881649
sF0.93000000000000005
I6090
sF0.31
I1623997
sF0.83999999999999997
I38283
sF0.17999999999999999
I1855229
sF0.27000000000000002
I1713446
sF0.16
I1872496
sF0.47999999999999998
I1064945
sF0.83000000000000007
I44991
sF0.85999999999999999
I26847
sF0.72999999999999998
I177109
sF0.88
I18216
sF0.90000000000000002
I12190
sF0.79000000000000004
I81796
sF0.050000000000000003
I1896220
sF0.32000000000000001
I1597956
sF0.37
I1454944
ssb.