(i__main__
variable
p1
(dp2
S'highbha'
p3
(dp4
F1
I708427
sF0.70400000000000007
I708427
sF1.1120000000000001
I708427
sF1.1360000000000001
I708427
sF0.76000000000000001
I708427
sF0.48000000000000004
I708427
sF0.40800000000000003
I708427
sF0.52800000000000002
I708427
sF0.52000000000000002
I708427
sF0.872
I708427
sF0.57600000000000007
I708427
sF0.46400000000000002
I708427
sF0.88
I708427
sF0.63200000000000001
I708427
sF0.98399999999999999
I708427
sF0.68800000000000006
I708427
sF1.0800000000000001
I708427
sF0.74399999999999999
I708427
sF1.1919999999999999
I708427
sF0.40000000000000002
I708427
sF0.80000000000000004
I708427
sF1.1680000000000001
I708427
sF1.008
I708427
sF0.97599999999999998
I708427
sF0.85599999999999998
I708427
sF0.56000000000000005
I708427
sF0.91200000000000003
I708427
sF1.0880000000000001
I708427
sF0.61599999999999999
I708427
sF0.96800000000000008
I708427
sF0.67200000000000004
I708427
sF0.504
I708427
sF1.048
I708427
sF0.44800000000000001
I708427
sF0.72799999999999998
I708427
sF1.1600000000000001
I708427
sF0.78400000000000003
I708427
sF0.84000000000000008
I708427
sF0.54400000000000004
I708427
sF0.81600000000000006
I708427
sF0.89600000000000002
I708427
sF0.59999999999999998
I708427
sF0.99199999999999999
I708427
sF0.95200000000000007
I708427
sF0.65600000000000003
I708427
sF1.016
I708427
sF0.71200000000000008
I708427
sF1.1280000000000001
I708427
sF1.04
I708427
sF0.45600000000000002
I708427
sF0.82400000000000007
I708427
sF1.056
I708427
sF0.44
I708427
sF0.58400000000000007
I708427
sF0.93600000000000005
I708427
sF0.64000000000000001
I708427
sF0.496
I708427
sF0.41600000000000004
I708427
sF0.69600000000000006
I708427
sF1.0960000000000001
I708427
sF0.752
I708427
sF1.1520000000000001
I708427
sF0.80800000000000005
I708427
sF1.024
I708427
sF0.86399999999999999
I708427
sF0.43200000000000005
I708427
sF0.53600000000000003
I708427
sF0.92800000000000005
I708427
sF0.56800000000000006
I708427
sF0.92000000000000004
I708427
sF0.624
I708427
sF0.48800000000000004
I708427
sF0.68000000000000005
I708427
sF1.0640000000000001
I708427
sF0.73599999999999999
I708427
sF0.84800000000000009
I708427
sF1.1759999999999999
I708427
sF0.79200000000000004
I708427
sF0.42400000000000004
I708427
sF1.1839999999999999
I708427
sF0.55200000000000005
I708427
sF0.90400000000000003
I708427
sF0.76800000000000002
I708427
sF0.60799999999999998
I708427
sF0.96000000000000008
I708427
sF1.1040000000000001
I708427
sF0.47200000000000003
I708427
sF1.1200000000000001
I708427
sF0.66400000000000003
I708427
sF1.032
I708427
sF0.71999999999999997
I708427
sF0.51200000000000001
I708427
sF1.1440000000000001
I708427
sF0.77600000000000002
I708427
sF0.83200000000000007
I708427
sF1.0720000000000001
I708427
sF0.88800000000000001
I708427
sF0.59200000000000008
I708427
sF0.94400000000000006
I708427
sF0.64800000000000002
I708427
ssS'x'
cNumeric
array_constructor
p5
((I100
tS'd'
S'\x9a\x99\x99\x99\x99\x99\xd9?\xea&1\x08\xac\x1c\xda?:\xb4\xc8v\xbe\x9f\xda?\x8aA`\xe5\xd0"\xdb?\xda\xce\xf7S\xe3\xa5\xdb?)\\\x8f\xc2\xf5(\xdc?y\xe9&1\x08\xac\xdc?\xc9v\xbe\x9f\x1a/\xdd?\x19\x04V\x0e-\xb2\xdd?i\x91\xed|?5\xde?\xb9\x1e\x85\xebQ\xb8\xde?\t\xac\x1cZd;\xdf?X9\xb4\xc8v\xbe\xdf?T\xe3\xa5\x9b\xc4 \xe0?\xfc\xa9\xf1\xd2Mb\xe0?\xa4p=\n\xd7\xa3\xe0?L7\x89A`\xe5\xe0?\xf4\xfd\xd4x\xe9&\xe1?\x9c\xc4 \xb0rh\xe1?D\x8bl\xe7\xfb\xa9\xe1?\xecQ\xb8\x1e\x85\xeb\xe1?\x94\x18\x04V\x0e-\xe2?<\xdfO\x8d\x97n\xe2?\xe4\xa5\x9b\xc4 \xb0\xe2?\x8cl\xe7\xfb\xa9\xf1\xe2?333333\xe3?\xdb\xf9~j\xbct\xe3?\x83\xc0\xca\xa1E\xb6\xe3?+\x87\x16\xd9\xce\xf7\xe3?\xd3Mb\x10X9\xe4?{\x14\xaeG\xe1z\xe4?#\xdb\xf9~j\xbc\xe4?\xcb\xa1E\xb6\xf3\xfd\xe4?sh\x91\xed|?\xe5?\x1b/\xdd$\x06\x81\xe5?\xc3\xf5(\\\x8f\xc2\xe5?k\xbct\x93\x18\x04\xe6?\x13\x83\xc0\xca\xa1E\xe6?\xbbI\x0c\x02+\x87\xe6?c\x10X9\xb4\xc8\xe6?\n\xd7\xa3p=\n\xe7?\xb2\x9d\xef\xa7\xc6K\xe7?Zd;\xdfO\x8d\xe7?\x02+\x87\x16\xd9\xce\xe7?\xaa\xf1\xd2Mb\x10\xe8?R\xb8\x1e\x85\xebQ\xe8?\xfa~j\xbct\x93\xe8?\xa2E\xb6\xf3\xfd\xd4\xe8?J\x0c\x02+\x87\x16\xe9?\xf2\xd2Mb\x10X\xe9?\x9a\x99\x99\x99\x99\x99\xe9?B`\xe5\xd0"\xdb\xe9?\xea&1\x08\xac\x1c\xea?\x92\xed|?5^\xea?:\xb4\xc8v\xbe\x9f\xea?\xe2z\x14\xaeG\xe1\xea?\x8aA`\xe5\xd0"\xeb?1\x08\xac\x1cZd\xeb?\xd9\xce\xf7S\xe3\xa5\xeb?\x81\x95C\x8bl\xe7\xeb?)\\\x8f\xc2\xf5(\xec?\xd1"\xdb\xf9~j\xec?y\xe9&1\x08\xac\xec?!\xb0rh\x91\xed\xec?\xc9v\xbe\x9f\x1a/\xed?q=\n\xd7\xa3p\xed?\x19\x04V\x0e-\xb2\xed?\xc1\xca\xa1E\xb6\xf3\xed?i\x91\xed|?5\xee?\x11X9\xb4\xc8v\xee?\xb9\x1e\x85\xebQ\xb8\xee?a\xe5\xd0"\xdb\xf9\xee?\x08\xac\x1cZd;\xef?\xb0rh\x91\xed|\xef?X9\xb4\xc8v\xbe\xef?\x00\x00\x00\x00\x00\x00\xf0?T\xe3\xa5\x9b\xc4 \xf0?\xa8\xc6K7\x89A\xf0?\xfc\xa9\xf1\xd2Mb\xf0?P\x8d\x97n\x12\x83\xf0?\xa4p=\n\xd7\xa3\xf0?\xf8S\xe3\xa5\x9b\xc4\xf0?L7\x89A`\xe5\xf0?\xa0\x1a/\xdd$\x06\xf1?\xf4\xfd\xd4x\xe9&\xf1?H\xe1z\x14\xaeG\xf1?\x9c\xc4 \xb0rh\xf1?\xf0\xa7\xc6K7\x89\xf1?D\x8bl\xe7\xfb\xa9\xf1?\x98n\x12\x83\xc0\xca\xf1?\xecQ\xb8\x1e\x85\xeb\xf1?@5^\xbaI\x0c\xf2?\x94\x18\x04V\x0e-\xf2?\xe8\xfb\xa9\xf1\xd2M\xf2?<\xdfO\x8d\x97n\xf2?\x90\xc2\xf5(\\\x8f\xf2?\xe4\xa5\x9b\xc4 \xb0\xf2?7\x89A`\xe5\xd0\xf2?\x8bl\xe7\xfb\xa9\xf1\xf2?\xdfO\x8d\x97n\x12\xf3?'
I01
tRp6
sS'lowbha'
p7
(dp8
F1
I1016678
sF0.70400000000000007
I1016678
sF1.1120000000000001
I1016678
sF1.1360000000000001
I1016678
sF0.76000000000000001
I1016678
sF0.48000000000000004
I1016678
sF0.40800000000000003
I1016678
sF0.52800000000000002
I1016678
sF0.52000000000000002
I1016678
sF0.872
I1016678
sF0.57600000000000007
I1016678
sF0.46400000000000002
I1016678
sF0.88
I1016678
sF0.63200000000000001
I1016678
sF0.98399999999999999
I1016678
sF0.68800000000000006
I1016678
sF1.0800000000000001
I1016678
sF0.74399999999999999
I1016678
sF1.1919999999999999
I1016678
sF0.40000000000000002
I1016678
sF0.80000000000000004
I1016678
sF1.1680000000000001
I1016678
sF1.008
I1016678
sF0.97599999999999998
I1016678
sF0.85599999999999998
I1016678
sF0.56000000000000005
I1016678
sF0.91200000000000003
I1016678
sF1.0880000000000001
I1016678
sF0.61599999999999999
I1016678
sF0.96800000000000008
I1016678
sF0.67200000000000004
I1016678
sF0.504
I1016678
sF1.048
I1016678
sF0.44800000000000001
I1016678
sF0.72799999999999998
I1016678
sF1.1600000000000001
I1016678
sF0.78400000000000003
I1016678
sF0.84000000000000008
I1016678
sF0.54400000000000004
I1016678
sF0.81600000000000006
I1016678
sF0.89600000000000002
I1016678
sF0.59999999999999998
I1016678
sF0.99199999999999999
I1016678
sF0.95200000000000007
I1016678
sF0.65600000000000003
I1016678
sF1.016
I1016678
sF0.71200000000000008
I1016678
sF1.1280000000000001
I1016678
sF1.04
I1016678
sF0.45600000000000002
I1016678
sF0.82400000000000007
I1016678
sF1.056
I1016678
sF0.44
I1016678
sF0.58400000000000007
I1016678
sF0.93600000000000005
I1016678
sF0.64000000000000001
I1016678
sF0.496
I1016678
sF0.41600000000000004
I1016678
sF0.69600000000000006
I1016678
sF1.0960000000000001
I1016678
sF0.752
I1016678
sF1.1520000000000001
I1016678
sF0.80800000000000005
I1016678
sF1.024
I1016678
sF0.86399999999999999
I1016678
sF0.43200000000000005
I1016678
sF0.53600000000000003
I1016678
sF0.92800000000000005
I1016678
sF0.56800000000000006
I1016678
sF0.92000000000000004
I1016678
sF0.624
I1016678
sF0.48800000000000004
I1016678
sF0.68000000000000005
I1016678
sF1.0640000000000001
I1016678
sF0.73599999999999999
I1016678
sF0.84800000000000009
I1016678
sF1.1759999999999999
I1016678
sF0.79200000000000004
I1016678
sF0.42400000000000004
I1016678
sF1.1839999999999999
I1016678
sF0.55200000000000005
I1016678
sF0.90400000000000003
I1016678
sF0.76800000000000002
I1016678
sF0.60799999999999998
I1016678
sF0.96000000000000008
I1016678
sF1.1040000000000001
I1016678
sF0.47200000000000003
I1016678
sF1.1200000000000001
I1016678
sF0.66400000000000003
I1016678
sF1.032
I1016678
sF0.71999999999999997
I1016678
sF0.51200000000000001
I1016678
sF1.1440000000000001
I1016678
sF0.77600000000000002
I1016678
sF0.83200000000000007
I1016678
sF1.0720000000000001
I1016678
sF0.88800000000000001
I1016678
sF0.59200000000000008
I1016678
sF0.94400000000000006
I1016678
sF0.64800000000000002
I1016678
ssS'highhad'
p9
(dp10
F1
I42516
sF0.70400000000000007
I888409
sF1.1120000000000001
I1305
sF1.1360000000000001
I817
sF0.76000000000000001
I724990
sF0.48000000000000004
I1318399
sF0.40800000000000003
I1361243
sF0.52800000000000002
I1272542
sF0.52000000000000002
I1282160
sF0.872
I357438
sF0.57600000000000007
I1173549
sF0.46400000000000002
I1329600
sF0.88
I332258
sF0.63200000000000001
I1058265
sF0.98399999999999999
I69960
sF0.68800000000000006
I930058
sF1.0800000000000001
I3034
sF0.74399999999999999
I774161
sF1.1919999999999999
I425
sF0.40000000000000002
I1364903
sF0.80000000000000004
I595614
sF1.1680000000000001
I538
sF1.008
I31146
sF0.97599999999999998
I84771
sF0.85599999999999998
I409183
sF0.56000000000000005
I1209118
sF0.91200000000000003
I236868
sF1.0880000000000001
I2450
sF0.61599999999999999
I1091348
sF0.96800000000000008
I100431
sF0.67200000000000004
I969066
sF0.504
I1298373
sF1.048
I7975
sF0.44800000000000001
I1339635
sF0.72799999999999998
I821628
sF1.1600000000000001
I598
sF0.78400000000000003
I647983
sF0.84000000000000008
I462035
sF0.54400000000000004
I1245352
sF0.81600000000000006
I542251
sF0.89600000000000002
I283200
sF0.59999999999999998
I1123837
sF0.99199999999999999
I55884
sF0.95200000000000007
I134525
sF0.65600000000000003
I1006080
sF1.016
I23235
sF0.71200000000000008
I866834
sF1.1280000000000001
I946
sF1.04
I10407
sF0.45600000000000002
I1334790
sF0.82400000000000007
I515514
sF1.056
I6224
sF0.44
I1344433
sF0.58400000000000007
I1156729
sF0.93600000000000005
I172690
sF0.64000000000000001
I1041346
sF0.496
I1305552
sF0.41600000000000004
I1357301
sF0.69600000000000006
I909385
sF1.0960000000000001
I1937
sF0.752
I749822
sF1.1520000000000001
I649
sF0.80800000000000005
I569209
sF1.024
I17575
sF0.86399999999999999
I383036
sF0.43200000000000005
I1348868
sF0.53600000000000003
I1260447
sF0.92800000000000005
I193182
sF0.56800000000000006
I1190951
sF0.92000000000000004
I214677
sF0.624
I1074894
sF0.48800000000000004
I1312150
sF0.68000000000000005
I949787
sF1.0640000000000001
I4875
sF0.73599999999999999
I798002
sF0.84800000000000009
I435465
sF1.1759999999999999
I488
sF0.79200000000000004
I621741
sF0.42400000000000004
I1353197
sF1.1839999999999999
I453
sF0.55200000000000005
I1227475
sF0.90400000000000003
I259702
sF0.76800000000000002
I699588
sF0.60799999999999998
I1107607
sF0.96000000000000008
I116950
sF1.1040000000000001
I1590
sF0.47200000000000003
I1324198
sF1.1200000000000001
I1109
sF0.66400000000000003
I987648
sF1.032
I13417
sF0.71999999999999997
I844447
sF0.51200000000000001
I1290654
sF1.1440000000000001
I724
sF0.77600000000000002
I673869
sF0.83200000000000007
I489037
sF1.0720000000000001
I3851
sF0.88800000000000001
I307385
sF0.59200000000000008
I1140285
sF0.94400000000000006
I153302
sF0.64800000000000002
I1024036
ssS'lowhad'
p11
(dp12
F1
I57695
sF0.70400000000000007
I1254422
sF1.1120000000000001
I1801
sF1.1360000000000001
I1122
sF0.76000000000000001
I1022421
sF0.48000000000000004
I1866508
sF0.40800000000000003
I1928155
sF0.52800000000000002
I1800939
sF0.52000000000000002
I1814770
sF0.872
I500606
sF0.57600000000000007
I1660152
sF0.46400000000000002
I1882638
sF0.88
I465181
sF0.63200000000000001
I1496042
sF0.98399999999999999
I96195
sF0.68800000000000006
I1313331
sF1.0800000000000001
I4200
sF0.74399999999999999
I1092477
sF1.1919999999999999
I587
sF0.40000000000000002
I1933584
sF0.80000000000000004
I837512
sF1.1680000000000001
I737
sF1.008
I42437
sF0.97599999999999998
I117045
sF0.85599999999999998
I573573
sF0.56000000000000005
I1710265
sF0.91200000000000003
I330701
sF1.0880000000000001
I3349
sF0.61599999999999999
I1542981
sF0.96800000000000008
I139144
sF0.67200000000000004
I1369256
sF0.504
I1837987
sF1.048
I11137
sF0.44800000000000001
I1897114
sF0.72799999999999998
I1159535
sF1.1600000000000001
I803
sF0.78400000000000003
I912455
sF0.84000000000000008
I648653
sF0.54400000000000004
I1762157
sF0.81600000000000006
I761860
sF0.89600000000000002
I396091
sF0.59999999999999998
I1589468
sF0.99199999999999999
I76465
sF0.95200000000000007
I186993
sF0.65600000000000003
I1421706
sF1.016
I31623
sF0.71200000000000008
I1223624
sF1.1280000000000001
I1277
sF1.04
I14385
sF0.45600000000000002
I1890054
sF0.82400000000000007
I723902
sF1.056
I8676
sF0.44
I1903886
sF0.58400000000000007
I1636028
sF0.93600000000000005
I240621
sF0.64000000000000001
I1472095
sF0.496
I1848328
sF0.41600000000000004
I1922555
sF0.69600000000000006
I1284088
sF1.0960000000000001
I2694
sF0.752
I1057669
sF1.1520000000000001
I890
sF0.80800000000000005
I799807
sF1.024
I24097
sF0.86399999999999999
I536814
sF0.43200000000000005
I1910354
sF0.53600000000000003
I1783846
sF0.92800000000000005
I269429
sF0.56800000000000006
I1684911
sF0.92000000000000004
I299310
sF0.624
I1519592
sF0.48800000000000004
I1857602
sF0.68000000000000005
I1341641
sF1.0640000000000001
I6807
sF0.73599999999999999
I1126426
sF0.84800000000000009
I611163
sF1.1759999999999999
I683
sF0.79200000000000004
I875263
sF0.42400000000000004
I1916707
sF1.1839999999999999
I638
sF0.55200000000000005
I1736466
sF0.90400000000000003
I363128
sF0.76800000000000002
I986357
sF0.60799999999999998
I1566277
sF0.96000000000000008
I162521
sF1.1040000000000001
I2186
sF0.47200000000000003
I1874723
sF1.1200000000000001
I1497
sF0.66400000000000003
I1395675
sF1.032
I18602
sF0.71999999999999997
I1191923
sF0.51200000000000001
I1826984
sF1.1440000000000001
I982
sF0.77600000000000002
I949367
sF0.83200000000000007
I686285
sF1.0720000000000001
I5324
sF0.88800000000000001
I430281
sF0.59200000000000008
I1612405
sF0.94400000000000006
I213110
sF0.64800000000000002
I1447361
ssb.