(dp1
S'histhigh_d0close'
p2
(ijimtools
hist
p3
(dp4
S'errors'
p5
(lp6
F0
aF0
aF0
aF0
aF0
aF0
aF0
aF0
aF0
aF0
aF0
aF0
aF0
aF0
aF0
aF0
aF0
aF0
aF0
aF0
aF0
aF0
aF0
aF0
aF0
aF0
aF0
aF0
aF0
aF0
aF0
aF0
aF0
aF0
aF0
aF0
aF0
aF0
aF0
aF0
aF0
aF0
aF0
aF0
aF0
aF0
aF0
aF0
aF0
aF0
aF0
aF0
aF0
aF0
aF0
aF0
aF0
aF0
aF0
aF0
aF0
aF0
aF0
aF0
aF0
aF0
aF0
aF0
aF0
aF0
asS'fill_factor'
p7
F10
sS'overflow_error'
p8
F0
sS'high'
p9
F0
sS'underflow_error'
p10
F0
sS'values'
p11
(lp12
F497
aF606
aF811
aF914
aF1265
aF1477
aF1939
aF2485
aF3119
aF3806
aF4910
aF6253
aF7615
aF9504
aF11879
aF15085
aF18664
aF22892
aF28436
aF34738
aF42613
aF51336
aF61761
aF73415
aF85697
aF97501
aF108977
aF117802
aF123992
aF125210
aF120805
aF111551
aF97882
aF82000
aF64805
aF47216
aF31097
aF18307
aF9564
aF4807
aF2883
aF2055
aF1835
aF1620
aF1684
aF1634
aF1822
aF1994
aF2219
aF2489
aF2857
aF3418
aF4012
aF3617
aF118
aF0
aF0
aF0
aF0
aF0
aF0
aF0
aF0
aF0
aF0
aF0
aF0
aF0
aF0
aF0
asS'low'
p13
F-7
sS'overflow'
p14
F0
sS'underflow'
p15
F1829
sS'bins'
p16
I70
sbsS'histloff_anyz'
p17
(ijimtools
hist
p18
(dp19
g5
(lp20
F0
aF0
aF0
aF0
aF0
aF0
aF0
aF0
aF0
aF0
aF0
aF0
aF0
aF0
aF0
aF0
aF0
aF0
aF0
aF0
aF0
aF0
aF0
aF0
aF0
aF0
aF0
aF0
aF0
aF0
aF0
aF0
aF0
aF0
aF0
aF0
aF0
aF0
aF0
aF0
aF0
aF0
aF0
aF0
aF0
aF0
aF0
aF0
aF0
aF0
aF0
aF0
aF0
aF0
aF0
aF0
aF0
aF0
aF0
aF0
aF0
aF0
aF0
aF0
aF0
aF0
aF0
aF0
aF0
aF0
asg7
F10
sg8
F0
sg9
F0
sg10
F0
sg11
(lp21
F2
aF3
aF1
aF1
aF2
aF1
aF2
aF2
aF8
aF15
aF8
aF11
aF19
aF23
aF25
aF40
aF49
aF49
aF58
aF83
aF98
aF145
aF171
aF228
aF257
aF284
aF398
aF542
aF677
aF776
aF985
aF1269
aF1529
aF1888
aF2396
aF2912
aF3628
aF4456
aF5825
aF7129
aF8812
aF11128
aF13925
aF17237
aF20986
aF25450
aF30067
aF35245
aF39481
aF41750
aF39828
aF33085
aF22709
aF12097
aF5011
aF2648
aF2353
aF2665
aF3031
aF3430
aF3573
aF3391
aF1865
aF1335
aF1080
aF967
aF676
aF553
aF418
aF281
asg13
F-7
sg14
F455
sg15
F1
sg16
I70
sbsS'histlow_d0close'
p22
(ijimtools
hist
p23
(dp24
g5
(lp25
F0
aF0
aF0
aF0
aF0
aF0
aF0
aF0
aF0
aF0
aF0
aF0
aF0
aF0
aF0
aF0
aF0
aF0
aF0
aF0
aF0
aF0
aF0
aF0
aF0
aF0
aF0
aF0
aF0
aF0
aF0
aF0
aF0
aF0
aF0
aF0
aF0
aF0
aF0
aF0
aF0
aF0
aF0
aF0
aF0
aF0
aF0
aF0
aF0
aF0
aF0
aF0
aF0
aF0
aF0
aF0
aF0
aF0
aF0
aF0
aF0
aF0
aF0
aF0
aF0
aF0
aF0
aF0
aF0
aF0
asg7
F10
sg8
F0
sg9
F0
sg10
F0
sg11
(lp26
F684
aF944
aF1206
aF1448
aF1783
aF2220
aF2849
aF3671
aF4546
aF5801
aF7274
aF8749
aF11071
aF14028
aF17591
aF21720
aF27188
aF33938
aF41666
aF50917
aF61969
aF74946
aF90256
aF106463
aF123422
aF141441
aF156857
aF169910
aF178014
aF178608
aF172538
aF158179
aF137890
aF114497
aF89181
aF63829
aF42135
aF24167
aF12541
aF6390
aF3983
aF3065
aF2722
aF2517
aF2516
aF2569
aF2746
aF3047
aF3328
aF3694
aF4179
aF4784
aF5531
aF4792
aF106
aF0
aF0
aF0
aF0
aF0
aF0
aF0
aF0
aF0
aF0
aF0
aF0
aF0
aF0
aF0
asg13
F-7
sg14
F0
sg15
F2873
sg16
I70
sbsS'numbha_low'
p27
I997646
sS'histhoff_anyz'
p28
(ijimtools
hist
p29
(dp30
g5
(lp31
F0
aF0
aF0
aF0
aF0
aF0
aF0
aF0
aF0
aF0
aF0
aF0
aF0
aF0
aF0
aF0
aF0
aF0
aF0
aF0
aF0
aF0
aF0
aF0
aF0
aF0
aF0
aF0
aF0
aF0
aF0
aF0
aF0
aF0
aF0
aF0
aF0
aF0
aF0
aF0
aF0
aF0
aF0
aF0
aF0
aF0
aF0
aF0
aF0
aF0
aF0
aF0
aF0
aF0
aF0
aF0
aF0
aF0
aF0
aF0
aF0
aF0
aF0
aF0
aF0
aF0
aF0
aF0
aF0
aF0
asg7
F10
sg8
F0
sg9
F0
sg10
F0
sg11
(lp32
F0
aF1
aF3
aF0
aF1
aF0
aF0
aF4
aF1
aF12
aF5
aF7
aF20
aF17
aF19
aF20
aF29
aF37
aF35
aF56
aF82
aF103
aF118
aF133
aF167
aF229
aF292
aF359
aF458
aF584
aF730
aF893
aF1043
aF1323
aF1672
aF2137
aF2658
aF3278
aF4085
aF5254
aF6271
aF7890
aF9744
aF12253
aF14731
aF18127
aF21635
aF25063
aF27957
aF29487
aF28281
aF23657
aF16419
aF8607
aF3499
aF1722
aF1545
aF1738
aF2000
aF2178
aF2309
aF2211
aF1158
aF830
aF702
aF608
aF484
aF382
aF301
aF198
asg13
F-7
sg14
F256
sg15
F1
sg16
I70
sbsS'histloff_d0close'
p33
(ijimtools
hist
p34
(dp35
g5
(lp36
F0
aF0
aF0
aF0
aF0
aF0
aF0
aF0
aF0
aF0
aF0
aF0
aF0
aF0
aF0
aF0
aF0
aF0
aF0
aF0
aF0
aF0
aF0
aF0
aF0
aF0
aF0
aF0
aF0
aF0
aF0
aF0
aF0
aF0
aF0
aF0
aF0
aF0
aF0
aF0
aF0
aF0
aF0
aF0
aF0
aF0
aF0
aF0
aF0
aF0
aF0
aF0
aF0
aF0
aF0
aF0
aF0
aF0
aF0
aF0
aF0
aF0
aF0
aF0
aF0
aF0
aF0
aF0
aF0
aF0
asg7
F10
sg8
F0
sg9
F0
sg10
F0
sg11
(lp37
F71
aF99
aF135
aF176
aF218
aF246
aF365
aF410
aF516
aF655
aF823
aF1010
aF1312
aF1629
aF2041
aF2600
aF3198
aF3939
aF4970
aF6087
aF7447
aF9237
aF11166
aF13632
aF16252
aF19033
aF22011
aF24860
aF27481
aF29963
aF31069
aF31449
aF29806
aF26693
aF22329
aF17159
aF11670
aF6921
aF3631
aF2066
aF1385
aF1092
aF1050
aF1034
aF993
aF1178
aF1273
aF1473
aF1539
aF1680
aF2070
aF2326
aF2726
aF2226
aF65
aF0
aF0
aF0
aF0
aF0
aF0
aF0
aF0
aF0
aF0
aF0
aF0
aF0
aF0
aF0
asg13
F-7
sg14
F0
sg15
F314
sg16
I70
sbsS'numgam_hoff'
p38
I20355
sS'histlow_trig'
p39
(ijimtools
hist
p40
(dp41
g5
(lp42
F0
aF462.88011406842702
aF133.6637572418193
aF448.42167655009723
aF99.247166206396045
aF101.41991914806479
aF906.67248772641165
aF875.86357385154452
asg7
F1
sg8
F0
sg9
F7.5
sg10
F0
sg11
(lp43
F0
aF214258
aF17866
aF201082
aF9850
aF10286
aF822055
aF767137
asg13
F-0.5
sg14
F0
sg15
F0
sg16
I8
sbsS'numgam_low'
p44
I74887
sS'histhigh_anyz'
p45
(ijimtools
hist
p46
(dp47
g5
(lp48
F0
aF0
aF0
aF0
aF0
aF0
aF0
aF0
aF0
aF0
aF0
aF0
aF0
aF0
aF0
aF0
aF0
aF0
aF0
aF0
aF0
aF0
aF0
aF0
aF0
aF0
aF0
aF0
aF0
aF0
aF0
aF0
aF0
aF0
aF0
aF0
aF0
aF0
aF0
aF0
aF0
aF0
aF0
aF0
aF0
aF0
aF0
aF0
aF0
aF0
aF0
aF0
aF0
aF0
aF0
aF0
aF0
aF0
aF0
aF0
aF0
aF0
aF0
aF0
aF0
aF0
aF0
aF0
aF0
aF0
asg7
F10
sg8
F0
sg9
F0
sg10
F0
sg11
(lp49
F6
aF4
aF10
aF8
aF11
aF13
aF11
aF21
aF27
aF36
aF41
aF55
aF69
aF76
aF98
aF129
aF177
aF208
aF254
aF364
aF386
aF524
aF632
aF837
aF998
aF1283
aF1615
aF1958
aF2494
aF3193
aF3973
aF4975
aF6042
aF7809
aF9746
aF12130
aF15458
aF19000
aF23959
aF29976
aF37432
aF46986
aF58266
aF72283
aF89372
aF108943
aF129543
aF151337
aF168402
aF176413
aF168846
aF140057
aF91660
aF45871
aF16389
aF5629
aF4251
aF4573
aF4956
aF5603
aF5879
aF5361
aF3019
aF2146
aF1891
aF1557
aF1289
aF1080
aF830
aF496
asg13
F-7
sg14
F707
sg15
F20
sg16
I70
sbsS'numgam_high'
p50
I51886
sS'numgam_loff'
p51
I29030
sS'histlow_anyz'
p52
(ijimtools
hist
p53
(dp54
g5
(lp55
F0
aF0
aF0
aF0
aF0
aF0
aF0
aF0
aF0
aF0
aF0
aF0
aF0
aF0
aF0
aF0
aF0
aF0
aF0
aF0
aF0
aF0
aF0
aF0
aF0
aF0
aF0
aF0
aF0
aF0
aF0
aF0
aF0
aF0
aF0
aF0
aF0
aF0
aF0
aF0
aF0
aF0
aF0
aF0
aF0
aF0
aF0
aF0
aF0
aF0
aF0
aF0
aF0
aF0
aF0
aF0
aF0
aF0
aF0
aF0
aF0
aF0
aF0
aF0
aF0
aF0
aF0
aF0
aF0
aF0
asg7
F10
sg8
F0
sg9
F0
sg10
F0
sg11
(lp56
F4
aF6
aF12
aF12
aF13
aF15
aF26
aF27
aF25
aF54
aF58
aF72
aF88
aF115
aF130
aF188
aF215
aF269
aF339
aF494
aF548
aF737
aF886
aF1133
aF1465
aF1773
aF2267
aF2801
aF3571
aF4471
aF5480
aF6895
aF8815
aF10889
aF13708
aF17191
aF21332
aF27030
aF33959
aF42666
aF52926
aF66196
aF82577
aF102539
aF125740
aF153066
aF183709
aF214803
aF240052
aF253340
aF242162
aF201896
aF134730
aF68764
aF25228
aF8755
aF6593
aF6987
aF7572
aF8389
aF9129
aF8073
aF4667
aF3420
aF2902
aF2267
aF1857
aF1485
aF1067
aF752
asg13
F-7
sg14
F1050
sg15
F20
sg16
I70
sbsS'numbha_hoff'
p57
I266500
sS'numbha_loff'
p58
I374737
sS'numbha_high'
p59
I689636
sS'histhoff_d0close'
p60
(ijimtools
hist
p61
(dp62
g5
(lp63
F0
aF0
aF0
aF0
aF0
aF0
aF0
aF0
aF0
aF0
aF0
aF0
aF0
aF0
aF0
aF0
aF0
aF0
aF0
aF0
aF0
aF0
aF0
aF0
aF0
aF0
aF0
aF0
aF0
aF0
aF0
aF0
aF0
aF0
aF0
aF0
aF0
aF0
aF0
aF0
aF0
aF0
aF0
aF0
aF0
aF0
aF0
aF0
aF0
aF0
aF0
aF0
aF0
aF0
aF0
aF0
aF0
aF0
aF0
aF0
aF0
aF0
aF0
aF0
aF0
aF0
aF0
aF0
aF0
aF0
asg7
F10
sg8
F0
sg9
F0
sg10
F0
sg11
(lp64
F62
aF85
aF88
aF109
aF150
aF185
aF195
aF305
aF363
aF459
aF580
aF730
aF914
aF1077
aF1490
aF1787
aF2225
aF2935
aF3476
aF4313
aF5253
aF6470
aF7976
aF9601
aF11454
aF13429
aF15800
aF17655
aF19428
aF21234
aF21933
aF21957
aF21103
aF19190
aF16460
aF12508
aF8386
aF4971
aF2708
aF1462
aF952
aF771
aF657
aF636
aF722
aF695
aF775
aF856
aF1063
aF1158
aF1326
aF1499
aF1817
aF1535
aF73
aF0
aF0
aF0
aF0
aF0
aF0
aF0
aF0
aF0
aF0
aF0
aF0
aF0
aF0
aF0
asg13
F-7
sg14
F0
sg15
F252
sg16
I70
sbs.