(i__main__
variable
p1
(dp2
S'highbha'
p3
(dp4
F0
I689636
sF0.25
I689636
sF0.5
I689636
sF0.10000000000000001
I689636
sF0.64000000000000001
I689636
sF0.19
I689636
sF0.12
I689636
sF0.97999999999999998
I689636
sF0.75
I689636
sF0.14999999999999999
I689636
sF0.059999999999999998
I689636
sF0.52000000000000002
I689636
sF0.67000000000000004
I689636
sF0.23999999999999999
I689636
sF0.53000000000000003
I689636
sF0.94000000000000006
I689636
sF0.20999999999999999
I689636
sF0.89000000000000001
I689636
sF0.23000000000000001
I689636
sF0.40000000000000002
I689636
sF0.80000000000000004
I689636
sF0.55000000000000004
I689636
sF0.65000000000000002
I689636
sF0.39000000000000001
I689636
sF0.70999999999999996
I689636
sF0.95999999999999996
I689636
sF0.38
I689636
sF0.76000000000000001
I689636
sF0.28000000000000003
I689636
sF0.42999999999999999
I689636
sF0.35999999999999999
I689636
sF0.41000000000000003
I689636
sF0.58999999999999997
I689636
sF0.68000000000000005
I689636
sF0.28999999999999998
I689636
sF0.070000000000000007
I689636
sF0.089999999999999997
I689636
sF0.01
I689636
sF0.41999999999999998
I689636
sF0.57000000000000006
I689636
sF0.84999999999999998
I689636
sF0.59999999999999998
I689636
sF0.20000000000000001
I689636
sF0.56000000000000005
I689636
sF0.60999999999999999
I689636
sF0.51000000000000001
I689636
sF0.77000000000000002
I689636
sF0.62
I689636
sF0.98999999999999999
I689636
sF0.81000000000000005
I689636
sF0.11
I689636
sF0.48999999999999999
I689636
sF0.71999999999999997
I689636
sF0.96999999999999997
I689636
sF0.92000000000000004
I689636
sF0.13
I689636
sF0.040000000000000001
I689636
sF0.69000000000000006
I689636
sF0.22
I689636
sF0.95000000000000007
I689636
sF0.54000000000000004
I689636
sF0.45000000000000001
I689636
sF0.26000000000000001
I689636
sF0.17000000000000001
I689636
sF0.66000000000000003
I689636
sF0.44
I689636
sF0.91000000000000003
I689636
sF0.82000000000000006
I689636
sF0.46000000000000002
I689636
sF0.080000000000000002
I689636
sF0.02
I689636
sF0.63
I689636
sF0.78000000000000003
I689636
sF0.34000000000000002
I689636
sF0.87
I689636
sF0.73999999999999999
I689636
sF0.29999999999999999
I689636
sF0.47000000000000003
I689636
sF0.57999999999999996
I689636
sF0.35000000000000003
I689636
sF0.70000000000000007
I689636
sF0.33000000000000002
I689636
sF0.029999999999999999
I689636
sF0.14000000000000001
I689636
sF0.93000000000000005
I689636
sF0.31
I689636
sF0.83999999999999997
I689636
sF0.17999999999999999
I689636
sF0.27000000000000002
I689636
sF0.16
I689636
sF0.47999999999999998
I689636
sF0.83000000000000007
I689636
sF0.85999999999999999
I689636
sF0.72999999999999998
I689636
sF0.88
I689636
sF0.90000000000000002
I689636
sF0.79000000000000004
I689636
sF0.050000000000000003
I689636
sF0.32000000000000001
I689636
sF0.37
I689636
ssS'x'
cNumeric
array_constructor
p5
((I100
tS'd'
S'\x00\x00\x00\x00\x00\x00\x00\x00{\x14\xaeG\xe1z\x84?{\x14\xaeG\xe1z\x94?\xb8\x1e\x85\xebQ\xb8\x9e?{\x14\xaeG\xe1z\xa4?\x9a\x99\x99\x99\x99\x99\xa9?\xb8\x1e\x85\xebQ\xb8\xae?\xecQ\xb8\x1e\x85\xeb\xb1?{\x14\xaeG\xe1z\xb4?\n\xd7\xa3p=\n\xb7?\x9a\x99\x99\x99\x99\x99\xb9?)\\\x8f\xc2\xf5(\xbc?\xb8\x1e\x85\xebQ\xb8\xbe?\xa4p=\n\xd7\xa3\xc0?\xecQ\xb8\x1e\x85\xeb\xc1?333333\xc3?{\x14\xaeG\xe1z\xc4?\xc3\xf5(\\\x8f\xc2\xc5?\n\xd7\xa3p=\n\xc7?R\xb8\x1e\x85\xebQ\xc8?\x9a\x99\x99\x99\x99\x99\xc9?\xe1z\x14\xaeG\xe1\xca?)\\\x8f\xc2\xf5(\xcc?q=\n\xd7\xa3p\xcd?\xb8\x1e\x85\xebQ\xb8\xce?\x00\x00\x00\x00\x00\x00\xd0?\xa4p=\n\xd7\xa3\xd0?H\xe1z\x14\xaeG\xd1?\xecQ\xb8\x1e\x85\xeb\xd1?\x8f\xc2\xf5(\\\x8f\xd2?333333\xd3?\xd7\xa3p=\n\xd7\xd3?{\x14\xaeG\xe1z\xd4?\x1f\x85\xebQ\xb8\x1e\xd5?\xc3\xf5(\\\x8f\xc2\xd5?gfffff\xd6?\n\xd7\xa3p=\n\xd7?\xaeG\xe1z\x14\xae\xd7?R\xb8\x1e\x85\xebQ\xd8?\xf6(\\\x8f\xc2\xf5\xd8?\x9a\x99\x99\x99\x99\x99\xd9?>\n\xd7\xa3p=\xda?\xe1z\x14\xaeG\xe1\xda?\x85\xebQ\xb8\x1e\x85\xdb?)\\\x8f\xc2\xf5(\xdc?\xcd\xcc\xcc\xcc\xcc\xcc\xdc?q=\n\xd7\xa3p\xdd?\x15\xaeG\xe1z\x14\xde?\xb8\x1e\x85\xebQ\xb8\xde?\\\x8f\xc2\xf5(\\\xdf?\x00\x00\x00\x00\x00\x00\xe0?R\xb8\x1e\x85\xebQ\xe0?\xa4p=\n\xd7\xa3\xe0?\xf6(\\\x8f\xc2\xf5\xe0?H\xe1z\x14\xaeG\xe1?\x9a\x99\x99\x99\x99\x99\xe1?\xecQ\xb8\x1e\x85\xeb\xe1?>\n\xd7\xa3p=\xe2?\x8f\xc2\xf5(\\\x8f\xe2?\xe1z\x14\xaeG\xe1\xe2?333333\xe3?\x85\xebQ\xb8\x1e\x85\xe3?\xd7\xa3p=\n\xd7\xe3?)\\\x8f\xc2\xf5(\xe4?{\x14\xaeG\xe1z\xe4?\xcd\xcc\xcc\xcc\xcc\xcc\xe4?\x1f\x85\xebQ\xb8\x1e\xe5?q=\n\xd7\xa3p\xe5?\xc3\xf5(\\\x8f\xc2\xe5?\x15\xaeG\xe1z\x14\xe6?gfffff\xe6?\xb8\x1e\x85\xebQ\xb8\xe6?\n\xd7\xa3p=\n\xe7?\\\x8f\xc2\xf5(\\\xe7?\xaeG\xe1z\x14\xae\xe7?\x00\x00\x00\x00\x00\x00\xe8?R\xb8\x1e\x85\xebQ\xe8?\xa4p=\n\xd7\xa3\xe8?\xf6(\\\x8f\xc2\xf5\xe8?H\xe1z\x14\xaeG\xe9?\x9a\x99\x99\x99\x99\x99\xe9?\xecQ\xb8\x1e\x85\xeb\xe9?>\n\xd7\xa3p=\xea?\x90\xc2\xf5(\\\x8f\xea?\xe1z\x14\xaeG\xe1\xea?333333\xeb?\x85\xebQ\xb8\x1e\x85\xeb?\xd7\xa3p=\n\xd7\xeb?)\\\x8f\xc2\xf5(\xec?{\x14\xaeG\xe1z\xec?\xcd\xcc\xcc\xcc\xcc\xcc\xec?\x1f\x85\xebQ\xb8\x1e\xed?q=\n\xd7\xa3p\xed?\xc3\xf5(\\\x8f\xc2\xed?\x15\xaeG\xe1z\x14\xee?gfffff\xee?\xb8\x1e\x85\xebQ\xb8\xee?\n\xd7\xa3p=\n\xef?\\\x8f\xc2\xf5(\\\xef?\xaeG\xe1z\x14\xae\xef?'
I01
tRp6
sS'lowbha'
p7
(dp8
F0
I997646
sF0.25
I997646
sF0.5
I997646
sF0.10000000000000001
I997646
sF0.64000000000000001
I997646
sF0.19
I997646
sF0.12
I997646
sF0.97999999999999998
I997646
sF0.75
I997646
sF0.14999999999999999
I997646
sF0.059999999999999998
I997646
sF0.52000000000000002
I997646
sF0.67000000000000004
I997646
sF0.23999999999999999
I997646
sF0.53000000000000003
I997646
sF0.94000000000000006
I997646
sF0.20999999999999999
I997646
sF0.89000000000000001
I997646
sF0.23000000000000001
I997646
sF0.40000000000000002
I997646
sF0.80000000000000004
I997646
sF0.55000000000000004
I997646
sF0.65000000000000002
I997646
sF0.39000000000000001
I997646
sF0.70999999999999996
I997646
sF0.95999999999999996
I997646
sF0.38
I997646
sF0.76000000000000001
I997646
sF0.28000000000000003
I997646
sF0.42999999999999999
I997646
sF0.35999999999999999
I997646
sF0.41000000000000003
I997646
sF0.58999999999999997
I997646
sF0.68000000000000005
I997646
sF0.28999999999999998
I997646
sF0.070000000000000007
I997646
sF0.089999999999999997
I997646
sF0.01
I997646
sF0.41999999999999998
I997646
sF0.57000000000000006
I997646
sF0.84999999999999998
I997646
sF0.59999999999999998
I997646
sF0.20000000000000001
I997646
sF0.56000000000000005
I997646
sF0.60999999999999999
I997646
sF0.51000000000000001
I997646
sF0.77000000000000002
I997646
sF0.62
I997646
sF0.98999999999999999
I997646
sF0.81000000000000005
I997646
sF0.11
I997646
sF0.48999999999999999
I997646
sF0.71999999999999997
I997646
sF0.96999999999999997
I997646
sF0.92000000000000004
I997646
sF0.13
I997646
sF0.040000000000000001
I997646
sF0.69000000000000006
I997646
sF0.22
I997646
sF0.95000000000000007
I997646
sF0.54000000000000004
I997646
sF0.45000000000000001
I997646
sF0.26000000000000001
I997646
sF0.17000000000000001
I997646
sF0.66000000000000003
I997646
sF0.44
I997646
sF0.91000000000000003
I997646
sF0.82000000000000006
I997646
sF0.46000000000000002
I997646
sF0.080000000000000002
I997646
sF0.02
I997646
sF0.63
I997646
sF0.78000000000000003
I997646
sF0.34000000000000002
I997646
sF0.87
I997646
sF0.73999999999999999
I997646
sF0.29999999999999999
I997646
sF0.47000000000000003
I997646
sF0.57999999999999996
I997646
sF0.35000000000000003
I997646
sF0.70000000000000007
I997646
sF0.33000000000000002
I997646
sF0.029999999999999999
I997646
sF0.14000000000000001
I997646
sF0.93000000000000005
I997646
sF0.31
I997646
sF0.83999999999999997
I997646
sF0.17999999999999999
I997646
sF0.27000000000000002
I997646
sF0.16
I997646
sF0.47999999999999998
I997646
sF0.83000000000000007
I997646
sF0.85999999999999999
I997646
sF0.72999999999999998
I997646
sF0.88
I997646
sF0.90000000000000002
I997646
sF0.79000000000000004
I997646
sF0.050000000000000003
I997646
sF0.32000000000000001
I997646
sF0.37
I997646
ssS'highhad'
p9
(dp10
F0
I1278215
sF0.25
I655627
sF0.5
I69118
sF0.10000000000000001
I1145431
sF0.64000000000000001
I11763
sF0.19
I879001
sF0.12
I1097604
sF0.97999999999999998
I175
sF0.75
I2785
sF0.14999999999999999
I1012444
sF0.059999999999999998
I1217518
sF0.52000000000000002
I52979
sF0.67000000000000004
I7907
sF0.23999999999999999
I692515
sF0.53000000000000003
I46933
sF0.94000000000000006
I260
sF0.20999999999999999
I804988
sF0.89000000000000001
I435
sF0.23000000000000001
I729902
sF0.40000000000000002
I212067
sF0.80000000000000004
I1415
sF0.55000000000000004
I36905
sF0.65000000000000002
I10322
sF0.39000000000000001
I232711
sF0.70999999999999996
I4714
sF0.95999999999999996
I214
sF0.38
I254948
sF0.76000000000000001
I2394
sF0.28000000000000003
I548271
sF0.42999999999999999
I157525
sF0.35999999999999999
I303509
sF0.41000000000000003
I192593
sF0.58999999999999997
I22415
sF0.68000000000000005
I6942
sF0.28999999999999998
I514520
sF0.070000000000000007
I1202674
sF0.089999999999999997
I1166415
sF0.01
I1267670
sF0.41999999999999998
I174609
sF0.57000000000000006
I28827
sF0.84999999999999998
I723
sF0.59999999999999998
I19771
sF0.20000000000000001
I842352
sF0.56000000000000005
I32641
sF0.60999999999999999
I17388
sF0.51000000000000001
I60010
sF0.77000000000000002
I2094
sF0.62
I15350
sF0.98999999999999999
I167
sF0.81000000000000005
I1250
sF0.11
I1122387
sF0.48999999999999999
I79477
sF0.71999999999999997
I4146
sF0.96999999999999997
I194
sF0.92000000000000004
I325
sF0.13
I1071012
sF0.040000000000000001
I1241438
sF0.69000000000000006
I6081
sF0.22
I767482
sF0.95000000000000007
I232
sF0.54000000000000004
I41663
sF0.45000000000000001
I127478
sF0.26000000000000001
I618774
sF0.17000000000000001
I948008
sF0.66000000000000003
I9045
sF0.44
I141911
sF0.91000000000000003
I351
sF0.82000000000000006
I1072
sF0.46000000000000002
I114082
sF0.080000000000000002
I1185541
sF0.02
I1259033
sF0.63
I13424
sF0.78000000000000003
I1838
sF0.34000000000000002
I357771
sF0.87
I566
sF0.73999999999999999
I3139
sF0.29999999999999999
I481428
sF0.47000000000000003
I101584
sF0.57999999999999996
I25464
sF0.35000000000000003
I329843
sF0.70000000000000007
I5363
sF0.33000000000000002
I387137
sF0.029999999999999999
I1250851
sF0.14000000000000001
I1042528
sF0.93000000000000005
I289
sF0.31
I449274
sF0.83999999999999997
I829
sF0.17999999999999999
I914213
sF0.27000000000000002
I583145
sF0.16
I980877
sF0.47999999999999998
I90145
sF0.83000000000000007
I943
sF0.85999999999999999
I643
sF0.72999999999999998
I3604
sF0.88
I492
sF0.90000000000000002
I389
sF0.79000000000000004
I1606
sF0.050000000000000003
I1230335
sF0.32000000000000001
I417656
sF0.37
I278466
ssS'lowhad'
p11
(dp12
F0
I1826945
sF0.25
I933075
sF0.5
I97187
sF0.10000000000000001
I1635336
sF0.64000000000000001
I16291
sF0.19
I1252270
sF0.12
I1566733
sF0.97999999999999998
I221
sF0.75
I3680
sF0.14999999999999999
I1444894
sF0.059999999999999998
I1738326
sF0.52000000000000002
I74460
sF0.67000000000000004
I10856
sF0.23999999999999999
I986048
sF0.53000000000000003
I65858
sF0.94000000000000006
I316
sF0.20999999999999999
I1146712
sF0.89000000000000001
I584
sF0.23000000000000001
I1039339
sF0.40000000000000002
I300599
sF0.80000000000000004
I1883
sF0.55000000000000004
I51512
sF0.65000000000000002
I14226
sF0.39000000000000001
I330132
sF0.70999999999999996
I6401
sF0.95999999999999996
I253
sF0.38
I361903
sF0.76000000000000001
I3225
sF0.28000000000000003
I781537
sF0.42999999999999999
I222998
sF0.35999999999999999
I431247
sF0.41000000000000003
I272888
sF0.58999999999999997
I31112
sF0.68000000000000005
I9539
sF0.28999999999999998
I733169
sF0.070000000000000007
I1716827
sF0.089999999999999997
I1665339
sF0.01
I1810497
sF0.41999999999999998
I247011
sF0.57000000000000006
I40073
sF0.84999999999999998
I979
sF0.59999999999999998
I27426
sF0.20000000000000001
I1200168
sF0.56000000000000005
I45388
sF0.60999999999999999
I24011
sF0.51000000000000001
I84424
sF0.77000000000000002
I2808
sF0.62
I21055
sF0.98999999999999999
I208
sF0.81000000000000005
I1646
sF0.11
I1602260
sF0.48999999999999999
I112115
sF0.71999999999999997
I5608
sF0.96999999999999997
I229
sF0.92000000000000004
I394
sF0.13
I1528566
sF0.040000000000000001
I1772694
sF0.69000000000000006
I8333
sF0.22
I1092887
sF0.95000000000000007
I284
sF0.54000000000000004
I58153
sF0.45000000000000001
I180168
sF0.26000000000000001
I881473
sF0.17000000000000001
I1352572
sF0.66000000000000003
I12450
sF0.44
I200681
sF0.91000000000000003
I462
sF0.82000000000000006
I1436
sF0.46000000000000002
I160927
sF0.080000000000000002
I1692541
sF0.02
I1797672
sF0.63
I18515
sF0.78000000000000003
I2407
sF0.34000000000000002
I508665
sF0.87
I742
sF0.73999999999999999
I4245
sF0.29999999999999999
I685647
sF0.47000000000000003
I143295
sF0.57999999999999996
I35359
sF0.35000000000000003
I468984
sF0.70000000000000007
I7333
sF0.33000000000000002
I550743
sF0.029999999999999999
I1786001
sF0.14000000000000001
I1487791
sF0.93000000000000005
I357
sF0.31
I639514
sF0.83999999999999997
I1114
sF0.17999999999999999
I1303225
sF0.27000000000000002
I830918
sF0.16
I1399905
sF0.47999999999999998
I127210
sF0.83000000000000007
I1283
sF0.85999999999999999
I843
sF0.72999999999999998
I4849
sF0.88
I657
sF0.90000000000000002
I528
sF0.79000000000000004
I2106
sF0.050000000000000003
I1756810
sF0.32000000000000001
I594302
sF0.37
I395674
ssb.