(i__main__
variable
p1
(dp2
S'highbha'
p3
(dp4
F0
I708427
sF0.087999999999999995
I708427
sF0.78400000000000003
I708427
sF0.76000000000000001
I708427
sF0.12
I708427
sF0.40800000000000003
I708427
sF0.52800000000000002
I708427
sF0.47999999999999998
I708427
sF0.52000000000000002
I708427
sF0.056000000000000001
I708427
sF0.128
I708427
sF0.17599999999999999
I708427
sF0.28800000000000003
I708427
sF0.23200000000000001
I708427
sF0.63200000000000001
I708427
sF0.016
I708427
sF0.34400000000000003
I708427
sF0.312
I708427
sF0.74399999999999999
I708427
sF0.064000000000000001
I708427
sF0.20000000000000001
I708427
sF0.40000000000000002
I708427
sF0.80000000000000004
I708427
sF0.504
I708427
sF0.56000000000000005
I708427
sF0.192
I708427
sF0.45600000000000002
I708427
sF0.54400000000000004
I708427
sF0.61599999999999999
I708427
sF0.71999999999999997
I708427
sF0.16800000000000001
I708427
sF0.224
I708427
sF0.13600000000000001
I708427
sF0.25600000000000001
I708427
sF0.72799999999999998
I708427
sF0.39200000000000002
I708427
sF0.16
I708427
sF0.27200000000000002
I708427
sF0.44800000000000001
I708427
sF0.59999999999999998
I708427
sF0.496
I708427
sF0.048000000000000001
I708427
sF0.57600000000000007
I708427
sF0.65600000000000003
I708427
sF0.28000000000000003
I708427
sF0.71199999999999997
I708427
sF0.184
I708427
sF0.14400000000000002
I708427
sF0.024
I708427
sF0.096000000000000002
I708427
sF0.26400000000000001
I708427
sF0.44
I708427
sF0.30399999999999999
I708427
sF0.58399999999999996
I708427
sF0.32800000000000001
I708427
sF0.080000000000000002
I708427
sF0.248
I708427
sF0.41600000000000004
I708427
sF0.10400000000000001
I708427
sF0.69600000000000006
I708427
sF0.376
I708427
sF0.072000000000000008
I708427
sF0.79200000000000004
I708427
sF0.216
I708427
sF0.51200000000000001
I708427
sF0.432
I708427
sF0.46400000000000002
I708427
sF0.56800000000000006
I708427
sF0.76800000000000002
I708427
sF0.752
I708427
sF0.64000000000000001
I708427
sF0.624
I708427
sF0.48799999999999999
I708427
sF0.73599999999999999
I708427
sF0.68000000000000005
I708427
sF0.67200000000000004
I708427
sF0.36799999999999999
I708427
sF0.040000000000000001
I708427
sF0.112
I708427
sF0.42399999999999999
I708427
sF0.29599999999999999
I708427
sF0.55200000000000005
I708427
sF0.38400000000000001
I708427
sF0.60799999999999998
I708427
sF0.23999999999999999
I708427
sF0.33600000000000002
I708427
sF0.66400000000000003
I708427
sF0.35999999999999999
I708427
sF0.032000000000000001
I708427
sF0.77600000000000002
I708427
sF0.68800000000000006
I708427
sF0.70399999999999996
I708427
sF0.20800000000000002
I708427
sF0.53600000000000003
I708427
sF0.32000000000000001
I708427
sF0.59199999999999997
I708427
sF0.47200000000000003
I708427
sF0.35199999999999998
I708427
sF0.152
I708427
sF0.64800000000000002
I708427
sF0.0080000000000000002
I708427
ssS'x'
cNumeric
array_constructor
p5
((I101
tS'd'
S'\x00\x00\x00\x00\x00\x00\x00\x00\xfc\xa9\xf1\xd2Mb\x80?\xfc\xa9\xf1\xd2Mb\x90?\xfa~j\xbct\x93\x98?\xfc\xa9\xf1\xd2Mb\xa0?{\x14\xaeG\xe1z\xa4?\xfa~j\xbct\x93\xa8?y\xe9&1\x08\xac\xac?\xfc\xa9\xf1\xd2Mb\xb0?<\xdfO\x8d\x97n\xb2?{\x14\xaeG\xe1z\xb4?\xbaI\x0c\x02+\x87\xb6?\xfa~j\xbct\x93\xb8?:\xb4\xc8v\xbe\x9f\xba?y\xe9&1\x08\xac\xbc?\xb8\x1e\x85\xebQ\xb8\xbe?\xfc\xa9\xf1\xd2Mb\xc0?\x9c\xc4 \xb0rh\xc1?<\xdfO\x8d\x97n\xc2?\xdb\xf9~j\xbct\xc3?{\x14\xaeG\xe1z\xc4?\x1b/\xdd$\x06\x81\xc5?\xbaI\x0c\x02+\x87\xc6?Zd;\xdfO\x8d\xc7?\xfa~j\xbct\x93\xc8?\x9a\x99\x99\x99\x99\x99\xc9?:\xb4\xc8v\xbe\x9f\xca?\xd9\xce\xf7S\xe3\xa5\xcb?y\xe9&1\x08\xac\xcc?\x19\x04V\x0e-\xb2\xcd?\xb8\x1e\x85\xebQ\xb8\xce?X9\xb4\xc8v\xbe\xcf?\xfc\xa9\xf1\xd2Mb\xd0?L7\x89A`\xe5\xd0?\x9c\xc4 \xb0rh\xd1?\xecQ\xb8\x1e\x85\xeb\xd1?<\xdfO\x8d\x97n\xd2?\x8bl\xe7\xfb\xa9\xf1\xd2?\xdb\xf9~j\xbct\xd3?+\x87\x16\xd9\xce\xf7\xd3?{\x14\xaeG\xe1z\xd4?\xcb\xa1E\xb6\xf3\xfd\xd4?\x1b/\xdd$\x06\x81\xd5?k\xbct\x93\x18\x04\xd6?\xbaI\x0c\x02+\x87\xd6?\n\xd7\xa3p=\n\xd7?Zd;\xdfO\x8d\xd7?\xaa\xf1\xd2Mb\x10\xd8?\xfa~j\xbct\x93\xd8?J\x0c\x02+\x87\x16\xd9?\x9a\x99\x99\x99\x99\x99\xd9?\xea&1\x08\xac\x1c\xda?:\xb4\xc8v\xbe\x9f\xda?\x89A`\xe5\xd0"\xdb?\xd9\xce\xf7S\xe3\xa5\xdb?)\\\x8f\xc2\xf5(\xdc?y\xe9&1\x08\xac\xdc?\xc9v\xbe\x9f\x1a/\xdd?\x19\x04V\x0e-\xb2\xdd?i\x91\xed|?5\xde?\xb8\x1e\x85\xebQ\xb8\xde?\x08\xac\x1cZd;\xdf?X9\xb4\xc8v\xbe\xdf?T\xe3\xa5\x9b\xc4 \xe0?\xfc\xa9\xf1\xd2Mb\xe0?\xa4p=\n\xd7\xa3\xe0?L7\x89A`\xe5\xe0?\xf4\xfd\xd4x\xe9&\xe1?\x9c\xc4 \xb0rh\xe1?D\x8bl\xe7\xfb\xa9\xe1?\xecQ\xb8\x1e\x85\xeb\xe1?\x94\x18\x04V\x0e-\xe2?<\xdfO\x8d\x97n\xe2?\xe3\xa5\x9b\xc4 \xb0\xe2?\x8bl\xe7\xfb\xa9\xf1\xe2?333333\xe3?\xdb\xf9~j\xbct\xe3?\x83\xc0\xca\xa1E\xb6\xe3?+\x87\x16\xd9\xce\xf7\xe3?\xd3Mb\x10X9\xe4?{\x14\xaeG\xe1z\xe4?#\xdb\xf9~j\xbc\xe4?\xcb\xa1E\xb6\xf3\xfd\xe4?sh\x91\xed|?\xe5?\x1b/\xdd$\x06\x81\xe5?\xc3\xf5(\\\x8f\xc2\xe5?k\xbct\x93\x18\x04\xe6?\x13\x83\xc0\xca\xa1E\xe6?\xbaI\x0c\x02+\x87\xe6?b\x10X9\xb4\xc8\xe6?\n\xd7\xa3p=\n\xe7?\xb2\x9d\xef\xa7\xc6K\xe7?Zd;\xdfO\x8d\xe7?\x02+\x87\x16\xd9\xce\xe7?\xaa\xf1\xd2Mb\x10\xe8?R\xb8\x1e\x85\xebQ\xe8?\xfa~j\xbct\x93\xe8?\xa2E\xb6\xf3\xfd\xd4\xe8?J\x0c\x02+\x87\x16\xe9?\xf2\xd2Mb\x10X\xe9?\x9a\x99\x99\x99\x99\x99\xe9?'
I01
tRp6
sS'lowbha'
p7
(dp8
F0
I1016678
sF0.087999999999999995
I1016678
sF0.78400000000000003
I1016678
sF0.76000000000000001
I1016678
sF0.12
I1016678
sF0.40800000000000003
I1016678
sF0.52800000000000002
I1016678
sF0.47999999999999998
I1016678
sF0.52000000000000002
I1016678
sF0.056000000000000001
I1016678
sF0.128
I1016678
sF0.17599999999999999
I1016678
sF0.28800000000000003
I1016678
sF0.23200000000000001
I1016678
sF0.63200000000000001
I1016678
sF0.016
I1016678
sF0.34400000000000003
I1016678
sF0.312
I1016678
sF0.74399999999999999
I1016678
sF0.064000000000000001
I1016678
sF0.20000000000000001
I1016678
sF0.40000000000000002
I1016678
sF0.80000000000000004
I1016678
sF0.504
I1016678
sF0.56000000000000005
I1016678
sF0.192
I1016678
sF0.45600000000000002
I1016678
sF0.54400000000000004
I1016678
sF0.61599999999999999
I1016678
sF0.71999999999999997
I1016678
sF0.16800000000000001
I1016678
sF0.224
I1016678
sF0.13600000000000001
I1016678
sF0.25600000000000001
I1016678
sF0.72799999999999998
I1016678
sF0.39200000000000002
I1016678
sF0.16
I1016678
sF0.27200000000000002
I1016678
sF0.44800000000000001
I1016678
sF0.59999999999999998
I1016678
sF0.496
I1016678
sF0.048000000000000001
I1016678
sF0.57600000000000007
I1016678
sF0.65600000000000003
I1016678
sF0.28000000000000003
I1016678
sF0.71199999999999997
I1016678
sF0.184
I1016678
sF0.14400000000000002
I1016678
sF0.024
I1016678
sF0.096000000000000002
I1016678
sF0.26400000000000001
I1016678
sF0.44
I1016678
sF0.30399999999999999
I1016678
sF0.58399999999999996
I1016678
sF0.32800000000000001
I1016678
sF0.080000000000000002
I1016678
sF0.248
I1016678
sF0.41600000000000004
I1016678
sF0.10400000000000001
I1016678
sF0.69600000000000006
I1016678
sF0.376
I1016678
sF0.072000000000000008
I1016678
sF0.79200000000000004
I1016678
sF0.216
I1016678
sF0.51200000000000001
I1016678
sF0.432
I1016678
sF0.46400000000000002
I1016678
sF0.56800000000000006
I1016678
sF0.76800000000000002
I1016678
sF0.752
I1016678
sF0.64000000000000001
I1016678
sF0.624
I1016678
sF0.48799999999999999
I1016678
sF0.73599999999999999
I1016678
sF0.68000000000000005
I1016678
sF0.67200000000000004
I1016678
sF0.36799999999999999
I1016678
sF0.040000000000000001
I1016678
sF0.112
I1016678
sF0.42399999999999999
I1016678
sF0.29599999999999999
I1016678
sF0.55200000000000005
I1016678
sF0.38400000000000001
I1016678
sF0.60799999999999998
I1016678
sF0.23999999999999999
I1016678
sF0.33600000000000002
I1016678
sF0.66400000000000003
I1016678
sF0.35999999999999999
I1016678
sF0.032000000000000001
I1016678
sF0.77600000000000002
I1016678
sF0.68800000000000006
I1016678
sF0.70399999999999996
I1016678
sF0.20800000000000002
I1016678
sF0.53600000000000003
I1016678
sF0.32000000000000001
I1016678
sF0.59199999999999997
I1016678
sF0.47200000000000003
I1016678
sF0.35199999999999998
I1016678
sF0.152
I1016678
sF0.64800000000000002
I1016678
sF0.0080000000000000002
I1016678
ssS'highhad'
p9
(dp10
F0
I0
sF0.087999999999999995
I7920
sF0.78400000000000003
I1355746
sF0.76000000000000001
I1342535
sF0.12
I30120
sF0.40800000000000003
I1014632
sF0.52800000000000002
I1183685
sF0.47999999999999998
I1131121
sF0.52000000000000002
I1175872
sF0.056000000000000001
I1122
sF0.128
I40729
sF0.17599999999999999
I165070
sF0.28800000000000003
I659766
sF0.23200000000000001
I410439
sF0.63200000000000001
I1266696
sF0.016
I1
sF0.34400000000000003
I855781
sF0.312
I750491
sF0.74399999999999999
I1333838
sF0.064000000000000001
I2167
sF0.20000000000000001
I262836
sF0.40000000000000002
I997938
sF0.80000000000000004
I1364661
sF0.504
I1159180
sF0.56000000000000005
I1212181
sF0.192
I228464
sF0.45600000000000002
I1098303
sF0.54400000000000004
I1198302
sF0.61599999999999999
I1255478
sF0.71999999999999997
I1320480
sF0.16800000000000001
I137059
sF0.224
I373020
sF0.13600000000000001
I53816
sF0.25600000000000001
I521779
sF0.72799999999999998
I1324895
sF0.39200000000000002
I980483
sF0.16
I111863
sF0.27200000000000002
I592957
sF0.44800000000000001
I1086233
sF0.59999999999999998
I1243756
sF0.496
I1150192
sF0.048000000000000001
I469
sF0.57600000000000007
I1225191
sF0.65600000000000003
I1282740
sF0.28000000000000003
I627189
sF0.71199999999999997
I1315958
sF0.184
I195648
sF0.14400000000000002
I70151
sF0.024
I13
sF0.096000000000000002
I11285
sF0.26400000000000001
I558093
sF0.44
I1073445
sF0.30399999999999999
I721276
sF0.58399999999999996
I1231359
sF0.32800000000000001
I805307
sF0.080000000000000002
I5435
sF0.248
I485090
sF0.41600000000000004
I1030415
sF0.10400000000000001
I15749
sF0.69600000000000006
I1306939
sF0.376
I943152
sF0.072000000000000008
I3574
sF0.79200000000000004
I1360220
sF0.216
I335711
sF0.51200000000000001
I1167701
sF0.432
I1059990
sF0.46400000000000002
I1109874
sF0.56800000000000006
I1218797
sF0.76800000000000002
I1347021
sF0.752
I1338200
sF0.64000000000000001
I1272161
sF0.624
I1261135
sF0.48799999999999999
I1140945
sF0.73599999999999999
I1329380
sF0.68000000000000005
I1297489
sF0.67200000000000004
I1292754
sF0.36799999999999999
I922688
sF0.040000000000000001
I166
sF0.112
I21925
sF0.42399999999999999
I1045402
sF0.29599999999999999
I691163
sF0.55200000000000005
I1205393
sF0.38400000000000001
I962245
sF0.60799999999999998
I1249615
sF0.23999999999999999
I447841
sF0.33600000000000002
I831096
sF0.66400000000000003
I1287820
sF0.35999999999999999
I901670
sF0.032000000000000001
I50
sF0.77600000000000002
I1351340
sF0.68800000000000006
I1302313
sF0.70399999999999996
I1311528
sF0.20800000000000002
I298713
sF0.53600000000000003
I1191178
sF0.32000000000000001
I778368
sF0.59199999999999997
I1237670
sF0.47200000000000003
I1120739
sF0.35199999999999998
I879197
sF0.152
I89526
sF0.64800000000000002
I1277461
sF0.0080000000000000002
I0
ssS'lowhad'
p11
(dp12
F0
I0
sF0.087999999999999995
I11085
sF0.78400000000000003
I1920594
sF0.76000000000000001
I1901794
sF0.12
I42350
sF0.40800000000000003
I1435824
sF0.52800000000000002
I1675091
sF0.47999999999999998
I1600359
sF0.52000000000000002
I1664050
sF0.056000000000000001
I1567
sF0.128
I57163
sF0.17599999999999999
I233891
sF0.28800000000000003
I932590
sF0.23200000000000001
I579739
sF0.63200000000000001
I1793782
sF0.016
I3
sF0.34400000000000003
I1209731
sF0.312
I1061296
sF0.74399999999999999
I1889209
sF0.064000000000000001
I3060
sF0.20000000000000001
I371242
sF0.40000000000000002
I1412103
sF0.80000000000000004
I1933235
sF0.504
I1640141
sF0.56000000000000005
I1715686
sF0.192
I322809
sF0.45600000000000002
I1553980
sF0.54400000000000004
I1696115
sF0.61599999999999999
I1777489
sF0.71999999999999997
I1870388
sF0.16800000000000001
I194187
sF0.224
I526581
sF0.13600000000000001
I75972
sF0.25600000000000001
I737768
sF0.72799999999999998
I1876696
sF0.39200000000000002
I1387216
sF0.16
I158160
sF0.27200000000000002
I838047
sF0.44800000000000001
I1536854
sF0.59999999999999998
I1760813
sF0.496
I1627662
sF0.048000000000000001
I658
sF0.57600000000000007
I1734309
sF0.65600000000000003
I1816660
sF0.28000000000000003
I885941
sF0.71199999999999997
I1864061
sF0.184
I277061
sF0.14400000000000002
I98893
sF0.024
I19
sF0.096000000000000002
I15841
sF0.26400000000000001
I788471
sF0.44
I1518901
sF0.30399999999999999
I1020163
sF0.58399999999999996
I1743397
sF0.32800000000000001
I1138459
sF0.080000000000000002
I7487
sF0.248
I685640
sF0.41600000000000004
I1458342
sF0.10400000000000001
I22286
sF0.69600000000000006
I1850958
sF0.376
I1333905
sF0.072000000000000008
I4933
sF0.79200000000000004
I1926789
sF0.216
I473925
sF0.51200000000000001
I1652452
sF0.432
I1499966
sF0.46400000000000002
I1570391
sF0.56800000000000006
I1725248
sF0.76800000000000002
I1907936
sF0.752
I1895498
sF0.64000000000000001
I1801489
sF0.624
I1785775
sF0.48799999999999999
I1614280
sF0.73599999999999999
I1882942
sF0.68000000000000005
I1837781
sF0.67200000000000004
I1830887
sF0.36799999999999999
I1305342
sF0.040000000000000001
I201
sF0.112
I30975
sF0.42399999999999999
I1479717
sF0.29599999999999999
I976955
sF0.55200000000000005
I1705967
sF0.38400000000000001
I1361236
sF0.60799999999999998
I1769274
sF0.23999999999999999
I633009
sF0.33600000000000002
I1174944
sF0.66400000000000003
I1823806
sF0.35999999999999999
I1274755
sF0.032000000000000001
I68
sF0.77600000000000002
I1914319
sF0.68800000000000006
I1844360
sF0.70399999999999996
I1857540
sF0.20800000000000002
I421853
sF0.53600000000000003
I1685819
sF0.32000000000000001
I1100593
sF0.59199999999999997
I1752165
sF0.47200000000000003
I1585839
sF0.35199999999999998
I1243310
sF0.152
I126116
sF0.64800000000000002
I1809248
sF0.0080000000000000002
I0
ssb.