(i__main__
variable
p1
(dp2
S'highbha'
p3
(dp4
F0
I689636
sF0.0011000000000000001
I689636
sF0.0001
I689636
sF0.00030000000000000003
I689636
sF0.00108
I689636
sF0.00058
I689636
sF0.0012200000000000002
I689636
sF0.00040000000000000002
I689636
sF0.0016000000000000001
I689636
sF0.00016000000000000001
I689636
sF0.00134
I689636
sF0.00082000000000000009
I689636
sF0.00028000000000000003
I689636
sF0.00142
I689636
sF0.0007000000000000001
I689636
sF0.00014000000000000001
I689636
sF0.00026000000000000003
I689636
sF0.0014600000000000001
I689636
sF0.00036000000000000002
I689636
sF0.0017600000000000001
I689636
sF0.0015200000000000001
I689636
sF0.00158
I689636
sF0.0016800000000000001
I689636
sF0.0016400000000000002
I689636
sF0.00116
I689636
sF0.0017000000000000001
I689636
sF0.00088000000000000003
I689636
sF0.0018200000000000002
I689636
sF0.0017200000000000002
I689636
sF0.00094000000000000008
I689636
sF0.0012000000000000001
I689636
sF0.0019400000000000001
I689636
sF0.00044000000000000002
I689636
sF0.0010200000000000001
I689636
sF0.00054000000000000001
I689636
sF2.0000000000000002e-05
I689636
sF0.0011400000000000002
I689636
sF0.00060000000000000006
I689636
sF0.0018000000000000002
I689636
sF0.0012600000000000001
I689636
sF8.0000000000000007e-05
I689636
sF0.0013200000000000002
I689636
sF0.0013800000000000002
I689636
sF0.00048000000000000007
I689636
sF0.00012000000000000002
I689636
sF0.00072000000000000005
I689636
sF0.0015
I689636
sF0.00092000000000000003
I689636
sF0.0006600000000000001
I689636
sF0.0015600000000000002
I689636
sF0.0018400000000000001
I689636
sF0.00096000000000000013
I689636
sF0.0016200000000000001
I689636
sF0.00022000000000000001
I689636
sF0.00042000000000000002
I689636
sF0.0017400000000000002
I689636
sF0.0018800000000000002
I689636
sF0.00068000000000000005
I689636
sF0.00090000000000000008
I689636
sF0.0018600000000000001
I689636
sF0.00084000000000000003
I689636
sF0.00024000000000000003
I689636
sF6.0000000000000008e-05
I689636
sF0.0014000000000000002
I689636
sF0.001
I689636
sF0.00064000000000000005
I689636
sF0.0010600000000000002
I689636
sF0.00020000000000000001
I689636
sF0.00056000000000000006
I689636
sF0.0011200000000000001
I689636
sF0.0011800000000000001
I689636
sF0.0014400000000000001
I689636
sF0.00124
I689636
sF0.0012800000000000001
I689636
sF0.0013000000000000002
I689636
sF4.0000000000000003e-05
I689636
sF0.00038000000000000002
I689636
sF0.00034000000000000002
I689636
sF0.00018000000000000001
I689636
sF0.0014800000000000002
I689636
sF0.0007400000000000001
I689636
sF0.00198
I689636
sF0.0015400000000000001
I689636
sF0.00080000000000000004
I689636
sF0.0019200000000000003
I689636
sF0.0019600000000000004
I689636
sF0.0016600000000000002
I689636
sF0.0013600000000000001
I689636
sF0.00076000000000000004
I689636
sF0.00086000000000000009
I689636
sF0.00050000000000000001
I689636
sF0.0017800000000000001
I689636
sF0.00046000000000000001
I689636
sF0.0019000000000000002
I689636
sF0.00032000000000000003
I689636
sF0.00078000000000000009
I689636
sF0.00052000000000000006
I689636
sF0.00062
I689636
sF0.00098000000000000019
I689636
sF0.0010400000000000001
I689636
ssS'x'
cNumeric
array_constructor
p5
((I100
tS'd'
S'\x00\x00\x00\x00\x00\x00\x00\x00\xf1h\xe3\x88\xb5\xf8\xf4>\xf1h\xe3\x88\xb5\xf8\x04?j\x1dUM\x10u\x0f?\xf1h\xe3\x88\xb5\xf8\x14?-C\x1c\xeb\xe26\x1a?j\x1dUM\x10u\x1f?\xd3\xfb\xc6\xd7\x9eY"?\xf1h\xe3\x88\xb5\xf8$?\x0f\xd6\xff9\xcc\x97\'?-C\x1c\xeb\xe26*?K\xb08\x9c\xf9\xd5,?j\x1dUM\x10u/?D\xc58\x7f\x13\n1?\xd3\xfb\xc6\xd7\x9eY2?b2U0*\xa93?\xf1h\xe3\x88\xb5\xf84?\x80\x9fq\xe1@H6?\x0f\xd6\xff9\xcc\x977?\x9e\x0c\x8e\x92W\xe78?-C\x1c\xeb\xe26:?\xbcy\xaaCn\x86;?K\xb08\x9c\xf9\xd5<?\xda\xe6\xc6\xf4\x84%>?j\x1dUM\x10u??\xfc\xa9\xf1\xd2Mb@?D\xc58\x7f\x13\nA?\x8b\xe0\x7f+\xd9\xb1A?\xd3\xfb\xc6\xd7\x9eYB?\x1a\x17\x0e\x84d\x01C?b2U0*\xa9C?\xa9M\x9c\xdc\xefPD?\xf1h\xe3\x88\xb5\xf8D?9\x84*5{\xa0E?\x80\x9fq\xe1@HF?\xc8\xba\xb8\x8d\x06\xf0F?\x0f\xd6\xff9\xcc\x97G?W\xf1F\xe6\x91?H?\x9e\x0c\x8e\x92W\xe7H?\xe6\'\xd5>\x1d\x8fI?-C\x1c\xeb\xe26J?u^c\x97\xa8\xdeJ?\xbcy\xaaCn\x86K?\x04\x95\xf1\xef3.L?K\xb08\x9c\xf9\xd5L?\x93\xcb\x7fH\xbf}M?\xda\xe6\xc6\xf4\x84%N?"\x02\x0e\xa1J\xcdN?j\x1dUM\x10uO?Y\x1c\xce\xfcj\x0eP?\xfc\xa9\xf1\xd2MbP?\xa07\x15\xa90\xb6P?D\xc58\x7f\x13\nQ?\xe8R\\U\xf6]Q?\x8b\xe0\x7f+\xd9\xb1Q?/n\xa3\x01\xbc\x05R?\xd3\xfb\xc6\xd7\x9eYR?w\x89\xea\xad\x81\xadR?\x1a\x17\x0e\x84d\x01S?\xbe\xa41ZGUS?b2U0*\xa9S?\x06\xc0x\x06\r\xfdS?\xa9M\x9c\xdc\xefPT?M\xdb\xbf\xb2\xd2\xa4T?\xf1h\xe3\x88\xb5\xf8T?\x95\xf6\x06_\x98LU?9\x84*5{\xa0U?\xdc\x11N\x0b^\xf4U?\x80\x9fq\xe1@HV?$-\x95\xb7#\x9cV?\xc8\xba\xb8\x8d\x06\xf0V?kH\xdcc\xe9CW?\x0f\xd6\xff9\xcc\x97W?\xb3c#\x10\xaf\xebW?W\xf1F\xe6\x91?X?\xfa~j\xbct\x93X?\x9e\x0c\x8e\x92W\xe7X?B\x9a\xb1h:;Y?\xe6\'\xd5>\x1d\x8fY?\x89\xb5\xf8\x14\x00\xe3Y?-C\x1c\xeb\xe26Z?\xd1\xd0?\xc1\xc5\x8aZ?u^c\x97\xa8\xdeZ?\x19\xec\x86m\x8b2[?\xbcy\xaaCn\x86[?`\x07\xce\x19Q\xda[?\x04\x95\xf1\xef3.\\?\xa8"\x15\xc6\x16\x82\\?K\xb08\x9c\xf9\xd5\\?\xef=\\r\xdc)]?\x93\xcb\x7fH\xbf}]?7Y\xa3\x1e\xa2\xd1]?\xda\xe6\xc6\xf4\x84%^?~t\xea\xcagy^?"\x02\x0e\xa1J\xcd^?\xc6\x8f1w-!_?j\x1dUM\x10u_?\r\xabx#\xf3\xc8_?Y\x1c\xce\xfcj\x0e`?*\xe3\xdfg\\8`?'
I01
tRp6
sS'lowbha'
p7
(dp8
F0
I997646
sF0.0011000000000000001
I997646
sF0.0001
I997646
sF0.00030000000000000003
I997646
sF0.00108
I997646
sF0.00058
I997646
sF0.0012200000000000002
I997646
sF0.00040000000000000002
I997646
sF0.0016000000000000001
I997646
sF0.00016000000000000001
I997646
sF0.00134
I997646
sF0.00082000000000000009
I997646
sF0.00028000000000000003
I997646
sF0.00142
I997646
sF0.0007000000000000001
I997646
sF0.00014000000000000001
I997646
sF0.00026000000000000003
I997646
sF0.0014600000000000001
I997646
sF0.00036000000000000002
I997646
sF0.0017600000000000001
I997646
sF0.0015200000000000001
I997646
sF0.00158
I997646
sF0.0016800000000000001
I997646
sF0.0016400000000000002
I997646
sF0.00116
I997646
sF0.0017000000000000001
I997646
sF0.00088000000000000003
I997646
sF0.0018200000000000002
I997646
sF0.0017200000000000002
I997646
sF0.00094000000000000008
I997646
sF0.0012000000000000001
I997646
sF0.0019400000000000001
I997646
sF0.00044000000000000002
I997646
sF0.0010200000000000001
I997646
sF0.00054000000000000001
I997646
sF2.0000000000000002e-05
I997646
sF0.0011400000000000002
I997646
sF0.00060000000000000006
I997646
sF0.0018000000000000002
I997646
sF0.0012600000000000001
I997646
sF8.0000000000000007e-05
I997646
sF0.0013200000000000002
I997646
sF0.0013800000000000002
I997646
sF0.00048000000000000007
I997646
sF0.00012000000000000002
I997646
sF0.00072000000000000005
I997646
sF0.0015
I997646
sF0.00092000000000000003
I997646
sF0.0006600000000000001
I997646
sF0.0015600000000000002
I997646
sF0.0018400000000000001
I997646
sF0.00096000000000000013
I997646
sF0.0016200000000000001
I997646
sF0.00022000000000000001
I997646
sF0.00042000000000000002
I997646
sF0.0017400000000000002
I997646
sF0.0018800000000000002
I997646
sF0.00068000000000000005
I997646
sF0.00090000000000000008
I997646
sF0.0018600000000000001
I997646
sF0.00084000000000000003
I997646
sF0.00024000000000000003
I997646
sF6.0000000000000008e-05
I997646
sF0.0014000000000000002
I997646
sF0.001
I997646
sF0.00064000000000000005
I997646
sF0.0010600000000000002
I997646
sF0.00020000000000000001
I997646
sF0.00056000000000000006
I997646
sF0.0011200000000000001
I997646
sF0.0011800000000000001
I997646
sF0.0014400000000000001
I997646
sF0.00124
I997646
sF0.0012800000000000001
I997646
sF0.0013000000000000002
I997646
sF4.0000000000000003e-05
I997646
sF0.00038000000000000002
I997646
sF0.00034000000000000002
I997646
sF0.00018000000000000001
I997646
sF0.0014800000000000002
I997646
sF0.0007400000000000001
I997646
sF0.00198
I997646
sF0.0015400000000000001
I997646
sF0.00080000000000000004
I997646
sF0.0019200000000000003
I997646
sF0.0019600000000000004
I997646
sF0.0016600000000000002
I997646
sF0.0013600000000000001
I997646
sF0.00076000000000000004
I997646
sF0.00086000000000000009
I997646
sF0.00050000000000000001
I997646
sF0.0017800000000000001
I997646
sF0.00046000000000000001
I997646
sF0.0019000000000000002
I997646
sF0.00032000000000000003
I997646
sF0.00078000000000000009
I997646
sF0.00052000000000000006
I997646
sF0.00062
I997646
sF0.00098000000000000019
I997646
sF0.0010400000000000001
I997646
ssS'highhad'
p9
(dp10
F0
I0
sF0.0011000000000000001
I1323572
sF0.0001
I919888
sF0.00030000000000000003
I1255123
sF0.00108
I1323449
sF0.00058
I1313314
sF0.0012200000000000002
I1324148
sF0.00040000000000000002
I1290739
sF0.0016000000000000001
I1325357
sF0.00016000000000000001
I1101282
sF0.00134
I1324619
sF0.00082000000000000009
I1321047
sF0.00028000000000000003
I1243792
sF0.00142
I1324871
sF0.0007000000000000001
I1318547
sF0.00014000000000000001
I1054725
sF0.00026000000000000003
I1229827
sF0.0014600000000000001
I1325003
sF0.00036000000000000002
I1279821
sF0.0017600000000000001
I1325709
sF0.0015200000000000001
I1325163
sF0.00158
I1325309
sF0.0016800000000000001
I1325543
sF0.0016400000000000002
I1325446
sF0.00116
I1323882
sF0.0017000000000000001
I1325591
sF0.00088000000000000003
I1321832
sF0.0018200000000000002
I1325838
sF0.0017200000000000002
I1325636
sF0.00094000000000000008
I1322465
sF0.0012000000000000001
I1324068
sF0.0019400000000000001
I1326084
sF0.00044000000000000002
I1298622
sF0.0010200000000000001
I1323084
sF0.00054000000000000001
I1310431
sF2.0000000000000002e-05
I299115
sF0.0011400000000000002
I1323776
sF0.00060000000000000006
I1314493
sF0.0018000000000000002
I1325797
sF0.0012600000000000001
I1324307
sF8.0000000000000007e-05
I821628
sF0.0013200000000000002
I1324542
sF0.0013800000000000002
I1324751
sF0.00048000000000000007
I1304406
sF0.00012000000000000002
I995665
sF0.00072000000000000005
I1319059
sF0.0015
I1325105
sF0.00092000000000000003
I1322258
sF0.0006600000000000001
I1317207
sF0.0015600000000000002
I1325261
sF0.0018400000000000001
I1325888
sF0.00096000000000000013
I1322631
sF0.0016200000000000001
I1325405
sF0.00022000000000000001
I1192915
sF0.00042000000000000002
I1294956
sF0.0017400000000000002
I1325674
sF0.0018800000000000002
I1325966
sF0.00068000000000000005
I1317927
sF0.00090000000000000008
I1322048
sF0.0018600000000000001
I1325930
sF0.00084000000000000003
I1321317
sF0.00024000000000000003
I1213032
sF6.0000000000000008e-05
I693597
sF0.0014000000000000002
I1324814
sF0.001
I1322935
sF0.00064000000000000005
I1316441
sF0.0010600000000000002
I1323334
sF0.00020000000000000001
I1168667
sF0.00056000000000000006
I1312021
sF0.0011200000000000001
I1323666
sF0.0011800000000000001
I1323984
sF0.0014400000000000001
I1324933
sF0.00124
I1324225
sF0.0012800000000000001
I1324392
sF0.0013000000000000002
I1324468
sF4.0000000000000003e-05
I524555
sF0.00038000000000000002
I1285642
sF0.00034000000000000002
I1272873
sF0.00018000000000000001
I1138597
sF0.0014800000000000002
I1325056
sF0.0007400000000000001
I1319519
sF0.00198
I1326154
sF0.0015400000000000001
I1325217
sF0.00080000000000000004
I1320730
sF0.0019200000000000003
I1326039
sF0.0019600000000000004
I1326113
sF0.0016600000000000002
I1325495
sF0.0013600000000000001
I1324684
sF0.00076000000000000004
I1319978
sF0.00086000000000000009
I1321595
sF0.00050000000000000001
I1306651
sF0.0017800000000000001
I1325743
sF0.00046000000000000001
I1301758
sF0.0019000000000000002
I1326005
sF0.00032000000000000003
I1264724
sF0.00078000000000000009
I1320374
sF0.00052000000000000006
I1308693
sF0.00062
I1315541
sF0.00098000000000000019
I1322808
sF0.0010400000000000001
I1323221
ssS'lowhad'
p11
(dp12
F0
I0
sF0.0011000000000000001
I1890198
sF0.0001
I1329758
sF0.00030000000000000003
I1799031
sF0.00108
I1890004
sF0.00058
I1876793
sF0.0012200000000000002
I1891037
sF0.00040000000000000002
I1846789
sF0.0016000000000000001
I1892793
sF0.00016000000000000001
I1586258
sF0.00134
I1891710
sF0.00082000000000000009
I1886752
sF0.00028000000000000003
I1783304
sF0.00142
I1892086
sF0.0007000000000000001
I1883435
sF0.00014000000000000001
I1521203
sF0.00026000000000000003
I1764424
sF0.0014600000000000001
I1892261
sF0.00036000000000000002
I1832332
sF0.0017600000000000001
I1893309
sF0.0015200000000000001
I1892509
sF0.00158
I1892724
sF0.0016800000000000001
I1893054
sF0.0016400000000000002
I1892926
sF0.00116
I1890639
sF0.0017000000000000001
I1893125
sF0.00088000000000000003
I1887771
sF0.0018200000000000002
I1893482
sF0.0017200000000000002
I1893191
sF0.00094000000000000008
I1888645
sF0.0012000000000000001
I1890891
sF0.0019400000000000001
I1893786
sF0.00044000000000000002
I1857356
sF0.0010200000000000001
I1889490
sF0.00054000000000000001
I1873058
sF2.0000000000000002e-05
I437697
sF0.0011400000000000002
I1890489
sF0.00060000000000000006
I1878296
sF0.0018000000000000002
I1893426
sF0.0012600000000000001
I1891290
sF8.0000000000000007e-05
I1190398
sF0.0013200000000000002
I1891602
sF0.0013800000000000002
I1891894
sF0.00048000000000000007
I1865061
sF0.00012000000000000002
I1437203
sF0.00072000000000000005
I1884214
sF0.0015
I1892431
sF0.00092000000000000003
I1888363
sF0.0006600000000000001
I1881721
sF0.0015600000000000002
I1892651
sF0.0018400000000000001
I1893533
sF0.00096000000000000013
I1888881
sF0.0016200000000000001
I1892867
sF0.00022000000000000001
I1713841
sF0.00042000000000000002
I1852463
sF0.0017400000000000002
I1893258
sF0.0018800000000000002
I1893642
sF0.00068000000000000005
I1882598
sF0.00090000000000000008
I1888097
sF0.0018600000000000001
I1893594
sF0.00084000000000000003
I1887142
sF0.00024000000000000003
I1741608
sF6.0000000000000008e-05
I1006908
sF0.0014000000000000002
I1891999
sF0.001
I1889294
sF0.00064000000000000005
I1880719
sF0.0010600000000000002
I1889822
sF0.00020000000000000001
I1680084
sF0.00056000000000000006
I1875090
sF0.0011200000000000001
I1890351
sF0.0011800000000000001
I1890768
sF0.0014400000000000001
I1892185
sF0.00124
I1891176
sF0.0012800000000000001
I1891386
sF0.0013000000000000002
I1891491
sF4.0000000000000003e-05
I763644
sF0.00038000000000000002
I1840033
sF0.00034000000000000002
I1823150
sF0.00018000000000000001
I1638455
sF0.0014800000000000002
I1892357
sF0.0007400000000000001
I1884821
sF0.00198
I1893861
sF0.0015400000000000001
I1892575
sF0.00080000000000000004
I1886330
sF0.0019200000000000003
I1893737
sF0.0019600000000000004
I1893820
sF0.0016600000000000002
I1892985
sF0.0013600000000000001
I1891803
sF0.00076000000000000004
I1885400
sF0.00086000000000000009
I1887450
sF0.00050000000000000001
I1868117
sF0.0017800000000000001
I1893363
sF0.00046000000000000001
I1861572
sF0.0019000000000000002
I1893691
sF0.00032000000000000003
I1812268
sF0.00078000000000000009
I1885875
sF0.00052000000000000006
I1870717
sF0.00062
I1879629
sF0.00098000000000000019
I1889089
sF0.0010400000000000001
I1889659
ssb.