(i__main__
variable
p1
(dp2
S'highbha'
p3
(dp4
F0
I689636
sF0.85199999999999998
I689636
sF0.88800000000000001
I689636
sF1.02
I689636
sF0.059999999999999998
I689636
sF0.61199999999999999
I689636
sF0.372
I689636
sF0.20400000000000001
I689636
sF0.13200000000000001
I689636
sF0.23999999999999999
I689636
sF1.1040000000000001
I689636
sF0.14400000000000002
I689636
sF0.78000000000000003
I689636
sF0.98399999999999999
I689636
sF0.156
I689636
sF0.41999999999999998
I689636
sF0.312
I689636
sF0.74399999999999999
I689636
sF1.032
I689636
sF0.94800000000000006
I689636
sF1.008
I689636
sF0.95999999999999996
I689636
sF0.70799999999999996
I689636
sF0.072000000000000008
I689636
sF0.024
I689636
sF0.91200000000000003
I689636
sF0.46800000000000003
I689636
sF0.71999999999999997
I689636
sF1.1400000000000001
I689636
sF0.084000000000000005
I689636
sF0.504
I689636
sF0.012
I689636
sF0.876
I689636
sF1.0680000000000001
I689636
sF0.22800000000000001
I689636
sF0.63600000000000001
I689636
sF1.056
I689636
sF0.83999999999999997
I689636
sF0.252
I689636
sF0.81600000000000006
I689636
sF0.29999999999999999
I689636
sF0.59999999999999998
I689636
sF0.80400000000000005
I689636
sF0.57600000000000007
I689636
sF0.16800000000000001
I689636
sF0.56400000000000006
I689636
sF0.036000000000000004
I689636
sF0.38400000000000001
I689636
sF0.45600000000000002
I689636
sF1.1520000000000001
I689636
sF0.97199999999999998
I689636
sF0.34800000000000003
I689636
sF0.52800000000000002
I689636
sF1.1759999999999999
I689636
sF0.73199999999999998
I689636
sF0.17999999999999999
I689636
sF0.93600000000000005
I689636
sF0.192
I689636
sF1.1639999999999999
I689636
sF1.1879999999999999
I689636
sF0.69600000000000006
I689636
sF0.90000000000000002
I689636
sF0.79200000000000004
I689636
sF0.28800000000000003
I689636
sF0.216
I689636
sF1.1160000000000001
I689636
sF0.66000000000000003
I689636
sF0.86399999999999999
I689636
sF1.0800000000000001
I689636
sF0.76800000000000002
I689636
sF1.044
I689636
sF0.624
I689636
sF0.44400000000000001
I689636
sF0.82800000000000007
I689636
sF0.096000000000000002
I689636
sF0.33600000000000002
I689636
sF1.1280000000000001
I689636
sF0.432
I689636
sF0.58799999999999997
I689636
sF0.26400000000000001
I689636
sF0.39600000000000002
I689636
sF0.996
I689636
sF0.27600000000000002
I689636
sF0.49199999999999999
I689636
sF0.75600000000000001
I689636
sF0.048000000000000001
I689636
sF0.12
I689636
sF0.55200000000000005
I689636
sF0.67200000000000004
I689636
sF0.51600000000000001
I689636
sF0.35999999999999999
I689636
sF0.54000000000000004
I689636
sF0.92400000000000004
I689636
sF0.47999999999999998
I689636
sF0.108
I689636
sF0.68400000000000005
I689636
sF0.64800000000000002
I689636
sF0.40800000000000003
I689636
sF1.0920000000000001
I689636
sF0.32400000000000001
I689636
ssS'x'
cNumeric
array_constructor
p5
((I100
tS'd'
S'\x00\x00\x00\x00\x00\x00\x00\x00\xfa~j\xbct\x93\x88?\xfa~j\xbct\x93\x98?<\xdfO\x8d\x97n\xa2?\xfa~j\xbct\x93\xa8?\xb8\x1e\x85\xebQ\xb8\xae?<\xdfO\x8d\x97n\xb2?\x1b/\xdd$\x06\x81\xb5?\xfa~j\xbct\x93\xb8?\xd9\xce\xf7S\xe3\xa5\xbb?\xb8\x1e\x85\xebQ\xb8\xbe?L7\x89A`\xe5\xc0?<\xdfO\x8d\x97n\xc2?+\x87\x16\xd9\xce\xf7\xc3?\x1b/\xdd$\x06\x81\xc5?\n\xd7\xa3p=\n\xc7?\xfa~j\xbct\x93\xc8?\xea&1\x08\xac\x1c\xca?\xd9\xce\xf7S\xe3\xa5\xcb?\xc9v\xbe\x9f\x1a/\xcd?\xb8\x1e\x85\xebQ\xb8\xce?T\xe3\xa5\x9b\xc4 \xd0?L7\x89A`\xe5\xd0?D\x8bl\xe7\xfb\xa9\xd1?<\xdfO\x8d\x97n\xd2?333333\xd3?+\x87\x16\xd9\xce\xf7\xd3?#\xdb\xf9~j\xbc\xd4?\x1b/\xdd$\x06\x81\xd5?\x13\x83\xc0\xca\xa1E\xd6?\n\xd7\xa3p=\n\xd7?\x02+\x87\x16\xd9\xce\xd7?\xfa~j\xbct\x93\xd8?\xf2\xd2Mb\x10X\xd9?\xea&1\x08\xac\x1c\xda?\xe1z\x14\xaeG\xe1\xda?\xd9\xce\xf7S\xe3\xa5\xdb?\xd1"\xdb\xf9~j\xdc?\xc9v\xbe\x9f\x1a/\xdd?\xc1\xca\xa1E\xb6\xf3\xdd?\xb8\x1e\x85\xebQ\xb8\xde?\xb0rh\x91\xed|\xdf?T\xe3\xa5\x9b\xc4 \xe0?P\x8d\x97n\x12\x83\xe0?L7\x89A`\xe5\xe0?H\xe1z\x14\xaeG\xe1?D\x8bl\xe7\xfb\xa9\xe1?@5^\xbaI\x0c\xe2?<\xdfO\x8d\x97n\xe2?7\x89A`\xe5\xd0\xe2?333333\xe3?/\xdd$\x06\x81\x95\xe3?+\x87\x16\xd9\xce\xf7\xe3?\'1\x08\xac\x1cZ\xe4?#\xdb\xf9~j\xbc\xe4?\x1f\x85\xebQ\xb8\x1e\xe5?\x1b/\xdd$\x06\x81\xe5?\x17\xd9\xce\xf7S\xe3\xe5?\x13\x83\xc0\xca\xa1E\xe6?\x0e-\xb2\x9d\xef\xa7\xe6?\n\xd7\xa3p=\n\xe7?\x06\x81\x95C\x8bl\xe7?\x02+\x87\x16\xd9\xce\xe7?\xfe\xd4x\xe9&1\xe8?\xfa~j\xbct\x93\xe8?\xf6(\\\x8f\xc2\xf5\xe8?\xf2\xd2Mb\x10X\xe9?\xee|?5^\xba\xe9?\xea&1\x08\xac\x1c\xea?\xe6\xd0"\xdb\xf9~\xea?\xe1z\x14\xaeG\xe1\xea?\xdd$\x06\x81\x95C\xeb?\xd9\xce\xf7S\xe3\xa5\xeb?\xd5x\xe9&1\x08\xec?\xd1"\xdb\xf9~j\xec?\xcd\xcc\xcc\xcc\xcc\xcc\xec?\xc9v\xbe\x9f\x1a/\xed?\xc5 \xb0rh\x91\xed?\xc1\xca\xa1E\xb6\xf3\xed?\xbdt\x93\x18\x04V\xee?\xb8\x1e\x85\xebQ\xb8\xee?\xb4\xc8v\xbe\x9f\x1a\xef?\xb0rh\x91\xed|\xef?\xac\x1cZd;\xdf\xef?T\xe3\xa5\x9b\xc4 \xf0?R\xb8\x1e\x85\xebQ\xf0?P\x8d\x97n\x12\x83\xf0?Nb\x10X9\xb4\xf0?L7\x89A`\xe5\xf0?J\x0c\x02+\x87\x16\xf1?H\xe1z\x14\xaeG\xf1?F\xb6\xf3\xfd\xd4x\xf1?D\x8bl\xe7\xfb\xa9\xf1?B`\xe5\xd0"\xdb\xf1?@5^\xbaI\x0c\xf2?>\n\xd7\xa3p=\xf2?<\xdfO\x8d\x97n\xf2?9\xb4\xc8v\xbe\x9f\xf2?7\x89A`\xe5\xd0\xf2?5^\xbaI\x0c\x02\xf3?'
I01
tRp6
sS'lowbha'
p7
(dp8
F0
I997646
sF0.85199999999999998
I997646
sF0.88800000000000001
I997646
sF1.02
I997646
sF0.059999999999999998
I997646
sF0.61199999999999999
I997646
sF0.372
I997646
sF0.20400000000000001
I997646
sF0.13200000000000001
I997646
sF0.23999999999999999
I997646
sF1.1040000000000001
I997646
sF0.14400000000000002
I997646
sF0.78000000000000003
I997646
sF0.98399999999999999
I997646
sF0.156
I997646
sF0.41999999999999998
I997646
sF0.312
I997646
sF0.74399999999999999
I997646
sF1.032
I997646
sF0.94800000000000006
I997646
sF1.008
I997646
sF0.95999999999999996
I997646
sF0.70799999999999996
I997646
sF0.072000000000000008
I997646
sF0.024
I997646
sF0.91200000000000003
I997646
sF0.46800000000000003
I997646
sF0.71999999999999997
I997646
sF1.1400000000000001
I997646
sF0.084000000000000005
I997646
sF0.504
I997646
sF0.012
I997646
sF0.876
I997646
sF1.0680000000000001
I997646
sF0.22800000000000001
I997646
sF0.63600000000000001
I997646
sF1.056
I997646
sF0.83999999999999997
I997646
sF0.252
I997646
sF0.81600000000000006
I997646
sF0.29999999999999999
I997646
sF0.59999999999999998
I997646
sF0.80400000000000005
I997646
sF0.57600000000000007
I997646
sF0.16800000000000001
I997646
sF0.56400000000000006
I997646
sF0.036000000000000004
I997646
sF0.38400000000000001
I997646
sF0.45600000000000002
I997646
sF1.1520000000000001
I997646
sF0.97199999999999998
I997646
sF0.34800000000000003
I997646
sF0.52800000000000002
I997646
sF1.1759999999999999
I997646
sF0.73199999999999998
I997646
sF0.17999999999999999
I997646
sF0.93600000000000005
I997646
sF0.192
I997646
sF1.1639999999999999
I997646
sF1.1879999999999999
I997646
sF0.69600000000000006
I997646
sF0.90000000000000002
I997646
sF0.79200000000000004
I997646
sF0.28800000000000003
I997646
sF0.216
I997646
sF1.1160000000000001
I997646
sF0.66000000000000003
I997646
sF0.86399999999999999
I997646
sF1.0800000000000001
I997646
sF0.76800000000000002
I997646
sF1.044
I997646
sF0.624
I997646
sF0.44400000000000001
I997646
sF0.82800000000000007
I997646
sF0.096000000000000002
I997646
sF0.33600000000000002
I997646
sF1.1280000000000001
I997646
sF0.432
I997646
sF0.58799999999999997
I997646
sF0.26400000000000001
I997646
sF0.39600000000000002
I997646
sF0.996
I997646
sF0.27600000000000002
I997646
sF0.49199999999999999
I997646
sF0.75600000000000001
I997646
sF0.048000000000000001
I997646
sF0.12
I997646
sF0.55200000000000005
I997646
sF0.67200000000000004
I997646
sF0.51600000000000001
I997646
sF0.35999999999999999
I997646
sF0.54000000000000004
I997646
sF0.92400000000000004
I997646
sF0.47999999999999998
I997646
sF0.108
I997646
sF0.68400000000000005
I997646
sF0.64800000000000002
I997646
sF0.40800000000000003
I997646
sF1.0920000000000001
I997646
sF0.32400000000000001
I997646
ssS'highhad'
p9
(dp10
F0
I0
sF0.85199999999999998
I1476146
sF0.88800000000000001
I1514812
sF1.02
I2763950
sF0.059999999999999998
I2196
sF0.61199999999999999
I1288117
sF0.372
I939713
sF0.20400000000000001
I285590
sF0.13200000000000001
I51240
sF0.23999999999999999
I452207
sF1.1040000000000001
I2783762
sF0.14400000000000002
I74951
sF0.78000000000000003
I1417048
sF0.98399999999999999
I1822855
sF0.156
I105326
sF0.41999999999999998
I1048571
sF0.312
I754663
sF0.74399999999999999
I1390936
sF1.032
I2777293
sF0.94800000000000006
I1624517
sF1.008
I2659423
sF0.95999999999999996
I1664592
sF0.70799999999999996
I1364853
sF0.072000000000000008
I4666
sF0.024
I13
sF0.91200000000000003
I1548219
sF0.46800000000000003
I1130653
sF0.71999999999999997
I1373539
sF1.1400000000000001
I2784265
sF0.084000000000000005
I8348
sF0.504
I1178852
sF0.012
I0
sF0.876
I1500492
sF1.0680000000000001
I2782754
sF0.22800000000000001
I396362
sF0.63600000000000001
I1308763
sF1.056
I2782062
sF0.83999999999999997
I1465130
sF0.252
I507764
sF0.81600000000000006
I1444918
sF0.29999999999999999
I710204
sF0.59999999999999998
I1277366
sF0.80400000000000005
I1435277
sF0.57600000000000007
I1255113
sF0.16800000000000001
I142314
sF0.56400000000000006
I1243731
sF0.036000000000000004
I93
sF0.38400000000000001
I969740
sF0.45600000000000002
I1112282
sF1.1520000000000001
I2784392
sF0.97199999999999998
I1721739
sF0.34800000000000003
I873018
sF0.52800000000000002
I1206556
sF1.1759999999999999
I2784566
sF0.73199999999999998
I1382212
sF0.17999999999999999
I185249
sF0.93600000000000005
I1593883
sF0.192
I233632
sF1.1639999999999999
I2784484
sF1.1879999999999999
I2784652
sF0.69600000000000006
I1356055
sF0.90000000000000002
I1530383
sF0.79200000000000004
I1426020
sF0.28800000000000003
I663762
sF0.216
I340486
sF1.1160000000000001
I2783958
sF0.66000000000000003
I1328496
sF0.86399999999999999
I1487879
sF1.0800000000000001
I2783197
sF0.76800000000000002
I1408314
sF1.044
I2780709
sF0.624
I1298592
sF0.44400000000000001
I1092614
sF0.82800000000000007
I1454794
sF0.096000000000000002
I13741
sF0.33600000000000002
I835885
sF1.1280000000000001
I2784144
sF0.432
I1071581
sF0.58799999999999997
I1266337
sF0.26400000000000001
I562141
sF0.39600000000000002
I997719
sF0.996
I2136418
sF0.27600000000000002
I614184
sF0.49199999999999999
I1163843
sF0.75600000000000001
I1399534
sF0.048000000000000001
I674
sF0.12
I33900
sF0.55200000000000005
I1231740
sF0.67200000000000004
I1337894
sF0.51600000000000001
I1193026
sF0.35999999999999999
I907622
sF0.54000000000000004
I1219316
sF0.92400000000000004
I1569109
sF0.47999999999999998
I1147807
sF0.108
I21720
sF0.68400000000000005
I1347069
sF0.64800000000000002
I1318660
sF0.40800000000000003
I1024058
sF1.0920000000000001
I2783506
sF0.32400000000000001
I796481
ssS'lowhad'
p11
(dp12
F0
I0
sF0.85199999999999998
I2105769
sF0.88800000000000001
I2160987
sF1.02
I3971476
sF0.059999999999999998
I3095
sF0.61199999999999999
I1835870
sF0.372
I1338515
sF0.20400000000000001
I406006
sF0.13200000000000001
I72598
sF0.23999999999999999
I642997
sF1.1040000000000001
I3999399
sF0.14400000000000002
I106250
sF0.78000000000000003
I2020912
sF0.98399999999999999
I2603473
sF0.156
I149627
sF0.41999999999999998
I1494292
sF0.312
I1074508
sF0.74399999999999999
I1983312
sF1.032
I3990418
sF0.94800000000000006
I2319761
sF1.008
I3815949
sF0.95999999999999996
I2377354
sF0.70799999999999996
I1945960
sF0.072000000000000008
I6494
sF0.024
I18
sF0.91200000000000003
I2209633
sF0.46800000000000003
I1611021
sF0.71999999999999997
I1958559
sF1.1400000000000001
I4000068
sF0.084000000000000005
I11611
sF0.504
I1679679
sF0.012
I0
sF0.876
I2140772
sF1.0680000000000001
I3998017
sF0.22800000000000001
I563222
sF0.63600000000000001
I1865740
sF1.056
I3997034
sF0.83999999999999997
I2089948
sF0.252
I722142
sF0.81600000000000006
I2060680
sF0.29999999999999999
I1011128
sF0.59999999999999998
I1820612
sF0.80400000000000005
I2046855
sF0.57600000000000007
I1788654
sF0.16800000000000001
I202768
sF0.56400000000000006
I1772265
sF0.036000000000000004
I123
sF0.38400000000000001
I1381457
sF0.45600000000000002
I1584708
sF1.1520000000000001
I4000226
sF0.97199999999999998
I2459698
sF0.34800000000000003
I1242950
sF0.52800000000000002
I1719317
sF1.1759999999999999
I4000490
sF0.73199999999999998
I1970945
sF0.17999999999999999
I264036
sF0.93600000000000005
I2275396
sF0.192
I332084
sF1.1639999999999999
I4000350
sF1.1879999999999999
I4000603
sF0.69600000000000006
I1933225
sF0.90000000000000002
I2183699
sF0.79200000000000004
I2033697
sF0.28800000000000003
I944322
sF0.216
I483589
sF1.1160000000000001
I3999683
sF0.66000000000000003
I1894054
sF0.86399999999999999
I2122401
sF1.0800000000000001
I3998622
sF0.76800000000000002
I2008146
sF1.044
I3995196
sF0.624
I1851052
sF0.44400000000000001
I1556876
sF0.82800000000000007
I2074929
sF0.096000000000000002
I19292
sF0.33600000000000002
I1190017
sF1.1280000000000001
I3999929
sF0.432
I1526801
sF0.58799999999999997
I1804757
sF0.26400000000000001
I799199
sF0.39600000000000002
I1421483
sF0.996
I3051609
sF0.27600000000000002
I873478
sF0.49199999999999999
I1658231
sF0.75600000000000001
I1995772
sF0.048000000000000001
I945
sF0.12
I47926
sF0.55200000000000005
I1755154
sF0.67200000000000004
I1907502
sF0.51600000000000001
I1700112
sF0.35999999999999999
I1292330
sF0.54000000000000004
I1737683
sF0.92400000000000004
I2239588
sF0.47999999999999998
I1635377
sF0.108
I30920
sF0.68400000000000005
I1920539
sF0.64800000000000002
I1880201
sF0.40800000000000003
I1459204
sF1.0920000000000001
I3999028
sF0.32400000000000001
I1133924
ssb.