(dp1
S'low_visen'
p2
(i__main__
hist
p3
(dp4
S'errors'
p5
(lp6
F0
aF1.2908533436815522e-06
aF2.3567649825511837e-06
aF2.2970903603973679e-06
aF3.6757223681335865e-05
aF4.7537182397521236e-05
aF6.1235085797518455e-05
aF7.5659130468031766e-05
aF8.6281420291667649e-05
aF8.7079197188556957e-05
aF8.4605893409175721e-05
aF8.0534490743811986e-05
aF7.7841061121443588e-05
aF7.5783829298873418e-05
aF7.2575352178404497e-05
aF6.8652284818622306e-05
aF6.3961316421127045e-05
aF6.1073871839190526e-05
aF5.8014248593138002e-05
aF5.5476665810851767e-05
aF5.2924987090943647e-05
aF5.1139627941605993e-05
aF4.933751132192176e-05
aF4.7758666300374466e-05
aF4.6107744336341123e-05
aF4.4837415081373981e-05
aF4.3870026440639281e-05
aF4.2552499640459555e-05
aF4.2270930419905576e-05
aF4.1192854130300702e-05
aF4.0423844152091255e-05
aF3.9953944185628325e-05
aF3.9206682114016878e-05
aF3.9765826217925588e-05
aF3.9404518493466116e-05
aF3.9555756992444467e-05
aF3.9467898154913134e-05
aF3.9846059116990279e-05
aF4.0193035877743579e-05
aF4.0629425292286638e-05
aF4.448608505471782e-05
aF4.5714558623003571e-05
aF4.7615985455435282e-05
aF4.9331882077642853e-05
aF4.9774630934523236e-05
aF5.0891937412750679e-05
aF5.2049302704246105e-05
aF5.3358741461875587e-05
aF5.5786175391609369e-05
aF5.7482845873829981e-05
aF5.9956397603794696e-05
aF6.3431575362356686e-05
aF6.7386583487700832e-05
aF7.4962170291556645e-05
aF8.5714670855029879e-05
aF9.2014998681056164e-05
aF9.3864656295653695e-05
aF9.2353918815518002e-05
aF9.0981507269303469e-05
aF8.9787797110941339e-05
aF8.9923787794113052e-05
aF8.9395671562279087e-05
aF8.9611320519745625e-05
aF9.0278250619099508e-05
aF9.1363787393259439e-05
aF9.3691412656554416e-05
aF9.4926737109240011e-05
aF9.602045952132692e-05
aF9.8218021597865437e-05
aF0.00010001961759907075
aF0.00010175249226497059
aF0.00010351001952452436
aF0.00010571476801854064
aF0.00010693066332573438
aF0.00010839069365143021
aF0.00010965417362286754
aF0.00011189422763312322
aF0.00011365253247542675
aF0.0001137709835275031
aF0.00011498863814804401
aF0.00011556081734843158
aF0.00011568451652373325
aF0.00011614093835881328
aF0.00011627118612241343
aF0.00011599019447096767
aF0.00011635714138191789
aF0.00011566891130101022
aF0.00011462942439258151
aF0.00011409761112603236
aF0.00011288387635969771
aF0.0001113880035485849
aF0.00011047547962520895
aF0.0001084764929060724
aF0.00010663677932080419
aF0.00010516560351915802
aF0.00010310947802380255
aF0.0001019229332119446
aF0.00010186706001010048
aF0.00010389698923482562
aF0.00011272261799320936
aF0.00011694756094895492
aF0.00010199102983833418
aF8.0310030392696113e-05
aF6.1994567355234059e-05
aF4.9822034027862903e-05
aF3.9835603120540768e-05
aF3.2969449032537446e-05
aF2.7413543405716885e-05
aF2.3157539619239973e-05
aF1.9298149556855809e-05
aF1.5897248938906578e-05
aF1.3922877119546228e-05
aF1.1912741801328765e-05
aF9.5296106080843871e-06
aF8.5787540280904492e-06
aF6.9714048333940879e-06
aF6.1682442480343989e-06
aF6.100334902770709e-06
aF5.0820946961715092e-06
aF4.654237919747977e-06
asS'fill_factor'
p7
F100
sS'overflow_error'
p8
F1.4951997612858424e-05
sS'high'
p9
F1.2
sS'underflow_error'
p10
F0
sS'values'
p11
(lp12
F0
aF3.1619320247853311e-06
aF1.0539773415951104e-05
aF1.0012784745153549e-05
aF0.0025637998834301058
aF0.0042881068142797069
aF0.00711540103310859
aF0.010862290482479208
aF0.014126458309399265
aF0.014388898667456447
aF0.013583132989806986
aF0.012307293417806104
aF0.01149783881946106
aF0.010898125712093441
aF0.0099948671303464326
aF0.00894352473210531
aF0.0077630701095187859
aF0.0070779848374819638
aF0.0063865757013955712
aF0.0058400884497785063
aF0.0053152077336641413
aF0.0049626523129005775
aF0.0046190556995405717
aF0.0043281579532603205
aF0.004034098274955285
aF0.0038148709879035022
aF0.0036520314886270577
aF0.0034359661336000598
aF0.00339064510791147
aF0.0032199007785730623
aF0.0031008013389728149
aF0.0030291308797443474
aF0.0029168822928644679
aF0.0030006734915212791
aF0.0029463936584291309
aF0.002969054171273426
aF0.0029558794545034872
aF0.0030127942309496232
aF0.0030654930980293787
aF0.003132420659220668
aF0.0037553212681033783
aF0.0039655897477516031
aF0.0043023355083912406
aF0.004618001722198976
aF0.0047012659321849903
aF0.0049146963438579999
aF0.0051407744836301505
aF0.0054026878530165356
aF0.0059054350449574038
aF0.0062701112051493117
aF0.0068213413548035545
aF0.0076350118625149793
aF0.0086167917562108252
aF0.010663088764917731
aF0.013941485285949323
aF0.016066303606605065
aF0.016718715581052441
aF0.016184876057534516
aF0.015707424321791931
aF0.015297954124582229
aF0.015344329127612414
aF0.015164625990870447
aF0.015237877416111309
aF0.015465536521895853
aF0.015839698478162117
aF0.016657057906569121
aF0.017099201401368277
aF0.017495496881808036
aF0.018305478468823876
aF0.018983185899469533
aF0.019646664636003654
aF0.020331222919369681
aF0.021206551101564417
aF0.021697177554076942
aF0.022293728729419773
aF0.02281650149085095
aF0.02375823024556618
aF0.02451077006746509
aF0.024561887968532453
aF0.025090457605342401
aF0.025340777223971239
aF0.025395057057063387
aF0.025595839740637255
aF0.025653281505754189
aF0.025529439168116765
aF0.025691224690051612
aF0.025388206204343018
aF0.024933941970115527
aF0.024703120932306196
aF0.024180348170875023
aF0.023543745856551578
aF0.023159571115540158
aF0.02232903697036321
aF0.021578078114476696
aF0.020986796825841838
aF0.020174180295472008
aF0.019712538219853349
aF0.019690931684350651
aF0.020483522645230172
aF0.024111312655000543
aF0.025952611070767202
aF0.019738887653393229
aF0.012238784890602422
aF0.0072929962151673661
aF0.0047102247395885482
aF0.0030112132649372306
aF0.0020626336575016312
aF0.0014260313431781844
aF0.0010176151233100791
aF0.00070669180753952154
aF0.00047955969042577521
aF0.00036783809221669353
aF0.00026929121077755069
aF0.00017232529535080054
aF0.00013965199776135213
aF9.2223017389572165e-05
aF7.2197447899265067e-05
aF7.0616481886872395e-05
aF4.9009946384172632e-05
aF4.1105116322209305e-05
asS'low'
p13
F0
sS'overflow'
p14
F0.00042422587999203191
sS'underflow'
p15
F0
sS'bins'
p16
I120
sbsS'low_p1'
p17
(i__main__
hist
p18
(dp19
g5
(lp20
F0
aF4.3774966683344495e-06
aF6.3238640495706622e-06
aF8.4153342228926579e-06
aF1.7738473102716242e-05
aF2.3970744572900256e-05
aF2.9084809818318816e-05
aF3.4653261949781346e-05
aF4.1347626487152604e-05
aF4.770921312267674e-05
aF5.6648218140259237e-05
aF6.5721635866311106e-05
aF7.6289687432739206e-05
aF8.682528186305473e-05
aF9.68985864332791e-05
aF0.00010656383321090484
aF0.00011462094449602356
aF0.00012107672230547761
aF0.00012613207145848403
aF0.00013083866876043148
aF0.00013430975979809363
aF0.00013611822551805086
aF0.00013712241163508661
aF0.00013710215691753049
aF0.00013660497821256791
aF0.00013555496751721004
aF0.00013312071793787785
aF0.00013114290693353443
aF0.00012880426777285201
aF0.00012549413926642158
aF0.00012313166696719386
aF0.00012020887663412969
aF0.0001173411013905485
aF0.00011449003220705471
aF0.00011193517249088917
aF0.0001080416745064129
aF0.00010575022712888556
aF0.00010235932537152314
aF9.9330025472591117e-05
aF9.6892854145860858e-05
aF9.4397190423518328e-05
aF9.1714198941625878e-05
aF8.8686102813000488e-05
aF8.5789158898470162e-05
aF8.3504011407311692e-05
aF8.1062095559662604e-05
aF7.9444306820687801e-05
aF7.6564036495710866e-05
aF7.4869493933530027e-05
aF7.2837002827703248e-05
aF7.1596797957532702e-05
aF6.9920891793930512e-05
aF6.8348216157738115e-05
aF6.7027075617640913e-05
aF6.5749096896557655e-05
aF6.4860296113945198e-05
aF6.4639408683065121e-05
aF6.29459234810199e-05
aF6.2921652832930052e-05
aF6.2367500594785155e-05
aF6.1513371968253947e-05
aF6.0914510810556783e-05
aF6.0704428651027888e-05
aF5.950306535877181e-05
aF5.9055658736422678e-05
aF5.8191099853873189e-05
aF5.7451433820101962e-05
aF5.6824433536332949e-05
aF5.6019664122372303e-05
aF5.6007269020080444e-05
aF5.5798619607649324e-05
aF5.5786175391609369e-05
aF5.5491681825691895e-05
aF5.5426583047360501e-05
aF5.5689015070448078e-05
aF5.5912976444113576e-05
aF5.5908009271675042e-05
aF5.7172806352176071e-05
aF5.7082871818041126e-05
aF5.7925620485566693e-05
aF5.8753919403064055e-05
aF6.0288978015403211e-05
aF6.163514948549095e-05
aF6.2696150242216452e-05
aF6.4337957432727505e-05
aF6.5630721368887808e-05
aF6.8642170897499275e-05
aF7.1188348030773129e-05
aF7.4514409100290385e-05
aF7.8540762141814059e-05
aF8.3252535367885029e-05
aF8.8196242038442952e-05
aF9.4885769958148004e-05
aF0.00010320101364988212
aF0.00011404648503212647
aF0.00012795302290665239
aF0.00014939454962784715
aF0.00018396886923419413
aF0.00026375295991379056
aF0.00043346379889505664
aF0.00041247629153467639
aF0.00020288174085064366
aF0.00010802367977125012
aF7.258874405328615e-05
aF5.3819967734325137e-05
aF4.1615424794816185e-05
aF3.4014250960658033e-05
aF2.8148299588998682e-05
aF2.379048899341098e-05
aF2.1046584267823926e-05
aF1.859456207175831e-05
aF1.6681501529157138e-05
aF1.5273582739001945e-05
aF1.3079514839464344e-05
aF1.234773928590925e-05
aF1.1363909208730634e-05
aF1.0353684601701172e-05
aF9.7314704525986277e-06
aF9.4711461875064848e-06
aF9.6310693983460292e-06
asg7
F100
sg8
F3.9842574089728883e-05
sg9
F1.2
sg10
F0
sg11
(lp21
F0
aF3.6362218285031308e-05
aF7.5886368594847947e-05
aF0.00013438211105337657
aF0.00059707816401363006
aF0.0010903395598801417
aF0.001605207491249353
aF0.0022786990125286287
aF0.0032441422574297496
aF0.0043191991458567626
aF0.0060893540910657504
aF0.0081962547969143765
aF0.011044101573904364
aF0.014305107468799635
aF0.017816959970994542
aF0.021548566748912031
aF0.024930253049419943
aF0.02781762397671975
aF0.030189072995308746
aF0.032484108656632101
aF0.034230549111655198
aF0.03515857616092969
aF0.035679240967677675
aF0.035668701194261729
aF0.035410476745570921
aF0.034868205403320238
aF0.033627147083591998
aF0.032635354405151001
aF0.031481776204775151
aF0.02988447354358776
aF0.02876989250485093
aF0.02742027451893839
aF0.026127571309471988
aF0.024873338272973809
aF0.023775620871702499
aF0.022150387810962839
aF0.021220779795675951
aF0.019881701583179364
aF0.018722326507424742
aF0.017814852016311354
aF0.016908958491210359
aF0.015961432861116353
aF0.014924846145657561
aF0.01396572676480601
aF0.013231631546385016
aF0.012469078939740953
aF0.011976344532545239
aF0.011123676863194796
aF0.010636739331377853
aF0.010067064578245697
aF0.0097271568855812739
aF0.0092771085607201622
aF0.0088644764314856767
aF0.0085250957274920509
aF0.008203105649634744
aF0.0079828243852413661
aF0.0079285445521492179
aF0.0075185473662687198
aF0.0075127504908899471
aF0.0073810033231905582
aF0.0071802206396166897
aF0.0070410956305261346
aF0.00699261267281276
aF0.0067185785639980308
aF0.0066179237278756985
aF0.0064255728630345909
aF0.0062632603524289433
aF0.0061272972753631744
aF0.0059549719800123741
aF0.0059523370366583858
aF0.0059080699883113912
aF0.0059054350449574038
aF0.0058432503818032916
aF0.0058295486763625557
aF0.0058848824867962987
aF0.0059323114671680785
aF0.0059312574898264837
aF0.0062026566552872246
aF0.0061831580744677152
aF0.0063670771205760618
aF0.0065504691780136114
aF0.0068972277233984025
aF0.0072086780278397579
aF0.0074589976464685959
aF0.0078547661382375594
aF0.008173594284070081
aF0.0089408897887513217
aF0.009616489264713788
aF0.010536084495255522
aF0.011705472355755297
aF0.013152056257094586
aF0.014760425680368724
aF0.017084445718585941
aF0.020210015525086243
aF0.024680987408132699
aF0.031067036120857473
aF0.042351444528645525
aF0.064222528344085664
aF0.13200591913675042
aF0.35653682017143995
aF0.32284696143602304
aF0.078106044876247255
aF0.022143009969571675
aF0.0099985560510420148
aF0.0054964918364185005
aF0.0032863013510935541
aF0.0021954348025426148
aF0.001503498677785425
aF0.0010740029110854175
aF0.00084054692992210054
aF0.00065610089514295624
aF0.00052804264813915026
aF0.00044267048346994636
aF0.000324625021211294
aF0.00028931678026785778
aF0.00024504973192086317
aF0.00020341762692785632
aF0.00017970313674196633
aF0.00017021734066761032
aF0.00017601421604638345
asg13
F0
sg14
F0.0030122672422788254
sg15
F0
sg16
I120
sbsS'high_visen'
p22
(i__main__
hist
p23
(dp24
g5
(lp25
F0
aF1.9911715759990779e-06
aF3.3656942587002129e-06
aF2.4960656669399079e-06
aF4.5092767300610861e-05
aF5.7221751734221685e-05
aF7.3152573030999218e-05
aF9.0970301578253572e-05
aF0.00010292092728417184
aF0.000103904056895371
aF0.00010025589137869211
aF9.533592625222258e-05
aF9.2185622316358478e-05
aF8.9482537907449738e-05
aF8.5636914140976611e-05
aF8.0717039368579489e-05
aF7.6119772376951006e-05
aF7.1337634569623368e-05
aF6.7929516311876018e-05
aF6.5211140538101769e-05
aF6.2646230594696058e-05
aF6.0207369231475508e-05
aF5.8475002898023955e-05
aF5.5991032568290939e-05
aF5.4597951586098621e-05
aF5.3354481798231862e-05
aF5.1534703349320868e-05
aF5.0820868825855855e-05
aF4.9813412074656873e-05
aF4.9212849529808495e-05
aF4.8000983544880374e-05
aF4.7341573571724072e-05
aF4.6781939498879184e-05
aF4.7281715697777285e-05
aF4.704152254805688e-05
aF4.660605552290788e-05
aF4.7556438095850379e-05
aF4.6721364645687176e-05
aF4.7341573571724072e-05
aF4.7657565165784948e-05
aF5.2552273919736327e-05
aF5.4301489929331446e-05
aF5.7182145048919635e-05
aF5.7340407645434122e-05
aF5.9000533956639074e-05
aF6.054041086016879e-05
aF6.2242598454131633e-05
aF6.3926044355015521e-05
aF6.606541484715153e-05
aF6.8021172248005116e-05
aF7.1658468391764174e-05
aF7.4931118808586671e-05
aF8.0196097164327503e-05
aF8.9155963998301794e-05
aF0.00010184214876510785
aF0.00010952736560233418
aF0.00011200735181752665
aF0.00011049528630324768
aF0.00010853516004956723
aF0.00010732290774485555
aF0.00010652302694432201
aF0.00010701372960713477
aF0.00010730179573368545
aF0.00010821374402196069
aF0.00010901420837276765
aF0.0001109990454417996
aF0.00011284867192463579
aF0.00011477708306352871
aF0.00011679735004481072
aF0.00011967871169405758
aF0.0001209146448993229
aF0.00012340904446224882
aF0.00012550023570086769
aF0.00012791409478434313
aF0.00012939332676774456
aF0.0001319721293822512
aF0.00013338301974913583
aF0.0001340818416930818
aF0.00013576519795335939
aF0.00013718868711133363
aF0.00013676899395778441
aF0.00013836033015231732
aF0.00013883233837959163
aF0.00013915833199161965
aF0.00013955866564439433
aF0.00013859142680076379
aF0.00013852397825369597
aF0.00013694901994480178
aF0.00013627321574322682
aF0.00013514844609587603
aF0.00013385142221345296
aF0.00013141085901413884
aF0.00013078873092852453
aF0.00012780999602756725
aF0.00012533539936445019
aF0.00012362914771497834
aF0.00012198958724584487
aF0.00012129347601440912
aF0.00012494389147735019
aF0.00013551256470661463
aF0.00014325764385277769
aF0.00012424381831995077
aF9.7401819508427791e-05
aF7.5168846233743204e-05
aF6.0202665347001639e-05
aF4.8377098862722521e-05
aF3.9530791889973743e-05
aF3.3267636213980517e-05
aF2.717680885178946e-05
aF2.2938632365717881e-05
aF1.9654040715535386e-05
aF1.6710256785313706e-05
aF1.4019237767327986e-05
aF1.1779929905450744e-05
aF1.0775479241835956e-05
aF8.4142356467505319e-06
aF8.0706513118535565e-06
aF7.3353605742646322e-06
aF5.8779323253415494e-06
aF5.2141111249487369e-06
asg7
F100
sg8
F1.7825474313394424e-05
sg9
F1.2
sg10
F0
sg11
(lp26
F0
aF5.2681448077541067e-06
aF1.5051842307868877e-05
aF8.2785132693278824e-06
aF0.0027018056942624638
aF0.0043507350190894988
aF0.0071104903062372575
aF0.010996123398013606
aF0.014074977742088187
aF0.014345158311514434
aF0.013355499679772054
aF0.012076845675718593
aF0.011291892099363232
aF0.010639394735317116
aF0.0097445627101143094
aF0.0086570671033707833
aF0.0076990173404749311
aF0.0067620401568100931
aF0.0061313679641103883
aF0.0056504616023739769
aF0.0052147107675611726
aF0.0048165895385180405
aF0.0045433986006302206
aF0.0041655973587027117
aF0.0039608923033156952
aF0.0037825279719674487
aF0.0035289044290798583
aF0.003431820046194104
aF0.0032971060575386776
aF0.0032180838854223661
aF0.0030615447254205294
aF0.0029780070006118573
aF0.0029080159338802673
aF0.002970481079457923
aF0.0029403773948421851
aF0.0028861907625338571
aF0.0030051003167660215
aF0.0029004900127263329
aF0.0029780070006118573
aF0.0030178943827277099
aF0.0036696391546584325
aF0.0039179945527382685
aF0.0043447142821663514
aF0.0043687972298589424
aF0.0046254311412081061
aF0.0048700235787109752
aF0.0051477300692911558
aF0.0054299521125636971
aF0.0057994748412218784
aF0.0061479249906490428
aF0.0068230001181569617
aF0.0074604456398952093
aF0.008545683470292555
aF0.010561877747431591
aF0.013781466817084745
aF0.015939901004033141
aF0.016669915355964782
aF0.016222875639421076
aF0.015652410815952846
aF0.015304713258641075
aF0.015077430439792254
aF0.015216659981140041
aF0.015298692521717927
aF0.015559841985759453
aF0.015790887765185238
aF0.016371136286153585
aF0.016921281122506193
aF0.017504540011936111
aF0.018126181099251099
aF0.019031549414069409
aF0.019426660274650967
aF0.020236449390814312
aF0.020928081544860883
aF0.021740881029485806
aF0.022246622931030205
aF0.023142207548348399
aF0.023639670936623464
aF0.023888026334703303
aF0.024491605211248844
aF0.025007883402408747
aF0.024855107202983878
aF0.02543686090818301
aF0.025610709686838894
aF0.025731124425301847
aF0.025879385072034355
aF0.025521903817222469
aF0.025497068277414485
aF0.024920582717023108
aF0.024675237687404844
aF0.024269590537207779
aF0.023805993794125419
aF0.022945781006230709
aF0.022729034476997399
aF0.021705509200062315
aF0.020873142320437167
aF0.020308698233892083
aF0.019773605239847343
aF0.019548580197344706
aF0.020742943884474101
aF0.024400541565286236
aF0.027269422709166047
aF0.02051114551293292
aF0.012605917932840185
aF0.0075078589431649958
aF0.0048158369464026476
aF0.0031097106208057101
aF0.0020764016463705117
aF0.0014705649934787894
aF0.00098138011847305083
aF0.0006991580752005093
aF0.00051326782269832882
aF0.00037102791288896788
aF0.000261149464041525
aF0.00018438506827139374
aF0.000154281383655656
aF9.4074014424180486e-05
aF8.6548093270246058e-05
aF7.1496250962377163e-05
aF4.5908119039000081e-05
aF3.6124421538885309e-05
asg13
F0
sg14
F0.000422204176735722
sg15
F0
sg16
I120
sbsS'high_p1'
p27
(i__main__
hist
p28
(dp29
g5
(lp30
F0
aF5.0485413880503187e-06
aF7.7484100671139077e-06
aF1.0906095880378071e-05
aF2.0250182762590622e-05
aF2.9293143593866011e-05
aF3.557142377061135e-05
aF4.211827159584364e-05
aF4.8639813574072071e-05
aF5.7236597175315714e-05
aF6.7678914684237435e-05
aF7.9304784738753401e-05
aF9.1358607316209965e-05
aF0.00010392313411152282
aF0.00011607986252707698
aF0.00012680451330025235
aF0.00013662190040722476
aF0.00014460152223814716
aF0.00015224512528009491
aF0.00015678681294772651
aF0.00016080834927362762
aF0.00016321188122443332
aF0.00016393729786912546
aF0.00016377829313603297
aF0.00016349273422799928
aF0.0001619297734581086
aF0.00015970210391106816
aF0.00015732775718846023
aF0.00015310394837043996
aF0.00014954821534050088
aF0.00014743700202430915
aF0.00014371553895535668
aF0.00014053133849632664
aF0.00013747944410392736
aF0.00013291083586879036
aF0.00012967098813276498
aF0.00012540316654937705
aF0.00012263326292825271
aF0.00011848247719387329
aF0.00011575737712362429
aF0.00011288379991674722
aF0.00010929181982473122
aF0.00010654960918887636
aF0.00010289340758334454
aF9.9862479771568516e-05
aF9.6783463083400997e-05
aF9.4515502638600608e-05
aF9.2019582903195467e-05
aF8.9741679121323976e-05
aF8.7073314088483735e-05
aF8.5089517018160704e-05
aF8.3347665547686014e-05
aF8.143658755259948e-05
aF7.9895371796852603e-05
aF7.9183277629350706e-05
aF7.7768661158612591e-05
aF7.6664723281736515e-05
aF7.5055736605189325e-05
aF7.5255448484688687e-05
aF7.4552217114525116e-05
aF7.3469335931476657e-05
aF7.2760518531331847e-05
aF7.1950325324300933e-05
aF7.1079128005337953e-05
aF6.9873628575833243e-05
aF6.9678813247142703e-05
aF6.8552012517418407e-05
aF6.7393773007377492e-05
aF6.7557457330511396e-05
aF6.6582075822826893e-05
aF6.6146810519307175e-05
aF6.6433041475242829e-05
aF6.6095414388377179e-05
aF6.6599087084173142e-05
aF6.6296488316519887e-05
aF6.6232382108151407e-05
aF6.7309677924700211e-05
aF6.7305470412402032e-05
aF6.8328567202979301e-05
aF6.8803550116324535e-05
aF7.0679579432704473e-05
aF7.1769040325433731e-05
aF7.2581257166773257e-05
aF7.4571207923380541e-05
aF7.690813909299388e-05
aF7.8770908611804834e-05
aF8.1373968098854941e-05
aF8.4789447256661276e-05
aF8.9653276094822139e-05
aF9.2455566151334034e-05
aF9.8480352042045328e-05
aF0.00010513148874367526
aF0.00011331948197410157
aF0.00012211488328859769
aF0.00013550420515170671
aF0.00015299847874330536
aF0.00017748732662286343
aF0.00021985868024929214
aF0.00031567538854081954
aF0.00051501666147811835
aF0.00048629448707675628
aF0.00023806309941622441
aF0.00012913480713870419
aF8.6521912193258816e-05
aF6.4371927351810777e-05
aF5.0305589929319269e-05
aF4.077910498477601e-05
aF3.4438799400778793e-05
aF2.907967630465479e-05
aF2.5532734300646061e-05
aF2.2414108711683362e-05
aF1.9854743638185196e-05
aF1.8403916580639092e-05
aF1.6281056769365842e-05
aF1.4995291667203227e-05
aF1.3733517360339345e-05
aF1.2434862506582023e-05
aF1.2135183227278376e-05
aF1.1413624542407515e-05
aF1.0827914973601447e-05
asg7
F100
sg8
F4.8593212544379761e-05
sg9
F1.2
sg10
F0
sg11
(lp31
F0
aF3.3866645192704971e-05
aF7.9774764231705045e-05
aF0.00015804434423262321
aF0.00054487669154485341
aF0.0011401770548210674
aF0.0016812907857889537
aF0.0023571185054122659
aF0.003143577265998415
aF0.0043529927954356791
aF0.0060862124371867813
aF0.0083567828493288001
aF0.011090197412437788
aF0.014350426456322188
aF0.01790416642521003
aF0.021365337563904477
aF0.024801673162790944
aF0.027783443123979769
aF0.030798327138245905
aF0.032663250400190857
aF0.034360345620403077
aF0.035395159779069062
aF0.035710495875418913
aF0.035641257400802713
aF0.035517079701762794
aF0.034841251982139484
aF0.033889222956166774
aF0.032889028034808893
aF0.031146777287673066
aF0.029716852268425523
aF0.028883732796684981
aF0.027444024079937325
aF0.026241381879538599
aF0.025113998890679223
aF0.023472595487006118
aF0.022342202129685171
aF0.020895720083898971
aF0.019982825847926721
aF0.018652995580026505
aF0.017804824265978094
aF0.0169318174121217
aF0.015871415121532336
aF0.01508495636094619
aF0.014067451820934253
aF0.013250889375732365
aF0.012446368404376774
aF0.011869882843985397
aF0.011251252125131986
aF0.010701107288779379
aF0.010074198056656639
aF0.0096203850110743935
aF0.0092305422953005891
aF0.0088121010791418347
aF0.008481713140484114
aF0.0083311947174054234
aF0.0080361786081711937
aF0.0078096483814377674
aF0.0074852811797031923
aF0.0075251685618190449
aF0.0073851864283558648
aF0.0071722028596995198
aF0.0070344785025825201
aF0.0068786919346960768
aF0.0067131216693095191
aF0.0064873440346914857
aF0.006451219613152601
aF0.0062442567814194041
aF0.0060350361733400261
aF0.0060643872658403698
aF0.0058905384871844853
aF0.0058137740914143542
aF0.0058641977631457148
aF0.0058047429860296328
aF0.0058935488556460585
aF0.0058401148154531238
aF0.005828825933722223
aF0.0060199843310321565
aF0.0060192317389167645
aF0.0062036168071881578
aF0.006290164900458404
aF0.0066378624577701746
aF0.0068440726973879786
aF0.0069998592652744211
aF0.0073889493889328318
aF0.0078593194610537351
aF0.0082446466241351771
aF0.0087985544210647526
aF0.009552651720688983
aF0.010680034709548362
aF0.011358120205517856
aF0.012886634791881939
aF0.014686082539787664
aF0.01706276844020016
aF0.019814245214078593
aF0.024397531196824664
aF0.031103879537095643
aF0.041857668273952563
aF0.064228468904022687
aF0.13241030419020713
aF0.35243813504663435
aF0.31422376520330147
aF0.075305119658383379
aF0.022157817061413773
aF0.0099470099891551464
aF0.0055059639162184353
aF0.0033625815715779073
aF0.0022096104507951511
aF0.0015759278896338715
aF0.0011236200282824117
aF0.00086623352481785389
aF0.00066754920635398471
aF0.00052380411231383694
aF0.00045005008500527942
aF0.00035221311000413171
aF0.00029877906981119724
aF0.00025061317442601682
aF0.00020545764750241018
aF0.00019567395000229541
aF0.00017309618654049212
aF0.00015578656788644288
asg13
F0
sg14
F0.0031375565290752677
sg15
F0
sg16
I120
sbs.