(dp1
S'wles'
p2
(lp3
I13
aI15
aI19
aI18
aI7
aI25
aI17
aI15
aI21
aI3
aI9
aI21
aI17
aI20
aI20
aI24
aI39
aI24
aI28
aI26
aI31
aI31
aI30
aI21
aI10
aI20
aI33
aI23
aI23
aI36
aI33
aI29
aI22
aI6
aI2
aI13
aI19
aI35
aI27
aI28
aI29
aI31
aI4
aI14
aI28
aI7
aI9
aI20
aI4
aI18
aI46
aI41
aI38
aI36
aI38
aI40
aI32
aI25
aI36
aI32
aI15
aI27
aI31
aI31
aI35
aI35
aI33
aI24
aI25
aI18
aI48
aI15
aI0
aI23
aI29
aI36
aI28
aI38
aI7
aI23
aI28
aI30
aI18
aI15
aI40
aI25
aI32
aI26
aI25
aI36
aI26
aI35
aI5
aI24
aI18
aI26
aI16
aI22
aI4
aI29
aI20
aI32
aI32
aI34
aI21
aI23
aI23
aI17
aI29
aI24
aI30
aI28
aI30
aI33
aI33
aI29
aI34
aI22
aI5
aI37
aI16
aI31
aI12
aI46
aI23
aI13
aI34
aI10
aI13
aI38
aI25
aI7
aI31
aI41
aI29
aI27
aI32
aI7
aI7
aI12
aI32
aI29
aI6
aI29
aI18
aI16
aI23
aI27
aI13
aI22
aI29
aI6
aI26
aI26
aI28
aI20
aI31
aI40
aI23
aI27
aI30
aI9
aI8
aI37
aI30
aI7
aI21
aI34
aI37
aI35
aI21
aI16
aI15
aI20
aI19
aI46
aI41
aI41
aI36
aI31
aI35
aI37
aI26
aI10
aI7
aI36
aI22
aI38
aI36
aI4
aI43
aI39
aI38
aI35
aI24
aI15
aI11
aI19
aI26
aI23
aI18
aI14
aI16
aI33
aI6
aI12
aI34
aI20
aI19
aI20
aI23
aI14
aI31
aI16
aI27
aI15
aI29
aI32
aI34
aI2
aI3
aI12
aI10
aI6
aI8
aI9
aI21
aI26
aI31
aI37
aI32
aI36
aI34
aI47
aI25
aI23
aI11
aI11
aI34
aI30
aI32
aI21
aI25
aI42
aI30
aI35
aI16
aI25
aI30
aI23
aI20
aI1
aI12
aI7
aI16
aI18
aI6
aI12
aI19
aI29
aI36
aI25
aI12
aI30
aI8
aI26
aI20
aI36
aI30
aI24
aI22
aI22
aI27
aI33
aI27
aI31
aI33
aI27
aI4
aI35
aI22
aI10
aI28
aI21
aI23
aI32
aI28
aI36
aI28
aI26
aI42
aI31
aI6
aI13
aI30
aI34
aI24
aI24
aI17
aI37
aI25
aI28
aI24
aI22
aI28
aI21
aI30
aI6
aI10
aI26
aI24
aI29
aI24
aI4
aI16
aI28
aI10
aI24
aI26
aI24
aI27
aI36
aI33
aI36
aI38
aI29
aI34
aI34
aI35
aI22
aI35
aI30
aI37
aI38
aI47
aI34
aI29
aI28
aI32
aI22
aI18
aI30
aI29
aI15
aI21
aI15
aI20
aI20
aI27
aI33
aI22
aI31
aI32
aI12
aI28
aI19
aI8
aI26
aI35
aI41
aI12
aI25
aI29
aI40
aI43
aI26
aI13
aI4
aI8
aI9
aI9
aI11
aI18
aI31
aI34
aI23
aI15
aI3
aI9
aI16
aI35
aI29
aI35
aI21
aI37
aI35
aI36
aI35
aI5
aI18
aI24
aI26
aI29
aI40
aI30
aI31
aI23
aI6
aI32
aI24
aI34
aI29
aI12
aI29
aI26
aI24
aI16
aI29
aI34
aI30
aI36
aI38
aI38
aI28
aI23
aI35
aI37
aI39
aI38
aI40
aI32
aI40
aI31
aI28
aI39
aI32
aI19
aI26
aI32
aI31
aI32
aI12
aI33
aI32
aI22
aI5
aI0
aI7
aI8
aI21
aI11
aI15
aI26
aI35
aI26
aI25
aI35
aI23
aI14
aI19
aI25
aI22
aI25
aI23
aI11
aI21
aI25
aI32
aI12
aI26
aI38
aI35
aI25
aI26
aI33
aI23
aI40
aI34
aI33
aI29
aI8
aI17
aI36
aI38
aI23
aI20
aI22
aI19
aI26
aI2
aI8
aI31
aI8
aI31
aI18
aI23
aI30
aI19
aI26
aI22
aI15
aI8
aI5
aI20
aI8
aI2
aI23
aI36
aI18
aI12
aI27
aI6
aI3
aI16
aI28
aI12
aI13
aI19
aI7
aI10
aI5
aI21
aI29
aI23
aI27
aI27
aI30
aI24
aI25
aI24
aI21
aI25
aI28
aI31
aI32
aI29
aI27
aI33
aI9
aI44
aI33
aI33
aI5
aI7
aI10
aI44
aI43
aI22
aI34
aI3
aI11
aI18
aI17
aI9
aI16
aI19
aI25
aI26
aI3
aI19
aI24
aI26
aI23
aI19
aI32
aI29
aI17
aI32
aI9
aI7
aI14
aI29
aI22
aI30
aI15
aI28
aI29
aI7
aI25
aI28
aI24
aI32
aI24
aI22
aI38
aI19
aI13
aI38
aI29
aI21
aI25
aI5
aI14
aI17
aI31
aI26
aI24
aI14
aI22
aI18
aI7
aI10
aI16
aI14
aI23
aI36
aI23
aI17
aI30
aI24
aI12
aI13
aI23
aI19
aI22
aI23
aI22
aI22
aI28
aI19
aI21
aI19
aI28
aI13
aI7
aI15
aI24
aI22
aI12
aI33
aI22
aI27
aI25
aI32
aI29
aI28
aI20
aI21
aI36
aI11
aI34
aI23
aI13
aI18
aI24
aI17
aI16
aI17
aI28
aI35
aI26
aI34
aI21
aI11
aI29
aI26
aI28
aI30
aI24
aI9
aI23
aI18
asS'runnums'
p4
(lp5
I123193
aI123196
aI123197
aI123198
aI123200
aI123201
aI123202
aI123396
aI123397
aI123400
aI123401
aI123402
aI123403
aI123404
aI123405
aI123409
aI123413
aI123414
aI123415
aI123417
aI123418
aI123419
aI123420
aI123421
aI123423
aI123425
aI123426
aI123427
aI123428
aI123429
aI123430
aI123432
aI123433
aI123434
aI123435
aI123437
aI123439
aI123440
aI123441
aI123442
aI123445
aI123446
aI123447
aI123450
aI123452
aI123453
aI123455
aI123456
aI123457
aI123459
aI123461
aI123462
aI123463
aI123464
aI123465
aI123466
aI123468
aI123470
aI123471
aI123472
aI123474
aI123476
aI123477
aI123478
aI123479
aI123480
aI123481
aI123484
aI123488
aI123491
aI123492
aI123493
aI123495
aI123496
aI123497
aI123498
aI123499
aI123500
aI123504
aI123608
aI123610
aI123611
aI123612
aI123615
aI123616
aI123617
aI123618
aI123619
aI123620
aI123621
aI123623
aI123624
aI123631
aI123632
aI123633
aI123635
aI123636
aI123637
aI123638
aI123639
aI123640
aI123641
aI123643
aI123644
aI123645
aI123646
aI123647
aI123648
aI123650
aI123651
aI123652
aI123653
aI123654
aI123656
aI123658
aI123659
aI123665
aI123670
aI123672
aI123673
aI123674
aI123675
aI123678
aI123679
aI123683
aI123685
aI123686
aI123689
aI123691
aI123692
aI123693
aI123694
aI123695
aI123697
aI123698
aI123699
aI123700
aI123703
aI123704
aI123706
aI123707
aI123709
aI123714
aI123715
aI123716
aI123717
aI123718
aI123792
aI123821
aI123822
aI123823
aI123826
aI123829
aI123830
aI123831
aI123833
aI123836
aI123837
aI123839
aI123840
aI123841
aI123842
aI123843
aI123844
aI123845
aI123849
aI123850
aI123851
aI123852
aI123853
aI123858
aI123859
aI123860
aI123862
aI123863
aI123864
aI123865
aI123866
aI123867
aI123868
aI123869
aI123871
aI123872
aI123874
aI123875
aI123876
aI123879
aI123881
aI123882
aI123885
aI123886
aI123887
aI123888
aI123890
aI123891
aI123893
aI123963
aI123964
aI123965
aI123966
aI123969
aI123970
aI123971
aI123972
aI123973
aI123974
aI123976
aI123977
aI123979
aI123980
aI123981
aI123982
aI123984
aI123985
aI123986
aI123987
aI123991
aI123992
aI123993
aI123994
aI123995
aI123996
aI123997
aI123998
aI124000
aI124001
aI124007
aI124008
aI124010
aI124011
aI124012
aI124013
aI124014
aI124016
aI124017
aI124019
aI124020
aI124023
aI124024
aI124025
aI124026
aI124029
aI124031
aI124032
aI124033
aI124034
aI124035
aI124037
aI124038
aI124040
aI124041
aI124092
aI124112
aI124142
aI124144
aI124146
aI124148
aI124149
aI124150
aI124152
aI124153
aI124154
aI124155
aI124156
aI124159
aI124162
aI124163
aI124165
aI124166
aI124167
aI124170
aI124171
aI124172
aI124173
aI124174
aI124175
aI124176
aI124177
aI124178
aI124179
aI124181
aI124185
aI124186
aI124187
aI124188
aI124190
aI124192
aI124193
aI124194
aI124195
aI124196
aI124197
aI124200
aI124201
aI124202
aI124205
aI124208
aI124209
aI124210
aI124212
aI124213
aI124214
aI124296
aI124328
aI124329
aI124330
aI124333
aI124334
aI124335
aI124336
aI124337
aI124338
aI124339
aI124341
aI124343
aI124344
aI124346
aI124347
aI124348
aI124349
aI124350
aI124351
aI124352
aI124353
aI124354
aI124359
aI124360
aI124361
aI124374
aI124375
aI124376
aI124382
aI124383
aI124384
aI124385
aI124389
aI124391
aI124392
aI124393
aI124394
aI124451
aI124481
aI124484
aI124486
aI124490
aI124491
aI124492
aI124493
aI124495
aI124496
aI124497
aI124498
aI124499
aI124500
aI124502
aI124505
aI124506
aI124507
aI124508
aI124509
aI124510
aI124513
aI124515
aI124516
aI124517
aI124518
aI124519
aI124522
aI124523
aI124524
aI124525
aI124526
aI124527
aI124530
aI124531
aI124532
aI124533
aI124534
aI124535
aI124536
aI124537
aI124538
aI124541
aI124542
aI124543
aI124545
aI124547
aI124548
aI124640
aI124641
aI124671
aI124672
aI124673
aI124674
aI124675
aI124676
aI124677
aI124679
aI124680
aI124681
aI124684
aI124685
aI124687
aI124688
aI124690
aI124691
aI124699
aI124701
aI124702
aI124704
aI124705
aI124706
aI124707
aI124708
aI124709
aI124712
aI124713
aI124714
aI124716
aI124718
aI124719
aI124720
aI124721
aI124722
aI124725
aI124726
aI124727
aI124728
aI124729
aI124730
aI124731
aI124732
aI124733
aI124734
aI124735
aI124736
aI124779
aI124780
aI124822
aI124823
aI124824
aI124828
aI124836
aI124845
aI124849
aI124851
aI124852
aI124853
aI124855
aI124856
aI124861
aI124863
aI124864
aI124865
aI124870
aI124871
aI124875
aI124877
aI124878
aI124879
aI124880
aI124881
aI124882
aI124883
aI124884
aI124886
aI124887
aI124888
aI124889
aI124890
aI124892
aI124894
aI124895
aI124896
aI124897
aI124898
aI124899
aI124901
aI124902
aI124903
aI124904
aI124905
aI124906
aI124907
aI124909
aI124912
aI124913
aI124915
aI124917
aI124974
aI124975
aI124979
aI124981
aI124982
aI124984
aI124986
aI124988
aI124989
aI124992
aI124993
aI124994
aI124995
aI124997
aI124999
aI125000
aI125001
aI125003
aI125004
aI125009
aI125012
aI125015
aI125017
aI125020
aI125021
aI125022
aI125023
aI125025
aI125026
aI125028
aI125029
aI125030
aI125031
aI125032
aI125033
aI125034
aI125036
aI125038
aI125039
aI125064
aI125065
aI125067
aI125068
aI125070
aI125072
aI125075
aI125076
aI125077
aI125078
aI125081
aI125082
aI125086
aI125148
aI125149
aI125151
aI125153
aI125154
aI125155
aI125179
aI125183
aI125184
aI125187
aI125188
aI125189
aI125190
aI125191
aI125192
aI125193
aI125194
aI125196
aI125197
aI125198
aI125199
aI125200
aI125202
aI125205
aI125206
aI125207
aI125209
aI125212
aI125213
aI125214
aI125215
aI125217
aI125222
aI125224
aI125225
aI125226
aI125227
aI125228
aI125229
aI125231
aI125232
aI125233
aI125236
aI125237
aI125238
aI125239
aI125243
aI125245
aI125247
aI125249
aI125251
aI125264
aI125303
aI125312
aI125316
aI125317
aI125318
aI125325
aI125326
aI125327
aI125329
aI125331
aI125335
aI125337
aI125338
aI125339
aI125340
aI125342
aI125343
aI125344
aI125345
aI125346
aI125347
aI125348
aI125351
aI125353
aI125354
aI125357
aI125358
aI125360
aI125361
aI125362
aI125363
aI125364
aI125366
aI125368
aI125369
aI125370
aI125372
aI125373
aI125375
aI125377
aI125378
aI125380
aI125382
aI125384
aI125389
aI125391
aI125392
aI125395
aI125396
aI125397
aI125398
aI125399
aI125400
aI125403
aI125404
aI125405
aI125407
aI125408
aI125416
as.