(i__main__
variable
p1
(dp2
S'highbha'
p3
(dp4
F0
I708427
sF0.053249999999999999
I708427
sF0.055500000000000001
I708427
sF0.063750000000000001
I708427
sF0.0037499999999999999
I708427
sF0.038249999999999999
I708427
sF0.00075000000000000002
I708427
sF0.02325
I708427
sF0.012750000000000001
I708427
sF0.0082500000000000004
I708427
sF0.014999999999999999
I708427
sF0.069000000000000006
I708427
sF0.066000000000000003
I708427
sF0.0090000000000000011
I708427
sF0.0015
I708427
sF0.048750000000000002
I708427
sF0.061499999999999999
I708427
sF0.00975
I708427
sF0.0030000000000000001
I708427
sF0.026249999999999999
I708427
sF0.036000000000000004
I708427
sF0.010500000000000001
I708427
sF0.0195
I708427
sF0.0465
I708427
sF0.064500000000000002
I708427
sF0.059250000000000004
I708427
sF0.063
I708427
sF0.044249999999999998
I708427
sF0.072000000000000008
I708427
sF0.0060000000000000001
I708427
sF0.024
I708427
sF0.057000000000000002
I708427
sF0.029250000000000002
I708427
sF0.044999999999999998
I708427
sF0.071250000000000008
I708427
sF0.0052500000000000003
I708427
sF0.0315
I708427
sF0.05475
I708427
sF0.066750000000000004
I708427
sF0.014250000000000001
I708427
sF0.039750000000000001
I708427
sF0.052499999999999998
I708427
sF0.01575
I708427
sF0.051000000000000004
I708427
sF0.018749999999999999
I708427
sF0.037499999999999999
I708427
sF0.067500000000000004
I708427
sF0.050250000000000003
I708427
sF0.035250000000000004
I708427
sF0.0022500000000000003
I708427
sF0.048000000000000001
I708427
sF0.028500000000000001
I708427
sF0.060749999999999998
I708427
sF0.027
I708427
sF0.021750000000000002
I708427
sF0.033000000000000002
I708427
sF0.073499999999999996
I708427
sF0.045749999999999999
I708427
sF0.01125
I708427
sF0.058500000000000003
I708427
sF0.072749999999999995
I708427
sF0.074249999999999997
I708427
sF0.043500000000000004
I708427
sF0.056250000000000001
I708427
sF0.049500000000000002
I708427
sF0.018000000000000002
I708427
sF0.0135
I708427
sF0.069750000000000006
I708427
sF0.041250000000000002
I708427
sF0.053999999999999999
I708427
sF0.065250000000000002
I708427
sF0.039
I708427
sF0.02775
I708427
sF0.051750000000000004
I708427
sF0.042000000000000003
I708427
sF0.070500000000000007
I708427
sF0.036749999999999998
I708427
sF0.016500000000000001
I708427
sF0.024750000000000001
I708427
sF0.06225
I708427
sF0.017250000000000001
I708427
sF0.03075
I708427
sF0.04725
I708427
sF0.012
I708427
sF0.0074999999999999997
I708427
sF0.034500000000000003
I708427
sF0.021000000000000001
I708427
sF0.032250000000000001
I708427
sF0.022499999999999999
I708427
sF0.033750000000000002
I708427
sF0.057750000000000003
I708427
sF0.068250000000000005
I708427
sF0.029999999999999999
I708427
sF0.0067499999999999999
I708427
sF0.042750000000000003
I708427
sF0.040500000000000001
I708427
sF0.025500000000000002
I708427
sF0.059999999999999998
I708427
sF0.0045000000000000005
I708427
sF0.020250000000000001
I708427
ssS'x'
cNumeric
array_constructor
p5
((I100
tS'd'
S'\x00\x00\x00\x00\x00\x00\x00\x00\xfa~j\xbct\x93H?\xfa~j\xbct\x93X?<\xdfO\x8d\x97nb?\xfa~j\xbct\x93h?\xb8\x1e\x85\xebQ\xb8n?<\xdfO\x8d\x97nr?\x1b/\xdd$\x06\x81u?\xfa~j\xbct\x93x?\xd9\xce\xf7S\xe3\xa5{?\xb8\x1e\x85\xebQ\xb8~?L7\x89A`\xe5\x80?<\xdfO\x8d\x97n\x82?+\x87\x16\xd9\xce\xf7\x83?\x1b/\xdd$\x06\x81\x85?\n\xd7\xa3p=\n\x87?\xfa~j\xbct\x93\x88?\xea&1\x08\xac\x1c\x8a?\xd9\xce\xf7S\xe3\xa5\x8b?\xc9v\xbe\x9f\x1a/\x8d?\xb8\x1e\x85\xebQ\xb8\x8e?T\xe3\xa5\x9b\xc4 \x90?L7\x89A`\xe5\x90?D\x8bl\xe7\xfb\xa9\x91?<\xdfO\x8d\x97n\x92?333333\x93?+\x87\x16\xd9\xce\xf7\x93?#\xdb\xf9~j\xbc\x94?\x1b/\xdd$\x06\x81\x95?\x13\x83\xc0\xca\xa1E\x96?\n\xd7\xa3p=\n\x97?\x02+\x87\x16\xd9\xce\x97?\xfa~j\xbct\x93\x98?\xf2\xd2Mb\x10X\x99?\xea&1\x08\xac\x1c\x9a?\xe1z\x14\xaeG\xe1\x9a?\xd9\xce\xf7S\xe3\xa5\x9b?\xd1"\xdb\xf9~j\x9c?\xc9v\xbe\x9f\x1a/\x9d?\xc1\xca\xa1E\xb6\xf3\x9d?\xb8\x1e\x85\xebQ\xb8\x9e?\xb0rh\x91\xed|\x9f?T\xe3\xa5\x9b\xc4 \xa0?P\x8d\x97n\x12\x83\xa0?L7\x89A`\xe5\xa0?H\xe1z\x14\xaeG\xa1?D\x8bl\xe7\xfb\xa9\xa1?@5^\xbaI\x0c\xa2?<\xdfO\x8d\x97n\xa2?7\x89A`\xe5\xd0\xa2?333333\xa3?/\xdd$\x06\x81\x95\xa3?+\x87\x16\xd9\xce\xf7\xa3?\'1\x08\xac\x1cZ\xa4?#\xdb\xf9~j\xbc\xa4?\x1f\x85\xebQ\xb8\x1e\xa5?\x1b/\xdd$\x06\x81\xa5?\x17\xd9\xce\xf7S\xe3\xa5?\x13\x83\xc0\xca\xa1E\xa6?\x0e-\xb2\x9d\xef\xa7\xa6?\n\xd7\xa3p=\n\xa7?\x06\x81\x95C\x8bl\xa7?\x02+\x87\x16\xd9\xce\xa7?\xfe\xd4x\xe9&1\xa8?\xfa~j\xbct\x93\xa8?\xf6(\\\x8f\xc2\xf5\xa8?\xf2\xd2Mb\x10X\xa9?\xee|?5^\xba\xa9?\xea&1\x08\xac\x1c\xaa?\xe6\xd0"\xdb\xf9~\xaa?\xe1z\x14\xaeG\xe1\xaa?\xdd$\x06\x81\x95C\xab?\xd9\xce\xf7S\xe3\xa5\xab?\xd5x\xe9&1\x08\xac?\xd1"\xdb\xf9~j\xac?\xcd\xcc\xcc\xcc\xcc\xcc\xac?\xc9v\xbe\x9f\x1a/\xad?\xc5 \xb0rh\x91\xad?\xc1\xca\xa1E\xb6\xf3\xad?\xbdt\x93\x18\x04V\xae?\xb8\x1e\x85\xebQ\xb8\xae?\xb4\xc8v\xbe\x9f\x1a\xaf?\xb0rh\x91\xed|\xaf?\xac\x1cZd;\xdf\xaf?T\xe3\xa5\x9b\xc4 \xb0?R\xb8\x1e\x85\xebQ\xb0?P\x8d\x97n\x12\x83\xb0?Nb\x10X9\xb4\xb0?L7\x89A`\xe5\xb0?J\x0c\x02+\x87\x16\xb1?H\xe1z\x14\xaeG\xb1?F\xb6\xf3\xfd\xd4x\xb1?D\x8bl\xe7\xfb\xa9\xb1?B`\xe5\xd0"\xdb\xb1?@5^\xbaI\x0c\xb2?>\n\xd7\xa3p=\xb2?<\xdfO\x8d\x97n\xb2?9\xb4\xc8v\xbe\x9f\xb2?7\x89A`\xe5\xd0\xb2?5^\xbaI\x0c\x02\xb3?'
I01
tRp6
sS'lowbha'
p7
(dp8
F0
I1016678
sF0.053249999999999999
I1016678
sF0.055500000000000001
I1016678
sF0.063750000000000001
I1016678
sF0.0037499999999999999
I1016678
sF0.038249999999999999
I1016678
sF0.00075000000000000002
I1016678
sF0.02325
I1016678
sF0.012750000000000001
I1016678
sF0.0082500000000000004
I1016678
sF0.014999999999999999
I1016678
sF0.069000000000000006
I1016678
sF0.066000000000000003
I1016678
sF0.0090000000000000011
I1016678
sF0.0015
I1016678
sF0.048750000000000002
I1016678
sF0.061499999999999999
I1016678
sF0.00975
I1016678
sF0.0030000000000000001
I1016678
sF0.026249999999999999
I1016678
sF0.036000000000000004
I1016678
sF0.010500000000000001
I1016678
sF0.0195
I1016678
sF0.0465
I1016678
sF0.064500000000000002
I1016678
sF0.059250000000000004
I1016678
sF0.063
I1016678
sF0.044249999999999998
I1016678
sF0.072000000000000008
I1016678
sF0.0060000000000000001
I1016678
sF0.024
I1016678
sF0.057000000000000002
I1016678
sF0.029250000000000002
I1016678
sF0.044999999999999998
I1016678
sF0.071250000000000008
I1016678
sF0.0052500000000000003
I1016678
sF0.0315
I1016678
sF0.05475
I1016678
sF0.066750000000000004
I1016678
sF0.014250000000000001
I1016678
sF0.039750000000000001
I1016678
sF0.052499999999999998
I1016678
sF0.01575
I1016678
sF0.051000000000000004
I1016678
sF0.018749999999999999
I1016678
sF0.037499999999999999
I1016678
sF0.067500000000000004
I1016678
sF0.050250000000000003
I1016678
sF0.035250000000000004
I1016678
sF0.0022500000000000003
I1016678
sF0.048000000000000001
I1016678
sF0.028500000000000001
I1016678
sF0.060749999999999998
I1016678
sF0.027
I1016678
sF0.021750000000000002
I1016678
sF0.033000000000000002
I1016678
sF0.073499999999999996
I1016678
sF0.045749999999999999
I1016678
sF0.01125
I1016678
sF0.058500000000000003
I1016678
sF0.072749999999999995
I1016678
sF0.074249999999999997
I1016678
sF0.043500000000000004
I1016678
sF0.056250000000000001
I1016678
sF0.049500000000000002
I1016678
sF0.018000000000000002
I1016678
sF0.0135
I1016678
sF0.069750000000000006
I1016678
sF0.041250000000000002
I1016678
sF0.053999999999999999
I1016678
sF0.065250000000000002
I1016678
sF0.039
I1016678
sF0.02775
I1016678
sF0.051750000000000004
I1016678
sF0.042000000000000003
I1016678
sF0.070500000000000007
I1016678
sF0.036749999999999998
I1016678
sF0.016500000000000001
I1016678
sF0.024750000000000001
I1016678
sF0.06225
I1016678
sF0.017250000000000001
I1016678
sF0.03075
I1016678
sF0.04725
I1016678
sF0.012
I1016678
sF0.0074999999999999997
I1016678
sF0.034500000000000003
I1016678
sF0.021000000000000001
I1016678
sF0.032250000000000001
I1016678
sF0.022499999999999999
I1016678
sF0.033750000000000002
I1016678
sF0.057750000000000003
I1016678
sF0.068250000000000005
I1016678
sF0.029999999999999999
I1016678
sF0.0067499999999999999
I1016678
sF0.042750000000000003
I1016678
sF0.040500000000000001
I1016678
sF0.025500000000000002
I1016678
sF0.059999999999999998
I1016678
sF0.0045000000000000005
I1016678
sF0.020250000000000001
I1016678
ssS'highhad'
p9
(dp10
F0
I0
sF0.053249999999999999
I1362161
sF0.055500000000000001
I1362516
sF0.063750000000000001
I1363655
sF0.0037499999999999999
I433106
sF0.038249999999999999
I1359486
sF0.00075000000000000002
I90012
sF0.02325
I1335080
sF0.012750000000000001
I1122340
sF0.0082500000000000004
I852843
sF0.014999999999999999
I1206523
sF0.069000000000000006
I1364267
sF0.066000000000000003
I1363930
sF0.0090000000000000011
I908385
sF0.0015
I178115
sF0.048750000000000002
I1361474
sF0.061499999999999999
I1363351
sF0.00975
I959214
sF0.0030000000000000001
I350085
sF0.026249999999999999
I1347786
sF0.036000000000000004
I1358822
sF0.010500000000000001
I1006188
sF0.0195
I1300894
sF0.0465
I1361111
sF0.064500000000000002
I1363754
sF0.059250000000000004
I1363029
sF0.063
I1363552
sF0.044249999999999998
I1360706
sF0.072000000000000008
I1364618
sF0.0060000000000000001
I661293
sF0.024
I1339150
sF0.057000000000000002
I1362724
sF0.029250000000000002
I1353989
sF0.044999999999999998
I1360850
sF0.071250000000000008
I1364546
sF0.0052500000000000003
I588939
sF0.0315
I1356431
sF0.05475
I1362389
sF0.066750000000000004
I1364024
sF0.014250000000000001
I1181880
sF0.039750000000000001
I1359823
sF0.052499999999999998
I1362040
sF0.01575
I1228380
sF0.051000000000000004
I1361847
sF0.018749999999999999
I1290192
sF0.037499999999999999
I1359270
sF0.067500000000000004
I1364128
sF0.050250000000000003
I1361749
sF0.035250000000000004
I1358541
sF0.0022500000000000003
I265154
sF0.048000000000000001
I1361354
sF0.028500000000000001
I1352872
sF0.060749999999999998
I1363253
sF0.027
I1349792
sF0.021750000000000002
I1324652
sF0.033000000000000002
I1357441
sF0.073499999999999996
I1364765
sF0.045749999999999999
I1360984
sF0.01125
I1049006
sF0.058500000000000003
I1362946
sF0.072749999999999995
I1364699
sF0.074249999999999997
I1364843
sF0.043500000000000004
I1360571
sF0.056250000000000001
I1362621
sF0.049500000000000002
I1361597
sF0.018000000000000002
I1277772
sF0.0135
I1153743
sF0.069750000000000006
I1364367
sF0.041250000000000002
I1360158
sF0.053999999999999999
I1362276
sF0.065250000000000002
I1363851
sF0.039
I1359651
sF0.02775
I1351500
sF0.051750000000000004
I1361945
sF0.042000000000000003
I1360286
sF0.070500000000000007
I1364435
sF0.036749999999999998
I1359071
sF0.016500000000000001
I1247263
sF0.024750000000000001
I1342584
sF0.06225
I1363467
sF0.017250000000000001
I1263438
sF0.03075
I1355749
sF0.04725
I1361221
sF0.012
I1087734
sF0.0074999999999999997
I793246
sF0.034500000000000003
I1358223
sF0.021000000000000001
I1317774
sF0.032250000000000001
I1356968
sF0.022499999999999999
I1330287
sF0.033750000000000002
I1357863
sF0.057750000000000003
I1362833
sF0.068250000000000005
I1364210
sF0.029999999999999999
I1354977
sF0.0067499999999999999
I729610
sF0.042750000000000003
I1360423
sF0.040500000000000001
I1359994
sF0.025500000000000002
I1345431
sF0.059999999999999998
I1363132
sF0.0045000000000000005
I512622
sF0.020250000000000001
I1310103
ssS'lowhad'
p11
(dp12
F0
I0
sF0.053249999999999999
I1929578
sF0.055500000000000001
I1930075
sF0.063750000000000001
I1931706
sF0.0037499999999999999
I606091
sF0.038249999999999999
I1925535
sF0.00075000000000000002
I125525
sF0.02325
I1888982
sF0.012750000000000001
I1581870
sF0.0082500000000000004
I1198922
sF0.014999999999999999
I1702255
sF0.069000000000000006
I1932638
sF0.066000000000000003
I1932128
sF0.0090000000000000011
I1277611
sF0.0015
I249427
sF0.048750000000000002
I1928596
sF0.061499999999999999
I1931300
sF0.00975
I1350079
sF0.0030000000000000001
I490563
sF0.026249999999999999
I1907831
sF0.036000000000000004
I1924566
sF0.010500000000000001
I1416809
sF0.0195
I1838579
sF0.0465
I1928038
sF0.064500000000000002
I1931842
sF0.059250000000000004
I1930861
sF0.063
I1931569
sF0.044249999999999998
I1927456
sF0.072000000000000008
I1933144
sF0.0060000000000000001
I926987
sF0.024
I1894937
sF0.057000000000000002
I1930421
sF0.029250000000000002
I1917212
sF0.044999999999999998
I1927670
sF0.071250000000000008
I1933012
sF0.0052500000000000003
I824499
sF0.0315
I1920950
sF0.05475
I1929905
sF0.066750000000000004
I1932256
sF0.014250000000000001
I1666576
sF0.039750000000000001
I1926103
sF0.052499999999999998
I1929413
sF0.01575
I1733386
sF0.051000000000000004
I1929104
sF0.018749999999999999
I1822943
sF0.037499999999999999
I1925272
sF0.067500000000000004
I1932386
sF0.050250000000000003
I1928942
sF0.035250000000000004
I1924140
sF0.0022500000000000003
I371266
sF0.048000000000000001
I1928417
sF0.028500000000000001
I1915422
sF0.060749999999999998
I1931160
sF0.027
I1910843
sF0.021750000000000002
I1873362
sF0.033000000000000002
I1922471
sF0.073499999999999996
I1933358
sF0.045749999999999999
I1927855
sF0.01125
I1477288
sF0.058500000000000003
I1930723
sF0.072749999999999995
I1933259
sF0.074249999999999997
I1933460
sF0.043500000000000004
I1927261
sF0.056250000000000001
I1930242
sF0.049500000000000002
I1928783
sF0.018000000000000002
I1805128
sF0.0135
I1626588
sF0.069750000000000006
I1932759
sF0.041250000000000002
I1926610
sF0.053999999999999999
I1929750
sF0.065250000000000002
I1931978
sF0.039
I1925814
sF0.02775
I1913292
sF0.051750000000000004
I1929281
sF0.042000000000000003
I1926828
sF0.070500000000000007
I1932891
sF0.036749999999999998
I1924947
sF0.016500000000000001
I1760339
sF0.024750000000000001
I1900063
sF0.06225
I1931432
sF0.017250000000000001
I1784278
sF0.03075
I1919911
sF0.04725
I1928233
sF0.012
I1532402
sF0.0074999999999999997
I1114382
sF0.034500000000000003
I1923652
sF0.021000000000000001
I1863601
sF0.032250000000000001
I1921792
sF0.022499999999999999
I1881907
sF0.033750000000000002
I1923123
sF0.057750000000000003
I1930572
sF0.068250000000000005
I1932513
sF0.029999999999999999
I1918650
sF0.0067499999999999999
I1023559
sF0.042750000000000003
I1927039
sF0.040500000000000001
I1926347
sF0.025500000000000002
I1904229
sF0.059999999999999998
I1931013
sF0.0045000000000000005
I717451
sF0.020250000000000001
I1851988
ssb.