(dp1
I126464
(lp2
S''
aS''
aS''
asI126465
(lp3
S''
aS''
aS''
aS''
asI126467
(lp4
S''
aS''
asI126469
(lp5
S''
aS''
aS''
aS''
aS''
asI124673
(lp6
S''
aS''
aS''
aS''
aS''
aS''
aS''
asI124674
(lp7
S''
aS''
aS''
aS''
aS''
aS''
aS' ERROR -- SEN1 is NOT stable, tell CESR and then call\r\n'
p8
asI122285
(lp9
S''
aS''
aS''
aS''
aS''
aS''
aS''
aS''
aS''
aS''
aS''
aS''
asI124436
(lp10
S''
aS''
asI123822
(lp11
S''
aS''
aS''
aS''
aS''
aS''
aS''
asI124440
(lp12
S''
aS''
aS''
aS''
asI124335
(lp13
S''
aS''
aS''
asI124444
(lp14
S''
aS''
aS''
asI124445
(lp15
S''
aS''
aS''
asI124677
(lp16
S''
aS''
aS''
aS''
asI124448
(lp17
S''
aS''
aS''
asI124449
(lp18
S''
aS''
aS''
asI124450
(lp19
S''
aS''
aS''
asI124451
(lp20
S''
aS''
aS''
aS''
aS''
aS''
asI122413
(lp21
S''
asI122415
(lp22
S''
asI124629
(lp23
S''
aS''
aS''
asI127924
(lp24
S''
aS''
aS''
aS''
aS''
asI127925
(lp25
S''
aS''
aS''
aS''
aS''
aS''
asI124481
(lp26
S''
aS''
aS''
aS''
aS''
aS''
aS' ERROR -- SEN1 is NOT stable, tell CESR and then call\r\n'
p27
asI124484
(lp28
S''
aS''
aS''
aS''
aS''
asI124486
(lp29
S''
aS''
aS''
aS''
aS''
aS''
asI124490
(lp30
S''
aS''
aS''
asI123831
(lp31
S' ERROR -- SEN1 is NOT stable, tell CESR and then call\r\n'
p32
aS' ERROR -- SEN1 is NOT stable, tell CESR and then call\r\n'
p33
aS''
aS''
aS''
aS''
aS''
asI124492
(lp34
S''
aS''
aS''
aS''
aS''
aS''
aS' ERROR -- SEN1 is NOT stable, tell CESR and then call\r\n'
p35
asI124493
(lp36
S''
aS''
aS''
aS''
aS''
aS''
asI124495
(lp37
S''
aS''
aS''
aS''
aS''
aS''
aS''
asI124630
(lp38
S''
aS''
asI122449
(lp39
S''
asI123611
(lp40
S' ERROR -- SEN1 is NOT stable, tell CESR and then call\r\n'
p41
aS''
aS''
aS''
aS''
aS''
aS''
asI127588
(lp42
S''
aS''
aS''
aS''
aS''
aS''
asI127589
(lp43
S''
aS''
aS''
aS''
aS''
asI127592
(lp44
S''
aS''
aS''
aS''
aS''
aS''
aS''
asI127932
(lp45
S''
aS''
aS''
aS''
aS''
asI127594
(lp46
S''
aS''
aS''
asI124334
(lp47
S''
aS''
aS''
asI127598
(lp48
S''
aS''
aS''
aS''
asI127600
(lp49
S''
aS''
aS''
aS''
aS''
asI127601
(lp50
S' ERROR -- SEN2 is NOT stable, tell CESR and then call\r\n'
p51
aS' ERROR -- SEN2 is NOT stable, tell CESR and then call\r\n'
p52
aS' ERROR -- SEN2 is NOT stable, tell CESR and then call\r\n'
p53
aS' ERROR -- SEN2 is NOT stable, tell CESR and then call\r\n'
p54
aS' ERROR -- SEN2 is NOT stable, tell CESR and then call\r\n'
p55
asI127602
(lp56
S' ERROR -- SEN2 is NOT stable, tell CESR and then call\r\n'
p57
aS' ERROR -- SEN2 is NOT stable, tell CESR and then call\r\n'
p58
aS' ERROR -- SEN2 is NOT stable, tell CESR and then call\r\n'
p59
aS' ERROR -- SEN2 is NOT stable, tell CESR and then call\r\n'
p60
aS' ERROR -- SEN2 is NOT stable, tell CESR and then call\r\n'
p61
asI127603
(lp62
S''
aS''
aS''
aS''
aS''
asI127606
(lp63
S' ERROR -- SEN2 is NOT stable, tell CESR and then call\r\n'
p64
aS''
aS' ERROR -- SEN2 is NOT stable, tell CESR and then call\r\n'
p65
aS''
aS' ERROR -- SEN2 is NOT stable, tell CESR and then call\r\n'
p66
asI127610
(lp67
S''
aS''
aS''
aS''
aS''
asI127611
(lp68
S''
aS''
aS''
aS''
aS''
aS''
aS''
asI127612
(lp69
S''
aS''
aS''
aS''
aS''
aS''
aS''
asI127613
(lp70
S''
aS''
aS''
aS''
aS''
aS''
aS''
asI127615
(lp71
S''
aS''
aS''
aS''
aS''
aS''
asI124641
(lp72
S''
aS''
aS''
aS''
asI125127
(lp73
S''
aS''
aS''
aS''
asI125125
(lp74
S''
aS''
aS''
asI122263
(lp75
S''
aS''
asI125126
(lp76
S''
aS''
aS''
aS''
asI124671
(lp77
S''
aS''
aS''
aS''
aS''
aS''
aS''
asI124080
(lp78
S''
aS''
aS''
aS''
aS''
asI124081
(lp79
S''
aS''
aS''
aS''
aS''
asI124084
(lp80
S''
aS''
aS''
aS''
asI124085
(lp81
S''
aS''
aS''
aS''
aS''
aS''
asI124086
(lp82
S''
aS''
aS''
aS''
aS''
asI124087
(lp83
S''
aS''
aS''
aS''
aS''
asI123781
(lp84
S''
aS''
aS''
aS''
aS''
aS''
asI124089
(lp85
S''
aS''
aS''
asI124091
(lp86
S''
aS''
aS''
aS''
asI124092
(lp87
S''
aS''
asI125119
(lp88
S''
aS''
aS''
aS''
asI125120
(lp89
S''
aS''
aS''
aS''
asI125121
(lp90
S''
aS''
aS''
aS''
asI125122
(lp91
S''
aS''
aS''
aS''
asI124338
(lp92
S''
aS''
aS''
aS''
aS''
aS''
aS''
asI124102
(lp93
S''
aS''
aS''
aS''
aS''
aS''
aS''
aS''
aS''
aS''
aS''
aS''
asI124103
(lp94
S''
aS''
aS''
aS''
asI124293
(lp95
S''
aS''
aS''
aS''
asI124106
(lp96
S''
aS''
aS''
asI124107
(lp97
S''
aS''
aS''
asI124109
(lp98
S''
aS''
aS''
asI124110
(lp99
S''
aS''
aS''
asI124111
(lp100
S''
aS''
aS''
asI124112
(lp101
S''
aS''
aS''
asI123601
(lp102
S''
aS''
aS''
aS''
aS''
asI123602
(lp103
S''
aS''
aS''
aS''
aS''
asI123603
(lp104
S''
aS''
aS''
aS''
aS''
asI123604
(lp105
S''
aS''
aS''
aS''
asI123598
(lp106
S''
aS''
aS''
aS''
aS''
asI123782
(lp107
S''
aS' ERROR -- SEN1 is NOT stable, tell CESR and then call\r\n'
p108
aS' ERROR -- SEN1 is NOT stable, tell CESR and then call\r\n'
p109
aS' ERROR -- SEN1 is NOT stable, tell CESR and then call\r\n'
p110
aS''
asI124281
(lp111
S'The energy program has exited because of an ERROR.\r\n'
p112
aS'The energy program has exited because of an ERROR.\r\n'
p113
asI123608
(lp114
S''
aS''
aS''
aS''
aS''
aS''
asI124633
(lp115
S''
aS''
aS''
aS''
aS''
asI123610
(lp116
S''
aS''
aS''
aS''
aS''
aS''
aS''
asI123599
(lp117
S''
aS''
aS''
aS''
aS''
asI123612
(lp118
S''
aS''
aS''
aS''
asI123615
(lp119
S''
aS''
aS''
aS''
aS''
asI123616
(lp120
S''
aS''
aS''
aS''
aS''
aS''
aS''
asI123600
(lp121
S''
aS''
aS''
aS''
aS''
asI123618
(lp122
S''
aS''
aS''
aS''
aS''
aS''
aS''
asI123619
(lp123
S''
aS''
aS''
aS''
aS''
aS''
aS''
asI123620
(lp124
S''
aS''
aS''
aS''
aS''
aS''
aS''
asI123621
(lp125
S''
aS''
aS''
aS''
aS''
aS''
asI124294
(lp126
S''
aS''
aS''
aS''
asI123623
(lp127
S''
aS''
aS''
aS''
aS''
aS''
aS''
asI123624
(lp128
S''
aS''
aS''
aS''
aS''
aS''
aS''
asI124626
(lp129
S''
aS''
aS''
aS''
aS' ERROR -- SEN1 is NOT stable, tell CESR and then call\r\n'
p130
asI124142
(lp131
S''
asI123631
(lp132
S''
asI124144
(lp133
S''
aS''
aS''
aS''
aS''
aS''
asI123633
(lp134
S''
aS''
aS''
aS''
aS''
asI124146
(lp135
S''
aS''
aS''
aS''
asI123635
(lp136
S''
aS''
aS''
aS''
aS''
aS''
asI124148
(lp137
S''
aS''
aS''
asI124149
(lp138
S''
aS''
aS''
asI124150
(lp139
S''
aS''
aS''
aS''
aS''
aS''
asI123639
(lp140
S''
aS''
aS''
aS''
aS''
aS''
asI124152
(lp141
S''
aS''
aS''
aS''
aS''
aS''
aS''
asI124153
(lp142
S''
aS''
aS''
aS''
aS''
aS''
aS''
asI124154
(lp143
S''
aS''
aS''
aS''
aS''
aS''
aS''
asI124155
(lp144
S''
asI124156
(lp145
S''
aS''
aS''
aS''
aS''
aS''
aS''
asI123645
(lp146
S''
aS''
aS''
aS''
aS''
aS''
aS''
asI124159
(lp147
S''
aS''
aS''
aS''
asI124672
(lp148
S''
aS''
aS''
aS''
aS''
aS''
aS''
asI124329
(lp149
S''
aS''
aS''
aS''
aS''
aS''
aS''
asI123636
(lp150
S''
aS''
aS''
aS''
aS''
aS''
aS''
asI124675
(lp151
S''
aS''
aS''
aS''
aS''
aS''
aS''
asI124676
(lp152
S''
aS''
aS''
aS''
aS''
aS''
aS''
asI123606
(lp153
S''
aS''
aS''
aS''
aS''
asI124679
(lp154
S''
asI124680
(lp155
S''
aS''
aS''
aS''
aS''
aS''
aS''
asI124681
(lp156
S''
aS''
aS''
aS''
aS''
aS''
asI123607
(lp157
S''
asI124632
(lp158
S''
aS''
aS''
aS''
aS''
asI127927
(lp159
S''
aS''
aS''
aS''
aS''
asI122245
(lp160
S''
aS''
aS''
aS''
aS''
aS''
aS''
asI123597
(lp161
S''
aS''
aS''
aS''
aS''
asI124279
(lp162
S'The energy program has exited because of an ERROR.\r\n'
p163
aS'The energy program has exited because of an ERROR.\r\n'
p164
asI122246
(lp165
S''
aS''
aS''
aS''
aS''
aS''
aS''
aS''
aS''
asI128305
(lp166
S''
aS''
aS''
aS''
asI124636
(lp167
S''
aS''
asI123783
(lp168
S''
aS''
aS''
aS''
asI128303
(lp169
S''
aS''
aS''
aS''
asI124296
(lp170
S''
aS''
aS''
aS''
asI128306
(lp171
S''
aS''
aS''
aS''
aS''
aS''
asI127928
(lp172
S''
aS''
aS''
aS''
aS''
asI128309
(lp173
S''
aS''
asI128310
(lp174
S''
asI128312
(lp175
S''
aS''
asI128313
(lp176
S' ERROR -- SEN2 is NOT stable, tell CESR and then call\r\n'
p177
aS''
aS''
asI128315
(lp178
S''
aS''
aS''
aS''
asI128316
(lp179
S''
aS''
aS''
aS''
asI123632
(lp180
S''
aS''
aS''
aS''
aS''
aS''
asI124640
(lp181
S''
asI123787
(lp182
S''
aS''
aS''
aS' ERROR -- SEN1 is NOT stable, tell CESR and then call\r\n'
p183
asI125254
(lp184
S''
aS' ERROR -- SEN1 is NOT stable, tell CESR and then call\r\n'
p185
aS' ERROR -- SEN1 is NOT stable, tell CESR and then call\r\n'
p186
aS''
asI125255
(lp187
S''
aS''
aS''
aS''
asI125256
(lp188
S''
aS''
aS''
aS''
asI125257
(lp189
S''
aS''
aS''
aS''
asI125259
(lp190
S''
aS''
aS''
aS''
asI125260
(lp191
S''
aS''
aS''
aS''
asI125261
(lp192
S''
aS''
aS''
aS''
asI125262
(lp193
S''
aS''
aS''
aS''
asI123789
(lp194
S''
aS''
aS''
aS''
asI123790
(lp195
S''
aS''
aS''
aS''
asI124639
(lp196
S''
aS''
aS''
aS''
asI123792
(lp197
S''
aS''
aS''
aS''
aS''
aS''
aS''
asI125285
(lp198
S''
aS''
aS''
asI125286
(lp199
S''
aS''
aS''
aS''
asI125287
(lp200
S''
aS''
aS''
aS''
asI123821
(lp201
S''
aS''
aS''
asI125290
(lp202
S''
aS''
aS''
asI125291
(lp203
S''
aS''
aS''
aS''
asI125293
(lp204
S''
aS''
aS''
asI125294
(lp205
S''
aS''
aS''
aS''
asI125295
(lp206
S''
aS''
aS''
aS''
asI125303
(lp207
S''
aS''
aS' ERROR -- SEN1 is NOT stable, tell CESR and then call\r\n'
p208
aS' ERROR -- SEN1 is NOT stable, tell CESR and then call\r\n'
p209
asI122253
(lp210
S''
aS''
aS''
aS''
aS''
aS''
aS''
aS''
aS''
asI125305
(lp211
S''
aS''
aS''
aS''
asI124282
(lp212
S''
aS''
aS''
aS''
aS''
aS''
asI125307
(lp213
S''
aS''
aS''
aS''
asI125308
(lp214
S''
aS''
aS''
aS''
aS''
aS''
asI125309
(lp215
S''
aS''
aS''
aS''
asI125310
(lp216
S''
aS''
aS''
aS''
asI125311
(lp217
S''
aS''
aS''
aS''
asI125312
(lp218
S''
aS''
aS''
aS''
asI124289
(lp219
S''
aS''
asI124290
(lp220
S''
aS''
aS''
aS''
asI124291
(lp221
S''
aS''
aS''
aS''
asI125316
(lp222
S''
aS''
aS''
aS''
aS''
aS''
aS''
asI125317
(lp223
S''
aS''
aS''
aS''
aS''
aS''
aS''
asI125318
(lp224
S''
aS''
aS''
aS''
aS''
aS''
aS''
asI122247
(lp225
S''
aS''
aS''
aS''
aS''
aS''
aS''
aS''
aS''
aS''
aS''
aS''
aS''
asI123784
(lp226
S''
aS''
aS''
aS''
asI122249
(lp227
S''
aS''
aS''
aS''
aS''
aS''
aS''
asI123786
(lp228
S''
aS''
aS''
aS''
asI122251
(lp229
S''
aS''
aS''
aS''
aS''
aS''
aS''
aS''
asI122252
(lp230
S''
aS''
aS''
aS''
aS''
aS''
aS''
aS''
aS''
asI125325
(lp231
S''
aS''
aS''
aS''
aS''
aS''
aS''
asI125326
(lp232
S''
aS''
aS''
aS''
aS''
aS''
aS''
asI125327
(lp233
S''
aS''
aS''
aS''
aS''
aS''
asI122256
(lp234
S''
aS''
aS''
aS''
aS''
aS''
asI125329
(lp235
S''
aS''
aS''
aS''
asI125331
(lp236
S''
aS''
aS''
aS''
aS''
asI125335
(lp237
S''
aS''
aS''
aS''
aS''
aS''
asI125337
(lp238
S''
aS''
aS''
aS''
aS''
aS''
asI125338
(lp239
S''
aS''
aS''
aS''
aS''
aS''
aS''
asI125339
(lp240
S''
aS''
aS''
aS''
aS''
aS''
aS''
asI125340
(lp241
S''
aS''
aS''
aS''
aS''
aS''
aS''
asI125342
(lp242
S''
aS''
aS''
aS''
aS''
aS''
aS''
aS''
asI125343
(lp243
S''
aS''
aS''
aS''
aS''
aS''
asI125344
(lp244
S''
aS''
aS''
aS''
aS''
aS''
aS''
asI125345
(lp245
S''
aS''
aS''
aS''
aS''
aS''
aS''
asI125346
(lp246
S''
aS''
aS''
aS''
aS''
aS''
aS''
asI125347
(lp247
S''
aS''
aS''
asI125348
(lp248
S''
asI122277
(lp249
S''
aS''
aS''
aS''
aS''
aS''
aS''
aS''
aS''
aS''
aS''
aS''
aS''
aS''
asI122278
(lp250
S''
aS''
aS''
asI125351
(lp251
S''
aS''
aS''
asI122280
(lp252
S''
aS''
aS''
aS''
aS''
aS''
aS''
aS''
aS''
aS''
aS''
aS''
aS''
aS''
asI125353
(lp253
S''
aS''
aS''
aS''
aS''
aS''
aS''
asI125354
(lp254
S''
aS''
aS''
aS''
aS''
aS''
asI122283
(lp255
S''
aS''
aS''
aS''
aS''
aS''
aS''
aS''
aS''
aS''
aS''
asI124437
(lp256
S''
aS''
asI125357
(lp257
S''
aS''
aS''
aS''
aS''
asI122286
(lp258
S''
aS''
aS''
aS''
aS''
aS''
aS''
aS''
aS''
aS''
asI123823
(lp259
S''
aS''
aS''
aS''
aS''
aS''
aS''
asI124336
(lp260
S''
aS''
aS''
aS''
aS''
aS' ERROR -- SEN1 is NOT stable, tell CESR and then call\r\n'
p261
aS''
asI124337
(lp262
S''
aS''
aS''
aS''
aS''
aS''
aS''
asI123826
(lp263
S''
aS''
asI126449
(lp264
S''
aS''
aS''
asI123828
(lp265
S' ERROR -- SEN1 is NOT stable, tell CESR and then call\r\n'
p266
aS''
asI123829
(lp267
S''
aS''
aS''
aS''
aS''
aS''
aS''
asI123830
(lp268
S''
aS''
aS' ERROR -- SEN1 is NOT stable, tell CESR and then call\r\n'
p269
aS' ERROR -- SEN1 is NOT stable, tell CESR and then call\r\n'
p270
aS' ERROR -- SEN1 is NOT stable, tell CESR and then call\r\n'
p271
aS''
asI125358
(lp272
S''
aS''
aS''
aS''
aS''
aS''
asI123832
(lp273
S''
aS''
aS''
asI123833
(lp274
S''
aS''
aS''
aS' ERROR -- SEN1 is NOT stable, tell CESR and then call\r\n'
p275
aS' ERROR -- SEN1 is NOT stable, tell CESR and then call\r\n'
p276
aS''
asI124625
(lp277
S''
aS''
aS''
aS''
asI127931
(lp278
S''
aS''
aS''
aS''
aS''
asI123836
(lp279
S''
aS''
aS''
aS''
aS' ERROR -- SEN1 is NOT stable, tell CESR and then call\r\n'
p280
aS''
aS''
asI127933
(lp281
S''
aS''
aS''
aS''
asI123637
(lp282
S''
aS''
aS''
aS''
aS''
asI124491
(lp283
S''
aS''
aS''
aS''
aS''
asI123638
(lp284
S''
asI122274
(lp285
S''
aS''
aS''
aS''
aS''
aS''
aS''
aS''
aS''
aS''
aS''
aS''
aS''
asI123640
(lp286
S''
aS''
aS''
aS''
aS''
aS''
aS''
asI122275
(lp287
S''
aS''
aS''
aS''
aS''
aS''
asI124333
(lp288
S''
aS' ERROR -- SEN1 is NOT stable, tell CESR and then call\r\n'
p289
aS''
aS''
asI122276
(lp290
S''
aS''
aS''
aS''
aS''
asI123617
(lp291
S''
aS''
aS''
aS''
aS''
aS''
aS''
asI123643
(lp292
S''
aS''
aS''
aS''
aS''
aS''
aS''
asI123644
(lp293
S''
aS''
aS''
aS''
aS''
aS''
aS''
asI122279
(lp294
S''
aS''
aS''
aS''
aS''
aS''
aS''
aS''
asI126461
(lp295
S''
aS''
aS''
aS''
asI123641
(lp296
S''
aS''
aS''
aS''
aS''
aS''
asI124328
(lp297
S''
aS''
aS''
aS''
aS''
aS''
aS''
asI126451
(lp298
S''
aS''
asI126453
(lp299
S''
asI126454
(lp300
S''
aS''
asI122281
(lp301
S''
aS''
asI128307
(lp302
S''
aS''
asI126460
(lp303
S''
aS''
aS''
aS''
asI124330
(lp304
S''
aS''
aS''
aS''
aS''
asI126462
(lp305
S''
as.