(dp1
I126464
(lp2
F5010.6819999999998
aF5010.7799999999997
aF5010.7809999999999
asI126465
(lp3
F5010.6390000000001
aF5010.6629999999996
aF5010.7640000000001
aF5010.7640000000001
asI126467
(lp4
F5010.6459999999997
aF5010.6440000000002
asI126469
(lp5
F5012.6450000000004
aF5012.6670000000004
aF5012.6379999999999
aF5012.6229999999996
aF5012.625
asI124673
(lp6
F4730.0590000000002
aF4730.0540000000001
aF4730.0810000000001
aF4730.0519999999997
aF4730.0829999999996
aF4730.0510000000004
aF4730.1000000000004
asI124674
(lp7
F4730.1099999999997
aF4730.0829999999996
aF4730.0889999999999
aF4730.0810000000001
aF4730.0730000000003
aF4730.0810000000001
aF4729.5190000000002
asI122285
(lp8
F5179.3339999999998
aF5179.3599999999997
aF5179.3620000000001
aF5179.3320000000003
aF5179.3620000000001
aF5179.3649999999998
aF5179.3950000000004
aF5179.3590000000004
aF5179.3299999999999
aF5179.3879999999999
aF5179.3320000000003
aF5179.3620000000001
asI124436
(lp9
F4729.1030000000001
aF4729.1000000000004
asI123822
(lp10
F4729.8829999999998
aF4729.884
aF4729.924
aF4729.9099999999999
aF4729.884
aF4729.8760000000002
aF4729.8829999999998
asI124440
(lp11
F4738.7659999999996
aF4738.7650000000003
aF4738.7709999999997
aF4738.7600000000002
asI124335
(lp12
F4730.1700000000001
aF4730.1679999999997
aF4730.1679999999997
asI124444
(lp13
F4736.7539999999999
aF4736.7209999999995
aF4736.7219999999998
asI124445
(lp14
F4727.6149999999998
aF4727.6149999999998
aF4727.6180000000004
asI124677
(lp15
F4730.076
aF4730.1149999999998
aF4730.116
aF4730.116
asI124448
(lp16
F4734.6639999999998
aF4734.6940000000004
aF4734.6949999999997
asI124449
(lp17
F4732.6009999999997
aF4732.5730000000003
aF4732.6260000000002
asI124450
(lp18
F4729.0450000000001
aF4729.0460000000003
aF4729.0870000000004
asI124451
(lp19
F4730.0929999999998
aF4730.0659999999998
aF4730.0699999999997
aF4730.0680000000002
aF4730.0659999999998
aF4726.701
asI122413
(lp20
F5185.3549999999996
asI122415
(lp21
F5174.5119999999997
asI124629
(lp22
F4726.6850000000004
aF4726.7139999999999
aF4726.6729999999998
asI127924
(lp23
F5010.5069999999996
aF5010.5079999999998
aF5010.5469999999996
aF5010.5529999999999
aF5010.5230000000001
asI127925
(lp24
F5010.4899999999998
aF5010.5219999999999
aF5010.4920000000002
aF5010.5469999999996
aF5010.5240000000003
aF5010.5249999999996
asI124481
(lp25
F4730.085
aF4730.1149999999998
aF4730.0829999999996
aF4730.0889999999999
aF4730.0870000000004
aF4730.058
aF4729.5559999999996
asI124484
(lp26
F4730.1109999999999
aF4730.1130000000003
aF4730.1120000000001
aF4730.1099999999997
aF4730.1090000000004
asI124486
(lp27
F4730.1099999999997
aF4730.1390000000001
aF4730.1059999999998
aF4730.1099999999997
aF4730.1030000000001
aF4730.076
asI124490
(lp28
F4730.1130000000003
aF4730.1139999999996
aF4730.1130000000003
asI123831
(lp29
F4729.2439999999997
aF4729.2439999999997
aF4729.875
aF4729.8720000000003
aF4729.9049999999997
aF4729.8950000000004
aF4729.8670000000002
asI124492
(lp30
F4730.1369999999997
aF4730.1689999999999
aF4730.1679999999997
aF4730.1379999999999
aF4730.1660000000002
aF4730.1350000000002
aF4729.5410000000002
asI124493
(lp31
F4730.1689999999999
aF4730.1390000000001
aF4730.1390000000001
aF4730.1390000000001
aF4730.1360000000004
aF4730.165
asI124495
(lp32
F4730.1670000000004
aF4730.1610000000001
aF4730.165
aF4730.1670000000004
aF4730.1689999999999
aF4730.1589999999997
aF4730.1580000000004
asI124630
(lp33
F4726.6679999999997
aF4726.7160000000003
asI122449
(lp34
F5179.5469999999996
asI123611
(lp35
F4728.8040000000001
aF4730.0200000000004
aF4729.9799999999996
aF4730.0050000000001
aF4729.9750000000004
aF4730.0069999999996
aF4730.0020000000004
asI127588
(lp36
F5010.6329999999998
aF5010.6369999999997
aF5010.6189999999997
aF5010.616
aF5010.6199999999999
aF5010.6220000000003
asI127589
(lp37
F5010.5389999999998
aF5010.5420000000004
aF5010.5129999999999
aF5010.5439999999999
aF5010.5429999999997
asI127592
(lp38
F5010.5379999999996
aF5010.5649999999996
aF5010.5690000000004
aF5010.5649999999996
aF5010.5950000000003
aF5010.5680000000002
aF5010.5389999999998
asI127932
(lp39
F5020.5460000000003
aF5020.5439999999999
aF5020.5420000000004
aF5020.5460000000003
aF5020.5429999999997
asI127594
(lp40
F5014.4070000000002
aF5014.4070000000002
aF5014.4409999999998
asI124334
(lp41
F4730.1779999999999
aF4730.1760000000004
aF4730.1710000000003
asI127598
(lp42
F5026.607
aF5026.5789999999997
aF5026.607
aF5026.5789999999997
asI127600
(lp43
F5008.674
aF5008.7349999999997
aF5008.7309999999998
aF5008.7039999999997
aF5008.7039999999997
asI127601
(lp44
F5015.9300000000003
aF5015.9049999999997
aF5015.9070000000002
aF5015.9080000000004
aF5015.9359999999997
asI127602
(lp45
F5021.2179999999998
aF5021.2200000000003
aF5021.1620000000003
aF5021.1620000000003
aF5021.1899999999996
asI127603
(lp46
F5006.643
aF5006.6480000000001
aF5006.6760000000004
aF5006.6450000000004
aF5006.6779999999999
asI127606
(lp47
F5018.3010000000004
aF5000.8950000000004
aF5018.2740000000003
aF4996.5569999999998
aF5018.2730000000001
asI127610
(lp48
F5010.598
aF5010.6009999999997
aF5010.5730000000003
aF5010.5410000000002
aF5010.5959999999995
asI127611
(lp49
F5010.5829999999996
aF5010.5839999999998
aF5010.5789999999997
aF5010.5799999999999
aF5010.5839999999998
aF5010.5839999999998
aF5010.5529999999999
asI127612
(lp50
F5010.5590000000002
aF5010.5870000000004
aF5010.5839999999998
aF5010.6120000000001
aF5010.5810000000001
aF5010.6149999999998
aF5010.6999999999998
asI127613
(lp51
F5013.9129999999996
aF5013.8850000000002
aF5013.8760000000002
aF5013.8770000000004
aF5013.902
aF5013.9359999999997
aF5013.9099999999999
asI127615
(lp52
F5012.9070000000002
aF5012.942
aF5012.9449999999997
aF5012.8549999999996
aF5012.8540000000003
aF5012.8519999999999
asI124641
(lp53
F4730.067
aF4730.058
aF4730.0690000000004
aF4730.0680000000002
asI125127
(lp54
F4734.817
aF4734.8450000000003
aF4734.8689999999997
aF4734.8999999999996
asI125125
(lp55
F4727.7939999999999
aF4727.7910000000002
aF4727.7650000000003
asI122263
(lp56
F5179.4660000000003
aF5179.5290000000005
asI125126
(lp57
F4727.7920000000004
aF4727.8199999999997
aF4727.7640000000001
aF4727.8230000000003
asI124671
(lp58
F4730.0950000000003
aF4730.0820000000003
aF4730.0900000000001
aF4730.0889999999999
aF4730.0900000000001
aF4730.0789999999997
aF4730.0969999999998
asI124080
(lp59
F4728.4570000000003
aF4728.4340000000002
aF4728.4620000000004
aF4728.4359999999997
aF4728.4340000000002
asI124081
(lp60
F4737.9179999999997
aF4737.9139999999998
aF4737.9399999999996
aF4737.915
aF4737.9430000000002
asI124084
(lp61
F4725.9660000000003
aF4725.9669999999996
aF4725.9660000000003
aF4725.9650000000001
asI124085
(lp62
F4735.8500000000004
aF4735.8770000000004
aF4735.875
aF4735.8779999999997
aF4735.9059999999999
aF4735.9059999999999
asI124086
(lp63
F4726.8410000000003
aF4726.8689999999997
aF4726.8670000000002
aF4726.8699999999999
aF4726.8670000000002
asI124087
(lp64
F4733.9390000000003
aF4733.9650000000001
aF4733.9639999999999
aF4733.9639999999999
aF4733.991
asI123781
(lp65
F4728.3609999999999
aF4728.3580000000002
aF4728.3860000000004
aF4728.3720000000003
aF4728.3729999999996
aF4728.3729999999996
asI124089
(lp66
F4731.8980000000001
aF4731.9009999999998
aF4731.8999999999996
asI124091
(lp67
F4728.3329999999996
aF4728.3370000000004
aF4728.3059999999996
aF4728.3280000000004
asI124092
(lp68
F4730.3040000000001
aF4730.3050000000003
asI125119
(lp69
F4729.335
aF4729.3029999999999
aF4729.3019999999997
aF4729.2740000000003
asI125120
(lp70
F4738.8410000000003
aF4738.8670000000002
aF4738.8699999999999
aF4738.8710000000001
asI125121
(lp71
F4726.7650000000003
aF4726.7979999999998
aF4726.7669999999998
aF4726.7539999999999
asI125122
(lp72
F4736.7979999999998
aF4736.79
aF4736.79
aF4736.7619999999997
asI124338
(lp73
F4730.1850000000004
aF4730.1869999999999
aF4730.1270000000004
aF4730.1880000000001
aF4730.1859999999997
aF4730.183
aF4730.1570000000002
asI124102
(lp74
F4728.3249999999998
aF4728.3239999999996
aF4728.3519999999999
aF4728.3230000000003
aF4728.3209999999999
aF4728.3190000000004
aF4728.3209999999999
aF4728.3199999999997
aF4728.3190000000004
aF4728.3190000000004
aF4728.3209999999999
aF4728.3490000000002
asI124103
(lp75
F4737.902
aF4737.933
aF4737.933
aF4737.9080000000004
asI124293
(lp76
F4732.6000000000004
aF4732.6570000000002
aF4732.6570000000002
aF4732.6869999999999
asI124106
(lp77
F4736
aF4735.9709999999995
aF4735.9989999999998
asI124107
(lp78
F4726.8599999999997
aF4726.8010000000004
aF4726.8320000000003
asI124109
(lp79
F4733.9030000000002
aF4733.933
aF4733.9290000000001
asI124110
(lp80
F4731.8620000000001
aF4731.8609999999999
aF4731.8639999999996
asI124111
(lp81
F4728.4530000000004
aF4728.4499999999998
aF4728.4530000000004
asI124112
(lp82
F4730.2579999999998
aF4730.2849999999999
aF4730.2579999999998
asI123601
(lp83
F4726.8609999999999
aF4726.8729999999996
aF4726.8890000000001
aF4726.8909999999996
aF4726.8599999999997
asI123602
(lp84
F4733.9459999999999
aF4733.9309999999996
aF4733.933
aF4733.9589999999998
aF4733.9620000000004
asI123603
(lp85
F4731.8699999999999
aF4731.8959999999997
aF4731.8959999999997
aF4731.8969999999999
aF4731.8990000000003
asI123604
(lp86
F4728.4520000000002
aF4728.4759999999997
aF4728.482
aF4728.4780000000001
asI123598
(lp87
F4725.9679999999998
aF4725.9719999999998
aF4725.9709999999995
aF4725.9709999999995
aF4725.9700000000003
asI123782
(lp88
F4737.9679999999998
aF4737.3530000000001
aF4737.3459999999995
aF4737.3450000000003
aF4737.9870000000001
asI124281
(lp89
F4738.6790000000001
aF4738.6850000000004
asI123608
(lp90
F4729.9449999999997
aF4730
aF4729.9639999999999
aF4729.9949999999999
aF4729.9930000000004
aF4729.9790000000003
asI124633
(lp91
F4734.665
aF4734.6030000000001
aF4734.6319999999996
aF4734.6239999999998
aF4734.6329999999998
asI123610
(lp92
F4730.0249999999996
aF4729.9830000000002
aF4730.0140000000001
aF4730.0140000000001
aF4729.9880000000003
aF4729.9870000000001
aF4730.0119999999997
asI123599
(lp93
F4735.9970000000003
aF4736.0100000000002
aF4736.0410000000002
aF4736.0410000000002
aF4736.0429999999997
asI123612
(lp94
F4730.0079999999998
aF4730.0169999999998
aF4730.0389999999998
aF4730.049
asI123615
(lp95
F4730.0379999999996
aF4730.04
aF4730.04
aF4730.0379999999996
aF4730.0690000000004
asI123616
(lp96
F4730.0739999999996
aF4730.076
aF4730.0420000000004
aF4730.0420000000004
aF4730.0659999999998
aF4730.04
aF4730.076
asI123600
(lp97
F4736.0299999999997
aF4736.0129999999999
aF4736.0330000000004
aF4736.0360000000001
aF4736.0249999999996
asI123618
(lp98
F4730.0699999999997
aF4730.076
aF4730.0420000000004
aF4730.0420000000004
aF4730.04
aF4730.0460000000003
aF4730.0410000000002
asI123619
(lp99
F4730.0420000000004
aF4730.0439999999999
aF4730.0429999999997
aF4730.076
aF4730.0410000000002
aF4730.04
aF4730.0699999999997
asI123620
(lp100
F4730.0720000000001
aF4730.0439999999999
aF4730.0619999999999
aF4730.0640000000003
aF4730.0900000000001
aF4730.0600000000004
aF4730.0299999999997
asI123621
(lp101
F4730.0320000000002
aF4730.0879999999997
aF4730.0630000000001
aF4730.0690000000004
aF4730.0609999999997
aF4730.0609999999997
asI124294
(lp102
F4729.1149999999998
aF4729.143
aF4729.1130000000003
aF4729.1109999999999
asI123623
(lp103
F4730.0630000000001
aF4730.0630000000001
aF4730.0649999999996
aF4730.0870000000004
aF4730.0609999999997
aF4730.0469999999996
aF4730.0749999999998
asI123624
(lp104
F4730.0479999999998
aF4730.0780000000004
aF4730.0469999999996
aF4730.0460000000003
aF4730.0550000000003
aF4730.0510000000004
aF4730.0439999999999
asI124626
(lp105
F4738.6220000000003
aF4738.6239999999998
aF4738.6499999999996
aF4738.6220000000003
aF4738.0209999999997
asI124142
(lp106
F4730.2359999999999
asI123631
(lp107
F4730.0569999999998
asI124144
(lp108
F4730.2610000000004
aF4730.2309999999998
aF4730.2290000000003
aF4730.2619999999997
aF4730.2629999999999
aF4730.2619999999997
asI123633
(lp109
F4730.0559999999996
aF4730.0500000000002
aF4730.0469999999996
aF4730.058
aF4730.0469999999996
asI124146
(lp110
F4730.2629999999999
aF4730.2600000000002
aF4730.259
aF4730.2600000000002
asI123635
(lp111
F4730.0510000000004
aF4730.0500000000002
aF4730.0590000000002
aF4730.0519999999997
aF4730.0510000000004
aF4730.0190000000002
asI124148
(lp112
F4730.2619999999997
aF4730.2650000000003
aF4730.2669999999998
asI124149
(lp113
F4730.2640000000001
aF4730.2920000000004
aF4730.2600000000002
asI124150
(lp114
F4730.2950000000001
aF4730.2650000000003
aF4730.2929999999997
aF4730.2910000000002
aF4730.2910000000002
aF4730.2870000000003
asI123639
(lp115
F4730.0200000000004
aF4730.0209999999997
aF4730.0200000000004
aF4730.0209999999997
aF4730.0259999999998
aF4730.0159999999996
asI124152
(lp116
F4730.2910000000002
aF4730.3199999999997
aF4730.3299999999999
aF4730.3299999999999
aF4730.3310000000001
aF4730.3310000000001
aF4730.2969999999996
asI124153
(lp117
F4730.3299999999999
aF4730.3289999999997
aF4730.3289999999997
aF4730.3280000000004
aF4730.3280000000004
aF4730.3239999999996
aF4730.3190000000004
asI124154
(lp118
F4730.3230000000003
aF4730.3509999999997
aF4730.3540000000003
aF4730.3559999999998
aF4730.3220000000001
aF4730.3230000000003
aF4730.3209999999999
asI124155
(lp119
F4730.326
asI124156
(lp120
F4730.3239999999996
aF4730.3530000000001
aF4730.3230000000003
aF4730.3249999999998
aF4730.3540000000003
aF4730.3500000000004
aF4730.3249999999998
asI123645
(lp121
F4730.1390000000001
aF4730.1369999999997
aF4730.1679999999997
aF4730.1710000000003
aF4730.1670000000004
aF4730.1660000000002
aF4730.1369999999997
asI124159
(lp122
F4730.3540000000003
aF4730.3810000000003
aF4730.3549999999996
aF4730.3220000000001
asI124672
(lp123
F4730.0990000000002
aF4730.0720000000001
aF4730.076
aF4730.085
aF4730.085
aF4730.0810000000001
aF4730.0429999999997
asI124329
(lp124
F4730.1210000000001
aF4730.1469999999999
aF4730.1149999999998
aF4730.1390000000001
aF4730.1379999999999
aF4730.1620000000003
aF4730.1310000000003
asI123636
(lp125
F4730.0510000000004
aF4730.0519999999997
aF4730.0209999999997
aF4730.049
aF4730.0519999999997
aF4730.049
aF4730.0190000000002
asI124675
(lp126
F4730.0969999999998
aF4730.1099999999997
aF4730.0810000000001
aF4730.0820000000003
aF4730.0789999999997
aF4730.0780000000004
aF4730.0810000000001
asI124676
(lp127
F4730.0829999999996
aF4730.0709999999999
aF4730.0820000000003
aF4730.0829999999996
aF4730.1180000000004
aF4730.0900000000001
aF4730.0770000000002
asI123606
(lp128
F4725.9700000000003
aF4725.9579999999996
aF4725.9549999999999
aF4725.9899999999998
aF4725.96
asI124679
(lp129
F4730.0839999999998
asI124680
(lp130
F4730.085
aF4730.0749999999998
aF4730.076
aF4730.0780000000004
aF4730.0569999999998
aF4730.0839999999998
aF4730.0429999999997
asI124681
(lp131
F4730.076
aF4730.0749999999998
aF4730.0860000000002
aF4730.0860000000002
aF4730.0879999999997
aF4730.0460000000003
asI123607
(lp132
F4731.8710000000001
asI124632
(lp133
F4727.5860000000002
aF4727.5860000000002
aF4727.558
aF4727.5590000000002
aF4727.558
asI127927
(lp134
F5010.5060000000003
aF5010.5060000000003
aF5010.5
aF5010.5079999999998
aF5010.5029999999997
asI122245
(lp135
F5177.4009999999998
aF5177.3710000000001
aF5177.3990000000003
aF5177.4250000000002
aF5177.3860000000004
aF5177.3829999999998
aF5177.3879999999999
asI123597
(lp136
F4737.9470000000001
aF4737.9530000000004
aF4737.9459999999999
aF4738.0739999999996
aF4738.0770000000002
asI124279
(lp137
F4729.1130000000003
aF4729.1400000000003
asI122246
(lp138
F5182.3680000000004
aF5182.3689999999997
aF5182.3699999999999
aF5182.3969999999999
aF5182.3639999999996
aF5182.3670000000002
aF5182.3940000000002
aF5182.3950000000004
aF5182.3720000000003
asI128305
(lp139
F5042.6409999999996
aF5042.6689999999999
aF5042.6700000000001
aF5042.6909999999998
asI124636
(lp140
F4732.5609999999997
aF4732.5219999999999
asI123783
(lp141
F4725.826
aF4725.8540000000003
aF4725.8559999999998
aF4725.8639999999996
asI128303
(lp142
F5012.732
aF5012.7330000000002
aF5012.7340000000004
aF5012.7290000000003
asI124296
(lp143
F4731.0190000000002
aF4731.0500000000002
aF4731.0500000000002
aF4731.0460000000003
asI128306
(lp144
F5013.79
aF5013.8149999999996
aF5013.8149999999996
aF5013.8159999999998
aF5013.8159999999998
aF5013.8159999999998
asI127928
(lp145
F5017.4430000000002
aF5017.473
aF5017.4769999999999
aF5017.4459999999999
aF5017.4430000000002
asI128309
(lp146
F5015.2299999999996
aF5015.2330000000002
asI128310
(lp147
F5039.8580000000002
asI128312
(lp148
F5039.8850000000002
aF5039.8940000000002
asI128313
(lp149
F5011.1419999999998
aF5040.8239999999996
aF5010.5280000000002
asI128315
(lp150
F5012.5839999999998
aF5012.6620000000003
aF5012.6329999999998
aF5012.6319999999996
asI128316
(lp151
F5012.7520000000004
aF5012.777
aF5012.7809999999999
aF5012.7759999999998
asI123632
(lp152
F4730.0600000000004
aF4730.0649999999996
aF4730.067
aF4730.0600000000004
aF4730.0630000000001
aF4730.0600000000004
asI124640
(lp153
F4730.0299999999997
asI123787
(lp154
F4733.9939999999997
aF4733.9920000000002
aF4733.9960000000001
aF4733.3829999999998
asI125254
(lp155
F4729.3860000000004
aF4727.7330000000002
aF4727.7299999999996
aF4729.357
asI125255
(lp156
F4738.8649999999998
aF4738.8919999999998
aF4738.866
aF4738.8950000000004
asI125256
(lp157
F4726.9049999999997
aF4726.9080000000004
aF4726.875
aF4726.933
asI125257
(lp158
F4736.759
aF4736.7569999999996
aF4736.7870000000003
aF4736.817
asI125259
(lp159
F4727.777
aF4727.777
aF4727.8050000000003
aF4727.8069999999998
asI125260
(lp160
F4734.857
aF4734.8580000000002
aF4734.8559999999998
aF4734.8850000000002
asI125261
(lp161
F4732.7929999999997
aF4732.7939999999999
aF4732.8249999999998
aF4732.7920000000004
asI125262
(lp162
F4729.2820000000002
aF4729.2790000000005
aF4729.2790000000005
aF4729.3069999999998
asI123789
(lp163
F4731.9319999999998
aF4731.9799999999996
aF4731.9790000000003
aF4731.9769999999999
asI123790
(lp164
F4728.3900000000003
aF4728.3800000000001
aF4728.4070000000002
aF4728.4080000000004
asI124639
(lp165
F4729.0420000000004
aF4729.049
aF4729.049
aF4729.049
asI123792
(lp166
F4729.8389999999999
aF4729.8370000000004
aF4729.8649999999998
aF4729.8999999999996
aF4729.8999999999996
aF4729.8649999999998
aF4729.8609999999999
asI125285
(lp167
F4729.308
aF4729.3069999999998
aF4729.3329999999996
asI125286
(lp168
F4738.8490000000002
aF4738.875
aF4738.875
aF4738.8770000000004
asI125287
(lp169
F4726.9359999999997
aF4726.9359999999997
aF4726.9489999999996
aF4726.9480000000003
asI123821
(lp170
F4729.8500000000004
aF4729.8770000000004
aF4729.8909999999996
asI125290
(lp171
F4736.8149999999996
aF4736.8310000000001
aF4736.8040000000001
asI125291
(lp172
F4727.8509999999997
aF4727.8360000000002
aF4727.8500000000004
aF4727.8509999999997
asI125293
(lp173
F4734.8990000000003
aF4734.9319999999998
aF4734.9290000000001
asI125294
(lp174
F4732.8680000000004
aF4732.8400000000001
aF4732.8530000000001
aF4732.835
asI125295
(lp175
F4729.3389999999999
aF4729.3459999999995
aF4729.3389999999999
aF4729.3429999999998
asI125303
(lp176
F4730.1040000000003
aF4730.1229999999996
aF4728.4709999999995
aF4728.4690000000001
asI122253
(lp177
F5185.3490000000002
aF5185.3530000000001
aF5185.3649999999998
aF5185.3819999999996
aF5185.4099999999999
aF5185.3789999999999
aF5185.3770000000004
aF5185.3739999999998
aF5185.3490000000002
asI125305
(lp178
F4738.8639999999996
aF4738.8649999999998
aF4738.893
aF4738.866
asI124282
(lp179
F4726.7399999999998
aF4726.7430000000004
aF4726.625
aF4726.7520000000004
aF4726.7820000000002
aF4726.7700000000004
asI125307
(lp180
F4726.875
aF4726.9009999999998
aF4726.9160000000002
aF4726.915
asI125308
(lp181
F4736.9229999999998
aF4736.8959999999997
aF4736.9489999999996
aF4736.9229999999998
aF4736.0879999999997
aF4727.7269999999999
asI125309
(lp182
F4727.7560000000003
aF4727.7560000000003
aF4727.7839999999997
aF4727.7820000000002
asI125310
(lp183
F4734.8069999999998
aF4734.8379999999997
aF4734.8360000000002
aF4734.8339999999998
asI125311
(lp184
F4732.7690000000002
aF4732.7719999999999
aF4732.7650000000003
aF4732.7709999999997
asI125312
(lp185
F4730.1149999999998
aF4730.1450000000004
aF4730.1729999999998
aF4730.1700000000001
asI124289
(lp186
F4736.7780000000002
aF4736.7799999999997
asI124290
(lp187
F4727.6419999999998
aF4727.6419999999998
aF4727.6419999999998
aF4727.6419999999998
asI124291
(lp188
F4734.7200000000003
aF4734.7179999999998
aF4734.7470000000003
aF4734.7179999999998
asI125316
(lp189
F4730.2290000000003
aF4730.2569999999996
aF4730.2290000000003
aF4730.2849999999999
aF4730.2879999999996
aF4730.2870000000003
aF4730.2849999999999
asI125317
(lp190
F4730.259
aF4730.2619999999997
aF4730.2879999999996
aF4730.2870000000003
aF4730.2860000000001
aF4730.2579999999998
aF4730.2860000000001
asI125318
(lp191
F4730.29
aF4730.29
aF4730.2619999999997
aF4730.2849999999999
aF4730.2889999999998
aF4730.3190000000004
aF4730.2870000000003
asI122247
(lp192
F5190.424
aF5190.4549999999999
aF5190.4219999999996
aF5190.4219999999996
aF5190.4530000000004
aF5190.4530000000004
aF5190.4499999999998
aF5190.4110000000001
aF5190.4200000000001
aF5190.4250000000002
aF5190.4170000000004
aF5190.4160000000002
aF5190.4470000000001
asI123784
(lp193
F4735.9120000000003
aF4735.9040000000005
aF4735.9350000000004
aF4735.9340000000002
asI122249
(lp194
F5172.357
aF5172.3810000000003
aF5172.3779999999997
aF5172.3360000000002
aF5172.3689999999997
aF5172.3209999999999
aF5172.3689999999997
asI123786
(lp195
F4726.8720000000003
aF4726.8689999999997
aF4726.9229999999998
aF4726.8630000000003
asI122251
(lp196
F5188.3289999999997
aF5188.3130000000001
aF5188.326
aF5188.335
aF5188.3220000000001
aF5188.366
aF5188.3530000000001
aF5188.3329999999996
asI122252
(lp197
F5174.3459999999995
aF5174.3739999999998
aF5174.3459999999995
aF5174.3729999999996
aF5174.3280000000004
aF5174.3580000000002
aF5174.3559999999998
aF5174.3580000000002
aF5174.3580000000002
asI125325
(lp198
F4730.3180000000002
aF4730.29
aF4730.3100000000004
aF4730.3159999999998
aF4730.3149999999996
aF4730.317
aF4730.3410000000003
asI125326
(lp199
F4730.2839999999997
aF4730.3119999999999
aF4730.3180000000002
aF4730.3450000000003
aF4730.3149999999996
aF4730.3459999999995
aF4730.3109999999997
asI125327
(lp200
F4730.317
aF4730.3440000000001
aF4730.3440000000001
aF4730.3289999999997
aF4730.3299999999999
aF4730.3540000000003
asI122256
(lp201
F5177.2690000000002
aF5177.277
aF5177.2939999999999
aF5177.29
aF5177.29
aF5177.2579999999998
asI125329
(lp202
F4730.3680000000004
aF4730.366
aF4730.3389999999999
aF4730.3429999999998
asI125331
(lp203
F4730.3689999999997
aF4730.3680000000004
aF4730.3680000000004
aF4730.3680000000004
aF4730.3649999999998
asI125335
(lp204
F4730.3389999999999
aF4730.366
aF4730.3559999999998
aF4730.3270000000002
aF4730.3580000000002
aF4730.3289999999997
asI125337
(lp205
F4730.3559999999998
aF4730.3559999999998
aF4730.3609999999999
aF4730.3289999999997
aF4730.3320000000003
aF4730.3320000000003
asI125338
(lp206
F4730.3310000000001
aF4730.3329999999996
aF4730.3710000000001
aF4730.3720000000003
aF4730.3729999999996
aF4730.3149999999996
aF4730.3450000000003
asI125339
(lp207
F4730.3419999999996
aF4730.3710000000001
aF4730.3459999999995
aF4730.3419999999996
aF4730.3680000000004
aF4730.3400000000001
aF4730.3379999999997
asI125340
(lp208
F4730.3680000000004
aF4730.3680000000004
aF4730.3680000000004
aF4730.3419999999996
aF4730.3379999999997
aF4730.366
aF4730.3410000000003
asI125342
(lp209
F4730.3410000000003
aF4730.3689999999997
aF4730.3410000000003
aF4730.3410000000003
aF4730.3689999999997
aF4730.3419999999996
aF4728.7929999999997
aF4730.366
asI125343
(lp210
F4730.3639999999996
aF4730.335
aF4730.3959999999997
aF4730.3389999999999
aF4730.3670000000002
aF4730.366
asI125344
(lp211
F4730.3649999999998
aF4730.366
aF4730.424
aF4730.3630000000003
aF4730.3940000000002
aF4730.3909999999996
aF4730.366
asI125345
(lp212
F4730.3969999999999
aF4730.3940000000002
aF4730.3739999999998
aF4730.402
aF4730.3720000000003
aF4730.375
aF4730.3739999999998
asI125346
(lp213
F4730.4120000000003
aF4730.3800000000001
aF4730.3549999999996
aF4730.3540000000003
aF4730.3540000000003
aF4730.3819999999996
aF4730.4139999999998
asI125347
(lp214
F4730.3639999999996
aF4730.3630000000003
aF4730.3639999999996
asI125348
(lp215
F4730.3599999999997
asI122277
(lp216
F5179.3180000000002
aF5179.3469999999998
aF5179.3770000000004
aF5179.348
aF5179.3519999999999
aF5179.3760000000002
aF5179.348
aF5179.3729999999996
aF5179.3469999999998
aF5179.3459999999995
aF5179.3469999999998
aF5179.317
aF5179.3429999999998
aF5179.3370000000004
asI122278
(lp217
F5179.366
aF5179.3639999999996
aF5179.3680000000004
asI125351
(lp218
F4730.3909999999996
aF4730.3609999999999
aF4730.3580000000002
asI122280
(lp219
F5179.335
aF5179.3389999999999
aF5179.3370000000004
aF5179.3670000000002
aF5179.3389999999999
aF5179.335
aF5179.3360000000002
aF5179.3980000000001
aF5179.3400000000001
aF5179.3419999999996
aF5179.3379999999997
aF5179.3410000000003
aF5179.3360000000002
aF5179.3109999999997
asI125353
(lp220
F4730.3580000000002
aF4730.357
aF4730.357
aF4730.3519999999999
aF4730.357
aF4730.357
aF4730.357
asI125354
(lp221
F4730.3549999999996
aF4730.3530000000001
aF4730.3280000000004
aF4730.3549999999996
aF4730.3940000000002
aF4730.3370000000004
asI122283
(lp222
F5179.3440000000001
aF5179.3329999999996
aF5179.3329999999996
aF5179.3329999999996
aF5179.3360000000002
aF5179.3620000000001
aF5179.335
aF5179.3360000000002
aF5179.335
aF5179.3339999999998
aF5179.3339999999998
asI124437
(lp223
F4729.0969999999998
aF4729.0990000000002
asI125357
(lp224
F4730.3649999999998
aF4730.3370000000004
aF4730.3639999999996
aF4730.3630000000003
aF4730.366
asI122286
(lp225
F5179.3370000000004
aF5179.3670000000002
aF5179.3630000000003
aF5179.3379999999997
aF5179.3630000000003
aF5179.335
aF5179.3630000000003
aF5179.3620000000001
aF5179.3329999999996
aF5179.3620000000001
asI123823
(lp226
F4729.8779999999997
aF4729.884
aF4729.884
aF4729.9189999999999
aF4729.9099999999999
aF4729.8779999999997
aF4729.875
asI124336
(lp227
F4730.1679999999997
aF4730.2269999999999
aF4730.1980000000003
aF4730.1700000000001
aF4730.1719999999996
aF4729.5569999999998
aF4730.1840000000002
asI124337
(lp228
F4730.1850000000004
aF4730.1809999999996
aF4730.2110000000002
aF4730.1869999999999
aF4730.1880000000001
aF4730.1809999999996
aF4730.1840000000002
asI123826
(lp229
F4729.9030000000002
aF4729.9049999999997
asI126449
(lp230
F5015.3389999999999
aF5015.3699999999999
aF5015.3739999999998
asI123828
(lp231
F4729.2470000000003
aF4729.9160000000002
asI123829
(lp232
F4729.9160000000002
aF4729.9290000000001
aF4729.9300000000003
aF4729.9300000000003
aF4729.9290000000001
aF4729.8680000000004
aF4729.9030000000002
asI123830
(lp233
F4729.8990000000003
aF4729.8739999999998
aF4729.2449999999999
aF4729.2389999999996
aF4729.2430000000004
aF4729.915
asI125358
(lp234
F4730.3680000000004
aF4730.3680000000004
aF4730.3389999999999
aF4730.3680000000004
aF4730.366
aF4730.3400000000001
asI123832
(lp235
F4729.9269999999997
aF4729.9009999999998
aF4729.8990000000003
asI123833
(lp236
F4729.8950000000004
aF4729.924
aF4729.8969999999999
aF4729.2460000000001
aF4729.2309999999998
aF4729.8919999999998
asI124625
(lp237
F4729.1210000000001
aF4729.0910000000003
aF4729.0940000000001
aF4729.0839999999998
asI127931
(lp238
F5006.5720000000001
aF5006.6040000000003
aF5006.5770000000002
aF5006.6080000000002
aF5006.5780000000004
asI123836
(lp239
F4729.8959999999997
aF4729.9279999999999
aF4729.9250000000002
aF4729.8940000000002
aF4729.2330000000002
aF4729.9200000000001
aF4729.9219999999996
asI127933
(lp240
F5015.2569999999996
aF5015.2520000000004
aF5015.2520000000004
aF5015.2809999999999
asI123637
(lp241
F4730.018
aF4730.0230000000001
aF4730.0510000000004
aF4730.0200000000004
aF4730.0190000000002
asI124491
(lp242
F4730.1170000000002
aF4730.1189999999997
aF4730.1409999999996
aF4730.1409999999996
aF4730.1350000000002
asI123638
(lp243
F4730.049
asI122274
(lp244
F5179.3940000000002
aF5179.3950000000004
aF5179.3410000000003
aF5179.3670000000002
aF5179.3389999999999
aF5179.3680000000004
aF5179.3379999999997
aF5179.3680000000004
aF5179.366
aF5179.3649999999998
aF5179.3400000000001
aF5179.3130000000001
aF5179.3130000000001
asI123640
(lp245
F4730.018
aF4730.0479999999998
aF4730.0209999999997
aF4730.0209999999997
aF4730.018
aF4730.0460000000003
aF4729.9920000000002
asI122275
(lp246
F5179.3729999999996
aF5179.3440000000001
aF5179.3739999999998
aF5179.375
aF5179.3760000000002
aF5179.348
asI124333
(lp247
F4730.1329999999998
aF4729.5439999999999
aF4730.1329999999998
aF4730.165
asI122276
(lp248
F5179.317
aF5179.3419999999996
aF5179.3450000000003
aF5179.3459999999995
aF5179.3159999999998
asI123617
(lp249
F4730.04
aF4730.0410000000002
aF4730.0690000000004
aF4730.0739999999996
aF4730.0709999999999
aF4730.0699999999997
aF4730.0379999999996
asI123643
(lp250
F4730.174
aF4730.2079999999996
aF4730.1750000000002
aF4730.174
aF4730.183
aF4730.1459999999997
aF4730.1750000000002
asI123644
(lp251
F4730.174
aF4730.1459999999997
aF4730.1490000000003
aF4730.1459999999997
aF4730.1769999999997
aF4730.1360000000004
aF4730.1660000000002
asI122279
(lp252
F5179.3389999999999
aF5179.3370000000004
aF5179.3639999999996
aF5179.3379999999997
aF5179.3090000000002
aF5179.3360000000002
aF5179.335
aF5179.3329999999996
asI126461
(lp253
F5017.5510000000004
aF5017.549
aF5017.5529999999999
aF5017.5519999999997
asI123641
(lp254
F4730.0810000000001
aF4730.0699999999997
aF4730.2070000000003
aF4730.2030000000004
aF4730.1719999999996
aF4730.1710000000003
asI124328
(lp255
F4730.1189999999997
aF4730.1480000000001
aF4730.1459999999997
aF4730.1549999999997
aF4730.1880000000001
aF4730.183
aF4730.1869999999999
asI126451
(lp256
F5015.3519999999999
aF5015.3760000000002
asI126453
(lp257
F5015.3299999999999
asI126454
(lp258
F5020.616
aF5020.6480000000001
asI122281
(lp259
F5179.3410000000003
aF5179.3429999999998
asI128307
(lp260
F5008.4690000000001
aF5008.4960000000001
asI126460
(lp261
F5006.5519999999997
aF5006.5540000000001
aF5006.5529999999999
aF5006.5360000000001
asI124330
(lp262
F4730.1639999999998
aF4730.1589999999997
aF4730.1670000000004
aF4730.1400000000003
aF4730.1419999999998
asI126462
(lp263
F5010.6660000000002
as.