(dp1
I122993
(lp2
F5.17692
aF4.7290000000000001
aF4.7290000000000001
aF5.17692
aF5.17692
aF5.17692
aF5.17692
aF5.17692
aF5.17692
aF5.17692
aF5.17692
asI122995
(lp3
F5.19048
aF5.19048
aF5.19048
aF5.19048
aF5.19048
aF5.19048
aF5.19048
aF5.19048
aF5.19048
aF5.19048
asI122996
(lp4
F5.1744500000000002
aF5.19048
aF5.19048
aF5.19048
aF5.19048
aF5.1744500000000002
aF5.1744500000000002
aF5.1744500000000002
aF5.1744500000000002
aF5.1744500000000002
aF5.1744500000000002
aF5.1744500000000002
asI122998
(lp5
F5.17448
aF5.17448
aF5.17448
aF5.17448
aF5.17448
aF5.17448
aF5.17448
aF5.17448
asI122999
(lp6
F5.1823499999999996
aF5.17448
aF5.17448
aF5.17448
aF5.1823499999999996
aF5.1823499999999996
aF5.1823499999999996
aF5.1823499999999996
aF5.1823499999999996
aF5.1823499999999996
aF5.1823499999999996
aF5.1823499999999996
asI123001
(lp7
F5.1724300000000003
aF5.1724300000000003
aF5.1724300000000003
aF5.1724300000000003
aF5.1724300000000003
aF5.1724300000000003
aF5.1724300000000003
aF5.1724300000000003
aF5.1724300000000003
asI123002
(lp8
F5.1854300000000002
aF5.1724300000000003
aF5.1724300000000003
aF5.1724300000000003
aF5.1724300000000003
aF5.1854399999999998
aF5.1854399999999998
aF5.1854399999999998
aF5.1854399999999998
aF5.1854399999999998
aF5.1854399999999998
aF5.1854399999999998
aF5.1854399999999998
asI123003
(lp9
F5.18832
aF5.1854399999999998
aF5.1854399999999998
aF5.18832
aF5.18832
aF5.18832
aF5.18832
aF5.18832
aF5.18832
aF5.18832
aF5.18832
asI123004
(lp10
F5.1767799999999999
aF5.18832
aF5.1767799999999999
aF5.1767799999999999
aF5.1767799999999999
aF5.1767799999999999
aF5.1767799999999999
aF5.1767799999999999
aF5.1767799999999999
aF5.1767799999999999
aF5.1767799999999999
asI123020
(lp11
F5.1789300000000003
aF5.1650499999999999
aF5.1650499999999999
aF5.1789300000000003
aF5.1789300000000003
aF5.1789300000000003
aF5.1789300000000003
aF5.1789300000000003
aF5.1789300000000003
aF5.1789300000000003
aF5.1789300000000003
asI123021
(lp12
F5.1790200000000004
aF5.1790200000000004
aF5.1790200000000004
aF5.1790200000000004
aF5.1790200000000004
aF5.1790200000000004
aF5.1790200000000004
aF5.1790200000000004
aF5.1790200000000004
aF5.1790200000000004
aF5.1790200000000004
aF5.1790200000000004
aF5.1790200000000004
aF5.1790200000000004
asI123022
(lp13
F5.1790200000000004
aF5.1790200000000004
aF5.1790200000000004
aF5.1790200000000004
aF5.1790200000000004
aF5.1790200000000004
aF5.1790200000000004
aF5.1790200000000004
aF5.1790200000000004
aF5.1790200000000004
aF5.1790200000000004
aF5.1790200000000004
aF5.1790200000000004
aF5.1790200000000004
asI123023
(lp14
F5.1790200000000004
aF5.1790200000000004
aF5.1790200000000004
aF5.1790200000000004
aF5.1790200000000004
aF5.1790200000000004
aF5.1790200000000004
aF5.1790200000000004
aF5.1790200000000004
aF5.1790200000000004
aF5.1790200000000004
aF5.1790200000000004
aF5.1790200000000004
aF5.1790200000000004
asI123024
(lp15
F5.1790200000000004
aF5.1790200000000004
aF5.1790200000000004
aF5.1790200000000004
aF5.1790200000000004
aF5.1790200000000004
aF5.1790200000000004
aF5.1790200000000004
aF5.1790200000000004
aF5.1790200000000004
aF5.1790200000000004
aF5.1790200000000004
aF5.1790200000000004
aF5.1790200000000004
aF5.1790200000000004
asI123025
(lp16
F5.1790500000000002
aF5.1790500000000002
aF5.1790500000000002
aF5.1790500000000002
aF5.1790500000000002
aF5.1790500000000002
aF5.1790500000000002
aF5.1790500000000002
aF5.1790500000000002
aF5.1790500000000002
aF5.1790500000000002
aF5.1790500000000002
aF5.1790500000000002
aF5.1790500000000002
asI123026
(lp17
F5.1790200000000004
aF5.1790200000000004
aF5.1790200000000004
aF5.1790200000000004
aF5.1790200000000004
aF5.1790200000000004
aF5.1790200000000004
aF5.1790200000000004
aF5.1790200000000004
aF5.1790200000000004
aF5.1790200000000004
aF5.1790200000000004
aF5.1790200000000004
aF5.1790200000000004
asI123027
(lp18
F5.1790200000000004
aF5.1790200000000004
aF5.1790200000000004
aF5.1790200000000004
aF5.1790200000000004
aF5.1790200000000004
aF5.1790200000000004
aF5.1790200000000004
aF5.1790200000000004
aF5.1790200000000004
aF5.1790200000000004
aF5.1790200000000004
aF5.1790200000000004
aF5.1790200000000004
asI123028
(lp19
F5.1790200000000004
aF5.1790200000000004
aF5.1790200000000004
aF5.1790200000000004
aF5.1790200000000004
aF5.1790200000000004
aF5.1790200000000004
aF5.1790200000000004
aF5.1790200000000004
aF5.1790200000000004
aF5.1790200000000004
aF5.1790200000000004
aF5.1790200000000004
aF5.1790200000000004
asI123029
(lp20
F5.1790500000000002
aF5.1790500000000002
aF5.1790500000000002
aF5.1790500000000002
aF5.1790500000000002
aF5.1790500000000002
aF5.1790500000000002
aF5.1790500000000002
aF5.1790500000000002
aF5.1790500000000002
aF5.1790500000000002
aF5.1790500000000002
aF5.1790500000000002
aF5.1790500000000002
asI123034
(lp21
F5.1790500000000002
aF5.1792600000000002
aF5.1792600000000002
aF5.1792600000000002
aF5.1790500000000002
aF5.1790500000000002
aF5.1790500000000002
aF5.1790500000000002
aF5.1790500000000002
asI123035
(lp22
F5.1790799999999999
aF5.1790799999999999
aF5.1790799999999999
aF5.1790799999999999
asI123036
(lp23
F5.1790799999999999
aF5.1790799999999999
aF5.1790799999999999
aF5.1790799999999999
aF5.1790799999999999
aF5.1790799999999999
aF5.1790799999999999
aF5.1790799999999999
aF5.1790799999999999
aF5.1790799999999999
aF5.1790799999999999
aF5.1790799999999999
aF5.1790799999999999
aF5.1790799999999999
asI123038
(lp24
F5.1790799999999999
aF5.1790799999999999
aF5.1790799999999999
aF5.1790799999999999
aF5.1790799999999999
aF5.1790799999999999
aF5.1790799999999999
aF5.1790799999999999
aF5.1790799999999999
asI123039
(lp25
F5.1790799999999999
aF5.1790799999999999
aF5.1790799999999999
aF5.1790799999999999
aF5.1790799999999999
aF5.1790799999999999
aF5.1790799999999999
aF5.1790799999999999
aF5.1790799999999999
aF5.1790799999999999
aF5.1790799999999999
aF5.1790799999999999
aF5.1790799999999999
aF5.1790799999999999
asI123040
(lp26
F5.1790399999999996
aF5.1790399999999996
aF5.1790399999999996
aF5.1790399999999996
aF5.1790399999999996
aF5.1790399999999996
aF5.1790399999999996
aF5.1790399999999996
aF5.1790399999999996
aF5.1790399999999996
aF5.1790399999999996
aF5.1790399999999996
aF5.1790399999999996
aF5.1790399999999996
asI123041
(lp27
F5.1790399999999996
aF5.1790399999999996
aF5.1790399999999996
aF5.1790399999999996
aF5.1790399999999996
aF5.1790399999999996
aF5.1790399999999996
aF5.1790399999999996
aF5.1790399999999996
aF5.1790399999999996
aF5.1790399999999996
aF5.1790399999999996
aF5.1790399999999996
aF5.1790399999999996
aF5.1790399999999996
asI123042
(lp28
F5.1790599999999998
aF5.1790599999999998
aF5.1790599999999998
aF5.1790599999999998
aF5.1790599999999998
aF5.1790599999999998
aF5.1790599999999998
aF5.1790599999999998
aF5.1790599999999998
aF5.1790599999999998
aF5.1790599999999998
aF5.1790599999999998
aF5.1790599999999998
aF5.1790599999999998
asI123043
(lp29
F5.17903
aF5.17903
aF5.17903
aF5.17903
aF5.17903
aF5.17903
aF5.17903
aF5.17903
aF5.17903
aF5.17903
aF5.17903
aF5.17903
aF5.17903
aF5.17903
asI123044
(lp30
F5.1790399999999996
aF5.1790399999999996
aF5.1790399999999996
aF5.1790399999999996
aF5.1790399999999996
aF5.1790399999999996
aF5.1790399999999996
aF5.1790399999999996
aF5.1790399999999996
aF5.1790399999999996
asI125119
(lp31
F4.7293000000000003
aF4.7293000000000003
aF4.7293399999999997
aF4.7293399999999997
aF4.7293000000000003
aF4.7293000000000003
aF4.7293000000000003
aF4.7293000000000003
asI125120
(lp32
F4.7388399999999997
aF4.7292699999999996
aF4.7292699999999996
aF4.7292699999999996
aF4.7388399999999997
aF4.7388399999999997
aF4.7388399999999997
aF4.7388700000000004
aF4.7388700000000004
aF4.7388700000000004
aF4.7388700000000004
aF4.7388700000000004
asI125121
(lp33
F4.7267400000000004
aF4.7388700000000004
aF4.7388700000000004
aF4.7388700000000004
aF4.7388700000000004
aF4.7388700000000004
aF4.7267400000000004
aF4.7267599999999996
aF4.7267599999999996
aF4.7267999999999999
aF4.7267999999999999
aF4.7267700000000001
aF4.7267700000000001
aF4.72675
asI125122
(lp34
F4.7367600000000003
aF4.72675
aF4.72675
aF4.72675
aF4.72675
aF4.72675
aF4.7367600000000003
aF4.7367999999999997
aF4.7367999999999997
aF4.7367900000000001
aF4.7367900000000001
aF4.7367900000000001
aF4.7367900000000001
aF4.7367600000000003
asI125125
(lp35
F4.7277899999999997
aF4.7277899999999997
aF4.7277899999999997
aF4.7277899999999997
aF4.7277899999999997
aF4.7277899999999997
aF4.7277699999999996
asI125126
(lp36
F4.7278000000000002
aF4.7277699999999996
aF4.7277699999999996
aF4.7278000000000002
aF4.7277899999999997
aF4.7277899999999997
aF4.7278200000000004
aF4.7278200000000004
aF4.72776
aF4.72776
aF4.7278200000000004
asI125127
(lp37
F4.7348499999999998
aF4.7278200000000004
aF4.7278200000000004
aF4.7348499999999998
aF4.73482
aF4.73482
aF4.7348499999999998
aF4.7348499999999998
aF4.7348699999999999
aF4.7348699999999999
aF4.7348999999999997
asI122577
(lp38
F5.17936
aF5.17936
aF5.17936
aF5.17936
aF5.17936
aF5.17936
aF5.17936
aF5.17936
asI123164
(lp39
F4.7268400000000002
aF4.7380000000000004
aF4.7268400000000002
aF4.7268400000000002
aF4.7268400000000002
asI123165
(lp40
F4.7268499999999998
aF4.7268499999999998
aF4.7268499999999998
asI123166
(lp41
F4.7379699999999998
aF4.7268499999999998
aF4.7268499999999998
aF4.7379699999999998
aF4.7379699999999998
aF4.7379699999999998
aF4.7379699999999998
aF4.7379699999999998
aF4.7379699999999998
aF4.7379699999999998
aF4.7379699999999998
asI123167
(lp42
F4.7248900000000003
aF4.7379699999999998
aF4.7379699999999998
aF4.7248900000000003
aF4.7248900000000003
aF4.7248900000000003
aF4.7248900000000003
aF4.7248900000000003
aF4.7248900000000003
aF4.7248900000000003
aF4.7248900000000003
asI123168
(lp43
F4.7318499999999997
aF4.7248900000000003
aF4.7248900000000003
aF4.7318499999999997
aF4.7318499999999997
aF4.7318499999999997
aF4.7318499999999997
aF4.7318499999999997
aF4.7318499999999997
aF4.7318499999999997
aF4.7318499999999997
aF4.7318499999999997
asI123169
(lp44
F4.7222400000000002
aF4.7318499999999997
aF4.7222400000000002
aF4.7222400000000002
aF4.7222400000000002
aF4.7222400000000002
aF4.7222400000000002
aF4.7222400000000002
aF4.7222400000000002
aF4.7222400000000002
asI123170
(lp45
F4.7338899999999997
aF4.7222400000000002
aF4.7222400000000002
aF4.7338899999999997
aF4.7338899999999997
aF4.7338899999999997
aF4.7338899999999997
aF4.7338899999999997
asI123172
(lp46
F4.7339200000000003
aF4.73393
aF4.73393
aF4.73393
aF4.73393
aF4.73393
aF4.73393
aF4.73393
asI122246
(lp47
F5.1823399999999999
aF5.1773899999999999
aF5.1773899999999999
aF5.1773899999999999
aF5.1773899999999999
aF5.1823699999999997
aF5.1823699999999997
aF5.1823699999999997
aF5.1824000000000003
aF5.1823600000000001
aF5.1823699999999997
aF5.1823899999999998
aF5.1823899999999998
asI123175
(lp48
F4.7359900000000001
aF4.7359900000000001
aF4.7359900000000001
aF4.7359900000000001
aF4.7359900000000001
aF4.7359900000000001
aF4.7359900000000001
aF4.7359900000000001
asI123176
(lp49
F4.7268299999999996
aF4.7359900000000001
aF4.7268299999999996
aF4.7268299999999996
aF4.7268299999999996
aF4.7268299999999996
aF4.7268299999999996
aF4.7268299999999996
aF4.7268299999999996
aF4.7268299999999996
asI123178
(lp50
F4.7288399999999999
aF4.7288399999999999
aF4.7288399999999999
aF4.7288399999999999
aF4.7288399999999999
aF4.7288399999999999
aF4.7288399999999999
aF4.7288399999999999
aF4.7288399999999999
asI125254
(lp51
F4.72933
aF4.7303499999999996
aF4.7303499999999996
aF4.7303499999999996
aF4.7303499999999996
aF4.7303499999999996
aF4.7303499999999996
aF4.7303499999999996
aF4.7303499999999996
aF4.7303499999999996
aF4.7303499999999996
aF4.7303499999999996
aF4.7303499999999996
aF4.7303499999999996
aF4.7303499999999996
aF4.7303499999999996
aF4.7303499999999996
aF4.7303499999999996
aF4.7303499999999996
aF4.72933
aF4.7293900000000004
aF4.7293900000000004
aF4.7277300000000002
aF4.7277300000000002
aF4.7277300000000002
aF4.7277300000000002
aF4.7293599999999998
asI125255
(lp52
F4.7388399999999997
aF4.7293599999999998
aF4.7293599999999998
aF4.7293599999999998
aF4.7388399999999997
aF4.7388700000000004
aF4.7388700000000004
aF4.7388899999999996
aF4.7388899999999996
aF4.7388700000000004
aF4.7388700000000004
aF4.7388899999999996
asI125256
(lp53
F4.7268800000000004
aF4.7388899999999996
aF4.7388899999999996
aF4.7388899999999996
aF4.7268800000000004
aF4.7269100000000002
aF4.7269100000000002
aF4.7269100000000002
aF4.7269100000000002
aF4.7268800000000004
aF4.7268800000000004
aF4.7269300000000003
aF4.7269300000000003
asI125257
(lp54
F4.7367600000000003
aF4.7269300000000003
aF4.7269300000000003
aF4.7269300000000003
aF4.7367600000000003
aF4.7367600000000003
aF4.7367600000000003
aF4.7367600000000003
aF4.7367600000000003
aF4.7367900000000001
aF4.7367900000000001
aF4.7368199999999998
aF4.7368199999999998
asI125259
(lp55
F4.7277800000000001
aF4.7368199999999998
aF4.7277800000000001
aF4.7277800000000001
aF4.7277800000000001
aF4.7277800000000001
aF4.7277800000000001
aF4.7278000000000002
aF4.7278000000000002
aF4.7278099999999998
aF4.7278099999999998
asI125260
(lp56
F4.7348600000000003
aF4.7278099999999998
aF4.7278099999999998
aF4.7348600000000003
aF4.7348600000000003
aF4.7348600000000003
aF4.7348600000000003
aF4.7348600000000003
aF4.7348600000000003
aF4.7348600000000003
aF4.73489
aF4.73489
asI125261
(lp57
F4.7327700000000004
aF4.73489
aF4.73489
aF4.7327700000000004
aF4.7327899999999996
aF4.7327899999999996
aF4.7327899999999996
aF4.7327899999999996
aF4.7328299999999999
aF4.7328299999999999
aF4.7327899999999996
aF4.7327899999999996
asI125262
(lp58
F4.7292899999999998
aF4.7327899999999996
aF4.7327899999999996
aF4.7327899999999996
aF4.7292899999999998
aF4.7292800000000002
aF4.7292800000000002
aF4.7292800000000002
aF4.7292800000000002
aF4.7292800000000002
aF4.7292800000000002
aF4.7293099999999999
aF4.7293099999999999
asI125285
(lp59
F4.7293099999999999
aF4.7299899999999999
aF4.7299899999999999
aF4.7299899999999999
aF4.7299899999999999
aF4.7299899999999999
aF4.7299899999999999
aF4.7293099999999999
aF4.7293099999999999
aF4.7293099999999999
aF4.7293099999999999
aF4.7293099999999999
aF4.72933
asI125286
(lp60
F4.73888
aF4.72933
aF4.72933
aF4.72933
aF4.73888
aF4.7388500000000002
aF4.7388500000000002
aF4.73888
aF4.73888
aF4.73888
aF4.73888
asI125287
(lp61
F4.7269500000000004
aF4.73888
aF4.73888
aF4.73888
aF4.7269500000000004
aF4.7269399999999999
aF4.7269399999999999
aF4.7269399999999999
aF4.7269399999999999
aF4.7269500000000004
aF4.7269500000000004
asI125290
(lp62
F4.7368199999999998
aF4.7368199999999998
aF4.7368100000000002
aF4.7368100000000002
aF4.7368300000000003
aF4.7368300000000003
aF4.7367999999999997
aF4.7367999999999997
asI125291
(lp63
F4.7278200000000004
aF4.7367999999999997
aF4.7367999999999997
aF4.7278200000000004
aF4.7278500000000001
aF4.7278500000000001
aF4.7278399999999996
aF4.7278399999999996
aF4.7278500000000001
aF4.7278500000000001
aF4.7278500000000001
asI125293
(lp64
F4.7349300000000003
aF4.7349300000000003
aF4.7348999999999997
aF4.7348999999999997
aF4.7349300000000003
aF4.7349300000000003
aF4.7349300000000003
asI125294
(lp65
F4.7328299999999999
aF4.7349300000000003
aF4.7349300000000003
aF4.7328299999999999
aF4.7328700000000001
aF4.7328700000000001
aF4.7328400000000004
aF4.7328400000000004
aF4.73285
aF4.73285
aF4.7328400000000004
asI125295
(lp66
F4.7293000000000003
aF4.7328400000000004
aF4.7328400000000004
aF4.7328400000000004
aF4.7293000000000003
aF4.7293399999999997
aF4.7293399999999997
aF4.7293500000000002
aF4.7293500000000002
aF4.7293399999999997
aF4.7293399999999997
aF4.7293399999999997
asI125303
(lp67
F4.7301099999999998
aF4.7170199999999998
aF4.7170199999999998
aF4.7301099999999998
aF4.7301000000000002
aF4.7301000000000002
aF4.7301200000000003
aF4.7301200000000003
aF4.7284699999999997
aF4.7284699999999997
aF4.7284699999999997
asI125305
(lp68
F4.7388399999999997
aF4.7284699999999997
aF4.7388399999999997
aF4.7388599999999999
aF4.7388599999999999
aF4.7388599999999999
aF4.7388599999999999
aF4.7388899999999996
aF4.7388899999999996
aF4.7388700000000004
asI125307
(lp69
F4.7268400000000002
aF4.7268400000000002
aF4.7268699999999999
aF4.7268699999999999
aF4.7268999999999997
aF4.7268999999999997
aF4.7269199999999998
aF4.7269199999999998
aF4.7269100000000002
aF4.7269100000000002
asI125308
(lp70
F4.7368600000000001
aF4.7269100000000002
aF4.7269100000000002
aF4.7269100000000002
aF4.7269100000000002
aF4.7368600000000001
aF4.7369199999999996
aF4.7369199999999996
aF4.7369000000000003
aF4.7369000000000003
aF4.7369500000000002
aF4.7369500000000002
aF4.7369199999999996
aF4.7369199999999996
asI125309
(lp71
F4.7277300000000002
aF4.7360899999999999
aF4.7277300000000002
aF4.72776
aF4.72776
aF4.72776
aF4.72776
aF4.7277800000000001
aF4.7277800000000001
aF4.7277800000000001
asI125310
(lp72
F4.7348100000000004
aF4.7277800000000001
aF4.7277800000000001
aF4.7277800000000001
aF4.7348100000000004
aF4.7348100000000004
aF4.7348100000000004
aF4.7348400000000002
aF4.7348400000000002
aF4.7348400000000002
aF4.7348400000000002
aF4.7348299999999997
asI125311
(lp73
F4.7327500000000002
aF4.7327500000000002
aF4.7327700000000004
aF4.7327700000000004
aF4.7327700000000004
aF4.7327700000000004
aF4.7327599999999999
aF4.7327599999999999
aF4.7327700000000004
asI125312
(lp74
F4.7300800000000001
aF4.7327700000000004
aF4.7327700000000004
aF4.7327700000000004
aF4.7300800000000001
aF4.7301099999999998
aF4.7301099999999998
aF4.7301399999999996
aF4.7301399999999996
aF4.7301700000000002
aF4.7301700000000002
aF4.7301700000000002
asI125316
(lp75
F4.7302
aF4.7169600000000003
aF4.7169600000000003
aF4.7169600000000003
aF4.7169600000000003
aF4.7169600000000003
aF4.7169600000000003
aF4.7169600000000003
aF4.7169600000000003
aF4.7169600000000003
aF4.7169600000000003
aF4.7169600000000003
aF4.7169600000000003
aF4.7169600000000003
aF4.7169600000000003
aF4.7169600000000003
aF4.7302
aF4.7302299999999997
aF4.7302299999999997
aF4.7302600000000004
aF4.7302600000000004
aF4.7302299999999997
aF4.7302299999999997
aF4.7302900000000001
aF4.7302900000000001
aF4.7302900000000001
aF4.7302900000000001
aF4.7302900000000001
aF4.7302900000000001
asI125317
(lp76
F4.7302600000000004
aF4.7302600000000004
aF4.7302600000000004
aF4.7302600000000004
aF4.7302600000000004
aF4.7302600000000004
aF4.7302900000000001
aF4.7302900000000001
aF4.7302900000000001
aF4.7302900000000001
aF4.7302900000000001
aF4.7302900000000001
aF4.7302600000000004
aF4.7302600000000004
asI125318
(lp77
F4.7302900000000001
aF4.7302900000000001
aF4.7302900000000001
aF4.7302900000000001
aF4.7302900000000001
aF4.7302900000000001
aF4.7302600000000004
aF4.7302600000000004
aF4.7302900000000001
aF4.7302900000000001
aF4.7302900000000001
aF4.7302900000000001
aF4.7303199999999999
aF4.7303199999999999
asI125325
(lp78
F4.7303199999999999
aF4.7302900000000001
aF4.7303199999999999
aF4.7303199999999999
aF4.7303199999999999
aF4.7302900000000001
aF4.7302900000000001
aF4.7303100000000002
aF4.7303100000000002
aF4.7303199999999999
aF4.7303199999999999
aF4.7303199999999999
aF4.7303199999999999
aF4.7303199999999999
aF4.7303199999999999
asI125326
(lp79
F4.7303100000000002
aF4.7303100000000002
aF4.7302799999999996
aF4.7302799999999996
aF4.7303100000000002
aF4.7303100000000002
aF4.7303199999999999
aF4.7303199999999999
aF4.73034
aF4.73034
aF4.7303199999999999
aF4.7303199999999999
aF4.7303499999999996
aF4.7303499999999996
asI125327
(lp80
F4.7303199999999999
aF4.7303199999999999
aF4.7303199999999999
aF4.7303199999999999
aF4.73034
aF4.73034
aF4.73034
aF4.73034
aF4.7303300000000004
aF4.7303300000000004
aF4.7303300000000004
aF4.7303300000000004
aF4.7303499999999996
asI125329
(lp81
F4.7303300000000004
aF4.7303300000000004
aF4.7303699999999997
aF4.7303699999999997
aF4.7303699999999997
aF4.7303699999999997
aF4.73034
aF4.73034
asI125331
(lp82
F4.7303699999999997
aF4.7303699999999997
aF4.7303699999999997
aF4.7303699999999997
aF4.7303699999999997
aF4.7303699999999997
aF4.7303699999999997
aF4.7303699999999997
aF4.7303699999999997
aF4.7303699999999997
asI125335
(lp83
F4.73034
aF4.7287499999999998
aF4.73034
aF4.73034
aF4.7303699999999997
aF4.7303699999999997
aF4.7303600000000001
aF4.7303600000000001
aF4.7303300000000004
aF4.7303300000000004
aF4.7303600000000001
aF4.7303600000000001
asI125337
(lp84
F4.7303499999999996
aF4.7303499999999996
aF4.7303600000000001
aF4.7303600000000001
aF4.7303600000000001
aF4.7303600000000001
aF4.7303600000000001
aF4.7303600000000001
aF4.7303300000000004
aF4.7303300000000004
aF4.7303300000000004
aF4.7303300000000004
aF4.7303300000000004
asI125338
(lp85
F4.7303300000000004
aF4.7303300000000004
aF4.7303300000000004
aF4.7303300000000004
aF4.7303300000000004
aF4.7303300000000004
aF4.7303699999999997
aF4.7303699999999997
aF4.7303699999999997
aF4.7303699999999997
aF4.7303699999999997
aF4.7303699999999997
aF4.7303199999999999
aF4.7303199999999999
asI125339
(lp86
F4.7303699999999997
aF4.7303499999999996
aF4.7303699999999997
aF4.73034
aF4.73034
aF4.7303699999999997
aF4.7303699999999997
aF4.7303499999999996
aF4.7303499999999996
aF4.73034
aF4.73034
aF4.7303699999999997
aF4.7303699999999997
aF4.73034
aF4.73034
asI125340
(lp87
F4.7303699999999997
aF4.7303699999999997
aF4.7303699999999997
aF4.7303699999999997
aF4.7303699999999997
aF4.7303699999999997
aF4.7303699999999997
aF4.7303699999999997
aF4.73034
aF4.73034
aF4.73034
aF4.73034
aF4.7303699999999997
aF4.7303699999999997
asI125342
(lp88
F4.73034
aF4.7303699999999997
aF4.73034
aF4.73034
aF4.73034
aF4.7303699999999997
aF4.73034
aF4.73034
aF4.73034
aF4.73034
aF4.7303699999999997
aF4.7303699999999997
aF4.73034
aF4.73034
aF4.72879
asI125343
(lp89
F4.7303699999999997
aF4.7303699999999997
aF4.7303600000000001
aF4.7303600000000001
aF4.73034
aF4.73034
aF4.7304000000000004
aF4.7304000000000004
aF4.73034
aF4.73034
aF4.7303699999999997
aF4.7303699999999997
asI125344
(lp90
F4.7303699999999997
aF4.7303699999999997
aF4.7303699999999997
aF4.7303699999999997
aF4.7303699999999997
aF4.7303699999999997
aF4.7304199999999996
aF4.7304199999999996
aF4.7303600000000001
aF4.7303600000000001
aF4.7303899999999999
aF4.7303899999999999
aF4.7303899999999999
aF4.7303899999999999
asI125345
(lp91
F4.7303600000000001
aF4.7303600000000001
aF4.7304000000000004
aF4.7304000000000004
aF4.7303899999999999
aF4.7303899999999999
aF4.7303699999999997
aF4.7303699999999997
aF4.7304000000000004
aF4.7304000000000004
aF4.7303699999999997
aF4.7303699999999997
aF4.7303800000000003
aF4.7303800000000003
asI125346
(lp92
F4.7303699999999997
aF4.7303699999999997
aF4.73041
aF4.73041
aF4.7303800000000003
aF4.7303800000000003
aF4.7303499999999996
aF4.7303499999999996
aF4.7303499999999996
aF4.7303499999999996
aF4.7303499999999996
aF4.7303499999999996
aF4.7303800000000003
aF4.7303800000000003
asI125347
(lp93
F4.73034
aF4.73041
aF4.73034
aF4.7303600000000001
aF4.7303600000000001
aF4.7303600000000001
aF4.7303600000000001
aF4.7303600000000001
asI125348
(lp94
F4.7303600000000001
aF4.7303600000000001
aF4.7303600000000001
aF4.7303600000000001
asI125351
(lp95
F4.7303300000000004
aF4.7303600000000001
aF4.7303300000000004
aF4.7303899999999999
aF4.7303899999999999
aF4.7303600000000001
aF4.7303600000000001
aF4.7303600000000001
asI125353
(lp96
F4.7303600000000001
aF4.7303600000000001
aF4.7303600000000001
aF4.7303600000000001
aF4.7303600000000001
aF4.7303600000000001
aF4.7303600000000001
aF4.7303600000000001
aF4.7303499999999996
aF4.7303499999999996
aF4.7303600000000001
aF4.7303600000000001
aF4.7303600000000001
aF4.7303600000000001
asI125354
(lp97
F4.7303499999999996
aF4.7303499999999996
aF4.7303600000000001
aF4.7303600000000001
aF4.7303499999999996
aF4.7303499999999996
aF4.7303300000000004
aF4.7303300000000004
aF4.7303499999999996
aF4.7303499999999996
aF4.7303899999999999
aF4.7303899999999999
asI125357
(lp98
F4.73034
aF4.7303600000000001
aF4.73034
aF4.7303600000000001
aF4.7303600000000001
aF4.73034
aF4.73034
aF4.7303600000000001
aF4.7303600000000001
aF4.7303600000000001
aF4.7303699999999997
asI125358
(lp99
F4.73034
aF4.73034
aF4.7303699999999997
aF4.7303699999999997
aF4.7303699999999997
aF4.7303699999999997
aF4.73034
aF4.73034
aF4.7303699999999997
aF4.7303699999999997
aF4.7303699999999997
aF4.7303699999999997
asI122277
(lp100
F5.1793399999999998
aF5.1793199999999997
aF5.1793500000000003
aF5.1793800000000001
aF5.1793500000000003
aF5.1793500000000003
aF5.1793800000000001
aF5.1793500000000003
aF5.1793699999999996
aF5.1793500000000003
aF5.1793500000000003
aF5.1793500000000003
aF5.1793199999999997
aF5.1793399999999998
aF5.1793399999999998
asI122280
(lp101
F5.1792999999999996
aF5.1793399999999998
aF5.1793399999999998
aF5.1793399999999998
aF5.1793699999999996
aF5.1793399999999998
aF5.1793399999999998
aF5.1793399999999998
aF5.1794000000000002
aF5.1793399999999998
aF5.1793399999999998
aF5.1793399999999998
aF5.1793399999999998
aF5.1793399999999998
asI122281
(lp102
F5.1793399999999998
aF5.1793399999999998
aF5.1793399999999998
asI122285
(lp103
F5.1793699999999996
aF5.1793300000000002
aF5.1793300000000002
aF5.17936
aF5.17936
aF5.1793300000000002
aF5.17936
aF5.1793699999999996
aF5.1794000000000002
aF5.17936
aF5.1793300000000002
aF5.1793899999999997
aF5.1793300000000002
aF5.17936
asI122286
(lp104
F5.17936
aF5.17936
aF5.1793399999999998
aF5.1793699999999996
aF5.17936
aF5.1793399999999998
aF5.17936
aF5.1793399999999998
aF5.17936
aF5.17936
aF5.1793300000000002
aF5.17936
aF5.17936
asI122287
(lp105
F5.1793699999999996
aF5.1793699999999996
aF5.1793699999999996
aF5.1793699999999996
aF5.1793699999999996
aF5.1793699999999996
aF5.1793699999999996
aF5.1793699999999996
aF5.1793699999999996
aF5.1793699999999996
aF5.1793699999999996
aF5.1793699999999996
asI122288
(lp106
F5.1793699999999996
aF5.1793699999999996
aF5.1793699999999996
aF5.1793699999999996
aF5.1793699999999996
aF5.1793699999999996
aF5.1793699999999996
aF5.1793699999999996
aF5.1793699999999996
aF5.1793699999999996
aF5.1793699999999996
aF5.1793699999999996
aF5.1793699999999996
aF5.1793699999999996
asI122289
(lp107
F5.1793500000000003
aF5.1793500000000003
aF5.1793500000000003
aF5.1793500000000003
aF5.1793500000000003
aF5.1793500000000003
aF5.1793500000000003
aF5.1793500000000003
aF5.1793500000000003
asI127588
(lp108
F5.0106299999999999
aF5.0106299999999999
aF5.0106299999999999
aF5.0106299999999999
aF5.0106400000000004
aF5.0106400000000004
aF5.0106200000000003
aF5.0106200000000003
aF5.0106200000000003
aF5.0106200000000003
aF5.0106200000000003
aF5.0106200000000003
aF5.0106200000000003
asI127589
(lp109
F5.0105399999999998
aF5.0106200000000003
aF5.0106200000000003
aF5.0105399999999998
aF5.0105399999999998
aF5.0105399999999998
aF5.0105399999999998
aF5.0105399999999998
aF5.0105399999999998
aF5.0105399999999998
aF5.01051
aF5.01051
aF5.0105399999999998
aF5.0105399999999998
aF5.0105399999999998
asI127592
(lp110
F5.0105700000000004
aF5.01058
aF5.0105399999999998
aF5.0105399999999998
aF5.0105599999999999
aF5.0105599999999999
aF5.0105700000000004
aF5.0105700000000004
aF5.0105700000000004
aF5.0105700000000004
aF5.0106000000000002
aF5.0106000000000002
aF5.0105700000000004
aF5.0105700000000004
asI127594
(lp111
F5.0144099999999998
aF5.0144099999999998
aF5.0144099999999998
aF5.0144099999999998
aF5.0144099999999998
aF5.0144099999999998
aF5.0144399999999996
aF5.0144399999999996
asI127598
(lp112
F5.02658
aF5.02658
aF5.0266099999999998
aF5.0266099999999998
aF5.02658
aF5.02658
aF5.0266099999999998
aF5.0266099999999998
aF5.02658
asI127600
(lp113
F5.0087099999999998
aF5.02658
aF5.02658
aF5.0087099999999998
aF5.0086700000000004
aF5.0086700000000004
aF5.0087400000000004
aF5.0087400000000004
aF5.0087299999999999
aF5.0087299999999999
aF5.0087000000000002
aF5.0087000000000002
asI127601
(lp114
F5.0153100000000004
aF5.0087000000000002
aF5.0087000000000002
aF5.01593
aF5.01593
aF5.01593
aF5.0159000000000002
aF5.0159000000000002
aF5.0159099999999999
aF5.0159099999999999
aF5.0159099999999999
aF5.0159099999999999
asI127602
(lp115
F5.0205900000000003
aF5.0159099999999999
aF5.0159099999999999
aF5.0212199999999996
aF5.0212199999999996
aF5.0212199999999996
aF5.0212199999999996
aF5.0212199999999996
aF5.0211600000000001
aF5.0211600000000001
aF5.0211600000000001
aF5.0211600000000001
asI127603
(lp116
F5.0066499999999996
aF5.0211899999999998
aF5.0211899999999998
aF5.0211899999999998
aF5.0211899999999998
aF5.0211899999999998
aF5.0211899999999998
aF5.0066499999999996
aF5.00664
aF5.00664
aF5.0066499999999996
aF5.0066499999999996
aF5.0066800000000002
aF5.0066800000000002
aF5.0066499999999996
aF5.0066499999999996
aF5.0066800000000002
asI127606
(lp117
F5.0176499999999997
aF5.0182700000000002
aF5.0183
aF5.0183
aF5.0008900000000001
aF5.0008900000000001
aF5.0182700000000002
aF5.0182700000000002
aF4.9965599999999997
aF4.9965599999999997
aF5.0182700000000002
asI127610
(lp118
F5.0105700000000004
aF5.0105700000000004
aF5.0106000000000002
aF5.0106000000000002
aF5.0106000000000002
aF5.0106000000000002
aF5.0105700000000004
aF5.0105700000000004
aF5.0105399999999998
aF5.0105399999999998
aF5.0106000000000002
asI127611
(lp119
F5.01058
aF5.0106000000000002
aF5.0106000000000002
aF5.0106000000000002
aF5.0106000000000002
aF5.0106000000000002
aF5.0106000000000002
aF5.0106000000000002
aF5.0111400000000001
aF5.01058
aF5.01058
aF5.01058
aF5.01058
aF5.01058
aF5.01058
aF5.01058
aF5.01058
aF5.01058
aF5.01058
aF5.01058
aF5.01058
asI127612
(lp120
F5.0105500000000003
aF5.0105899999999997
aF5.0105500000000003
aF5.0105500000000003
aF5.0105500000000003
aF5.0105599999999999
aF5.0105599999999999
aF5.0105599999999999
aF5.0105899999999997
aF5.01058
aF5.01058
aF5.0106099999999998
aF5.0106099999999998
aF5.01058
aF5.01058
aF5.0106099999999998
aF5.0106099999999998
asI127613
(lp121
F5.0139100000000001
aF5.0106999999999999
aF5.0106999999999999
aF5.0106999999999999
aF5.0144700000000002
aF5.0139100000000001
aF5.0139100000000001
aF5.0138800000000003
aF5.0138800000000003
aF5.0138800000000003
aF5.0138800000000003
aF5.0138800000000003
aF5.0138800000000003
aF5.0138999999999996
aF5.0138999999999996
aF5.0139399999999998
aF5.0139399999999998
asI127615
(lp122
F5.01288
aF5.01288
aF5.0129099999999998
aF5.0129099999999998
aF5.0129400000000004
aF5.0129400000000004
aF5.0129400000000004
aF5.0129400000000004
aF5.0128599999999999
aF5.0128599999999999
aF5.0128500000000003
aF5.0128500000000003
aF5.0128500000000003
asI123596
(lp123
F4.7284899999999999
aF5.8537800000000004
aF5.8537800000000004
aF5.8537800000000004
aF5.8537800000000004
aF5.8537800000000004
aF5.8537800000000004
aF5.8537800000000004
aF5.8537800000000004
aF5.8537800000000004
aF5.8537800000000004
aF5.8537800000000004
aF0
aF0
aF0
aF0
aF0
aF0
aF0
aF0
aF0
aF0
aF0
asI123597
(lp124
F4.7379499999999997
aF0
aF0
aF4.7379499999999997
aF4.7379499999999997
aF4.7379499999999997
aF4.7379499999999997
aF4.7379499999999997
aF4.7379499999999997
aF4.7379499999999997
aF4.7379499999999997
aF4.7380699999999996
aF4.7380699999999996
aF4.7380800000000001
asI123598
(lp125
F4.7259399999999996
aF4.7380800000000001
aF4.7380800000000001
aF4.7259399999999996
aF4.7259700000000002
aF4.7259700000000002
aF4.7259700000000002
aF4.7259700000000002
aF4.7259700000000002
aF4.7259700000000002
aF4.7259700000000002
aF4.7259700000000002
aF4.7259700000000002
asI123599
(lp126
F4.7360100000000003
aF4.7259700000000002
aF4.7259700000000002
aF4.7360100000000003
aF4.7359999999999998
aF4.7359999999999998
aF4.7360100000000003
aF4.7360100000000003
asI123600
(lp127
F4.7360199999999999
aF4.73604
aF4.73604
aF4.7360199999999999
aF4.7360300000000004
aF4.7360300000000004
aF4.7360100000000003
aF4.7360100000000003
aF4.7360300000000004
aF4.7360300000000004
aF4.73604
aF4.73604
aF4.7360300000000004
asI123601
(lp128
F4.7268499999999998
aF4.7360300000000004
aF4.7360300000000004
aF4.7268499999999998
aF4.7268600000000003
aF4.7268600000000003
aF4.7268699999999999
aF4.7268699999999999
aF4.72689
aF4.72689
aF4.72689
aF4.72689
aF4.7268600000000003
asI123602
(lp129
F4.7339099999999998
aF4.7268600000000003
aF4.7268600000000003
aF4.7339099999999998
aF4.7339500000000001
aF4.7339500000000001
aF4.73393
aF4.73393
aF4.73393
aF4.73393
aF4.7339599999999997
aF4.7339599999999997
aF4.7339599999999997
asI123603
(lp130
F4.7318699999999998
aF4.7339599999999997
aF4.7318699999999998
aF4.7318699999999998
aF4.7318699999999998
aF4.7319000000000004
aF4.7319000000000004
aF4.7319000000000004
aF4.7319000000000004
aF4.7319000000000004
aF4.7319000000000004
asI123604
(lp131
F4.7284800000000002
aF4.7319000000000004
aF4.7319000000000004
aF4.7319000000000004
aF4.7284800000000002
aF4.7284499999999996
aF4.7284499999999996
aF4.7284800000000002
aF4.7284800000000002
aF4.7284800000000002
aF4.7284800000000002
aF4.7284800000000002
aF4.7284800000000002
asI123606
(lp132
F4.7259599999999997
aF4.7259599999999997
aF4.7259700000000002
aF4.7259700000000002
aF4.7259599999999997
aF4.7259599999999997
aF4.7259599999999997
aF4.7259599999999997
aF4.7259900000000004
aF4.7259900000000004
aF4.7259599999999997
asI123607
(lp133
F4.7318699999999998
aF4.7259599999999997
aF4.7259599999999997
aF4.7318699999999998
aF4.7318699999999998
aF4.7318699999999998
asI123608
(lp134
F4.7299699999999998
aF4.7318699999999998
aF4.7318699999999998
aF4.7299699999999998
aF4.72994
aF4.72994
aF4.7300000000000004
aF4.7300000000000004
aF4.7299600000000002
aF4.7299600000000002
aF4.7299899999999999
aF4.7299899999999999
aF4.7299899999999999
aF4.7299899999999999
aF4.7299800000000003
asI123610
(lp135
F4.7300199999999997
aF4.7300199999999997
aF4.7300199999999997
aF4.7300199999999997
aF4.7299800000000003
aF4.7299800000000003
aF4.73001
aF4.73001
aF4.73001
aF4.73001
aF4.7299899999999999
aF4.7299899999999999
aF4.7299899999999999
aF4.7299899999999999
asI123611
(lp136
F4.73001
aF4.73001
aF4.73001
aF4.7287999999999997
aF4.7287999999999997
aF4.7300199999999997
aF4.7300199999999997
aF4.7299800000000003
aF4.7299800000000003
aF4.7300000000000004
aF4.7300000000000004
aF4.7299699999999998
aF4.7299699999999998
aF4.73001
aF4.73001
asI123612
(lp137
F4.73001
aF4.73001
aF4.73001
aF4.73001
aF4.7300199999999997
aF4.7300199999999997
aF4.7300399999999998
aF4.7300399999999998
aF4.7300399999999998
aF4.7300399999999998
aF4.7300399999999998
aF4.7300399999999998
asI123615
(lp138
F4.7300399999999998
aF4.7300399999999998
aF4.7300399999999998
aF4.7300399999999998
aF4.7300399999999998
aF4.7300399999999998
aF4.7300399999999998
aF4.7300399999999998
aF4.7300399999999998
asI123616
(lp139
F4.7300500000000003
aF4.7300500000000003
aF4.7300700000000004
aF4.7300700000000004
aF4.7300800000000001
aF4.7300800000000001
aF4.7300399999999998
aF4.7300399999999998
aF4.7300399999999998
aF4.7300399999999998
aF4.7300700000000004
aF4.7300700000000004
aF4.7300399999999998
aF4.7300399999999998
asI123617
(lp140
F4.7300399999999998
aF4.7300800000000001
aF4.7300399999999998
aF4.7300399999999998
aF4.7300399999999998
aF4.7300399999999998
aF4.7300399999999998
aF4.7300700000000004
aF4.7300700000000004
aF4.7300700000000004
aF4.7300700000000004
aF4.7300700000000004
aF4.7300700000000004
aF4.7300700000000004
aF4.7300700000000004
asI123618
(lp141
F4.7300399999999998
aF4.7300399999999998
aF4.7300700000000004
aF4.7300700000000004
aF4.7300800000000001
aF4.7300800000000001
aF4.7300399999999998
aF4.7300399999999998
aF4.7300399999999998
aF4.7300399999999998
aF4.7300399999999998
aF4.7300399999999998
aF4.7300500000000003
aF4.7300500000000003
asI123619
(lp142
F4.7300500000000003
aF4.7300500000000003
aF4.7300399999999998
aF4.7300399999999998
aF4.7300399999999998
aF4.7300399999999998
aF4.7300399999999998
aF4.7300399999999998
aF4.7300800000000001
aF4.7300800000000001
aF4.7300399999999998
aF4.7300399999999998
aF4.7300399999999998
aF4.7300399999999998
asI123620
(lp143
F4.7300399999999998
aF4.7300399999999998
aF4.7300700000000004
aF4.7300700000000004
aF4.7300399999999998
aF4.7300399999999998
aF4.7300599999999999
aF4.7300599999999999
aF4.7300599999999999
aF4.7300599999999999
aF4.7300899999999997
aF4.7300899999999997
aF4.7300599999999999
aF4.7300599999999999
asI123621
(lp144
F4.7300599999999999
aF4.7300599999999999
aF4.7300300000000002
aF4.7300300000000002
aF4.7300899999999997
aF4.7300899999999997
aF4.7300599999999999
aF4.7300599999999999
aF4.7300700000000004
aF4.7300700000000004
aF4.7300599999999999
aF4.7300599999999999
asI123623
(lp145
F4.7300599999999999
aF4.7300599999999999
aF4.7300599999999999
aF4.7300599999999999
aF4.7300599999999999
aF4.7300599999999999
aF4.7300599999999999
aF4.7300599999999999
aF4.7300899999999997
aF4.7300899999999997
aF4.7300599999999999
aF4.7300599999999999
aF4.7300500000000003
aF4.7300500000000003
asI123624
(lp146
F4.7300500000000003
aF4.7300700000000004
aF4.7300500000000003
aF4.7300500000000003
aF4.7300500000000003
aF4.7300800000000001
aF4.7300800000000001
aF4.7300500000000003
aF4.7300500000000003
aF4.7300500000000003
aF4.7300500000000003
aF4.7300599999999999
aF4.7300599999999999
aF4.7300500000000003
aF4.7300500000000003
asI123631
(lp147
F4.7300599999999999
aF4.7300599999999999
aF4.7300599999999999
aF4.7300599999999999
asI123632
(lp148
F4.7300599999999999
aF4.7300599999999999
aF4.7300599999999999
aF4.7300599999999999
aF4.7300599999999999
aF4.7300599999999999
aF4.7300599999999999
aF4.7300700000000004
aF4.7300700000000004
aF4.7300700000000004
aF4.7300700000000004
aF4.7300599999999999
aF4.7300599999999999
aF4.7300599999999999
aF4.7300599999999999
asI123633
(lp149
F4.7300500000000003
aF4.7300599999999999
aF4.7300500000000003
aF4.7300599999999999
aF4.7300599999999999
aF4.7300500000000003
aF4.7300500000000003
aF4.7300500000000003
aF4.7300500000000003
aF4.7300599999999999
aF4.7300599999999999
aF4.7300500000000003
asI123635
(lp150
F4.7300500000000003
aF4.7300599999999999
aF4.7300500000000003
aF4.7300500000000003
aF4.7300500000000003
aF4.7300500000000003
aF4.7300599999999999
aF4.7300599999999999
aF4.7300500000000003
aF4.7300500000000003
aF4.7300500000000003
aF4.7300500000000003
aF4.7300199999999997
asI123636
(lp151
F4.7300500000000003
aF4.7300500000000003
aF4.7300500000000003
aF4.7300500000000003
aF4.7300500000000003
aF4.7300500000000003
aF4.7300199999999997
aF4.7300199999999997
aF4.7300500000000003
aF4.7300500000000003
aF4.7300500000000003
aF4.7300500000000003
aF4.7300500000000003
aF4.7300500000000003
asI123637
(lp152
F4.7300199999999997
aF4.7300199999999997
aF4.7300199999999997
aF4.7300199999999997
aF4.7300199999999997
aF4.7300199999999997
aF4.7300500000000003
aF4.7300500000000003
aF4.7300199999999997
aF4.7300199999999997
asI123638
(lp153
F4.7300199999999997
aF4.7300199999999997
aF4.7300500000000003
asI123639
(lp154
F4.7300500000000003
aF4.7300500000000003
aF4.7300199999999997
aF4.7300199999999997
aF4.7300199999999997
aF4.7300199999999997
aF4.7300199999999997
aF4.7300199999999997
aF4.7300199999999997
aF4.7300199999999997
aF4.7300300000000002
aF4.7300300000000002
aF4.7300199999999997
asI123640
(lp155
F4.7300199999999997
aF4.7300199999999997
aF4.7300199999999997
aF4.7300199999999997
aF4.7300500000000003
aF4.7300500000000003
aF4.7300199999999997
aF4.7300199999999997
aF4.7300199999999997
aF4.7300199999999997
aF4.7300199999999997
aF4.7300199999999997
aF4.7300500000000003
aF4.7300500000000003
asI123641
(lp156
F4.7300500000000003
aF4.7300500000000003
aF4.7300800000000001
aF4.7300800000000001
aF4.7300700000000004
aF4.7300700000000004
aF4.7302099999999996
aF4.7302099999999996
aF4.7302
aF4.7302
aF4.7301700000000002
aF4.7301700000000002
asI123643
(lp157
F4.7301700000000002
aF4.7301700000000002
aF4.7301700000000002
aF4.7301700000000002
aF4.7302099999999996
aF4.7302099999999996
aF4.7301799999999998
aF4.7301799999999998
aF4.7301700000000002
aF4.7301700000000002
aF4.7301799999999998
aF4.7301799999999998
aF4.7301500000000001
aF4.7301500000000001
aF4.7301799999999998
asI123644
(lp158
F4.7301799999999998
aF4.7301799999999998
aF4.7301700000000002
aF4.7301700000000002
aF4.7301500000000001
aF4.7301500000000001
aF4.7301500000000001
aF4.7301500000000001
aF4.7301500000000001
aF4.7301500000000001
aF4.7301799999999998
aF4.7301799999999998
aF4.7301399999999996
aF4.7301399999999996
asI123645
(lp159
F4.7301700000000002
aF4.7301700000000002
aF4.7301399999999996
aF4.7301399999999996
aF4.7301399999999996
aF4.7301399999999996
aF4.7301700000000002
aF4.7301700000000002
aF4.7301700000000002
aF4.7301700000000002
aF4.7301700000000002
aF4.7301700000000002
aF4.7301700000000002
aF4.7301700000000002
asI122098
(lp160
F5.1794500000000001
aF5.1793899999999997
aF5.1794500000000001
aF5.1794500000000001
aF5.1794500000000001
aF5.1794500000000001
aF5.1794500000000001
aF5.1794500000000001
aF5.1794500000000001
aF5.1794500000000001
aF5.1794500000000001
aF5.1794500000000001
asI123781
(lp161
F4.7283600000000003
aF4.7283600000000003
aF4.7283600000000003
aF4.7283600000000003
aF4.7283600000000003
aF4.7283600000000003
aF4.7283900000000001
aF4.7283900000000001
aF4.72837
aF4.72837
aF4.72837
aF4.72837
asI123782
(lp162
F4.73794
aF4.72837
aF4.72837
aF4.72837
aF4.73794
aF4.7379699999999998
aF4.7379699999999998
aF4.7373500000000002
aF4.7373500000000002
aF4.7373500000000002
aF4.7373500000000002
aF4.7373399999999997
aF4.7373399999999997
aF4.7379899999999999
asI123783
(lp163
F4.7258300000000002
aF4.7379899999999999
aF4.7379899999999999
aF4.7379899999999999
aF4.7258300000000002
aF4.7258300000000002
aF4.7258300000000002
aF4.7258500000000003
aF4.7258500000000003
aF4.7258599999999999
aF4.7258599999999999
aF4.7258599999999999
aF4.7258599999999999
asI123784
(lp164
F4.7358799999999999
aF4.7258599999999999
aF4.7258599999999999
aF4.7358799999999999
aF4.7359099999999996
aF4.7359099999999996
aF4.7359
aF4.7359
aF4.7359400000000003
aF4.7359400000000003
aF4.7359299999999998
aF4.7359299999999998
asI123786
(lp165
F4.7268699999999999
aF4.7359299999999998
aF4.7268699999999999
aF4.7268699999999999
aF4.7268699999999999
aF4.7268699999999999
aF4.7268699999999999
aF4.7269199999999998
aF4.7269199999999998
aF4.7268600000000003
aF4.7268600000000003
asI123787
(lp166
F4.7339700000000002
aF4.7268600000000003
aF4.7268600000000003
aF4.7268600000000003
aF4.7268600000000003
aF4.7339700000000002
aF4.7339900000000004
aF4.7339900000000004
aF4.7339900000000004
aF4.7339900000000004
aF4.734
aF4.734
aF4.7333800000000004
aF4.7333800000000004
asI123789
(lp167
F4.7319000000000004
aF4.7319000000000004
aF4.7319300000000002
aF4.7319300000000002
aF4.7319800000000001
aF4.7319800000000001
aF4.7319800000000001
aF4.7319800000000001
aF4.7319800000000001
asI123790
(lp168
F4.7283600000000003
aF4.7319800000000001
aF4.7319800000000001
aF4.72837
aF4.7283900000000001
aF4.7283900000000001
aF4.7283799999999996
aF4.7283799999999996
aF4.7284100000000002
aF4.7284100000000002
aF4.7284100000000002
aF4.7284100000000002
asI123792
(lp169
F4.7298099999999996
aF4.7298099999999996
aF4.7298400000000003
aF4.7298400000000003
aF4.7298400000000003
aF4.7298400000000003
aF4.7298600000000004
aF4.7298600000000004
aF4.7298999999999998
aF4.7298999999999998
aF4.7298999999999998
aF4.7298999999999998
aF4.72987
aF4.72987
aF4.7298600000000004
asI123821
(lp170
F4.7298400000000003
aF4.7168400000000004
aF4.7168400000000004
aF4.7298400000000003
aF4.7298499999999999
aF4.7298499999999999
aF4.7298799999999996
aF4.7298799999999996
aF4.7298900000000001
asI123822
(lp171
F4.7298900000000001
aF4.7298900000000001
aF4.7298799999999996
aF4.7298799999999996
aF4.7298799999999996
aF4.7298799999999996
aF4.7299199999999999
aF4.7299199999999999
aF4.7299100000000003
aF4.7299100000000003
aF4.7298799999999996
aF4.7298799999999996
aF4.7298799999999996
aF4.7298799999999996
asI123823
(lp172
F4.7298799999999996
aF4.7298799999999996
aF4.7298799999999996
aF4.7298799999999996
aF4.7298799999999996
aF4.7298799999999996
aF4.7298799999999996
aF4.7298799999999996
aF4.7299199999999999
aF4.7299199999999999
aF4.7299100000000003
aF4.7299100000000003
aF4.7298799999999996
aF4.7298799999999996
asI123826
(lp173
F4.7298999999999998
aF4.7299100000000003
aF4.7298999999999998
aF4.7298999999999998
asI127924
(lp174
F5.0104600000000001
aF5.0104600000000001
aF5.01051
aF5.01051
aF5.01051
aF5.01051
aF5.0105500000000003
aF5.0105500000000003
aF5.0105500000000003
aF5.0105500000000003
asI127925
(lp175
F5.0105199999999996
aF5.0105199999999996
aF5.0105199999999996
aF5.0105199999999996
aF5.0104899999999999
aF5.0104899999999999
aF5.0105199999999996
aF5.0105199999999996
aF5.0104899999999999
aF5.0104899999999999
aF5.0105500000000003
aF5.0105500000000003
aF5.0105199999999996
aF5.0105199999999996
aF5.0105199999999996
asI123830
(lp176
F4.7298999999999998
aF4.7298999999999998
aF4.7298999999999998
aF4.7298999999999998
aF4.72987
aF4.72987
aF4.7292500000000004
aF4.7292500000000004
aF4.7292399999999999
aF4.7292399999999999
aF4.7292399999999999
aF4.7292399999999999
aF4.7299100000000003
aF4.7299100000000003
asI127927
(lp177
F5.0105399999999998
aF5.0105399999999998
aF5.01051
aF5.01051
aF5.01051
aF5.01051
aF5.0105000000000004
aF5.0105000000000004
aF5.01051
aF5.01051
aF5.0105000000000004
asI127928
(lp178
F5.0174200000000004
aF5.0105000000000004
aF5.0105000000000004
aF5.0105000000000004
aF5.0105000000000004
aF5.0174200000000004
aF5.0174399999999997
aF5.0174399999999997
aF5.0174700000000003
aF5.0174700000000003
aF5.0174799999999999
aF5.0174799999999999
aF5.0174500000000002
aF5.0174500000000002
asI123833
(lp179
F4.72994
aF4.72994
aF4.7298900000000001
aF4.7298900000000001
aF4.7299199999999999
aF4.7299199999999999
aF4.7298999999999998
aF4.7298999999999998
aF4.7292500000000004
aF4.7292500000000004
aF4.7292300000000003
aF4.7292300000000003
asI127931
(lp180
F5.0065900000000001
aF5.0064299999999999
aF5.0064299999999999
aF5.0065900000000001
aF5.00657
aF5.00657
aF5.0065999999999997
aF5.0065999999999997
aF5.0065799999999996
aF5.0065799999999996
aF5.0066100000000002
aF5.0066100000000002
asI127932
(lp181
F5.0205000000000002
aF5.0065799999999996
aF5.0065799999999996
aF5.0205000000000002
aF5.0205500000000001
aF5.0205500000000001
aF5.0205399999999996
aF5.0205399999999996
aF5.0205399999999996
aF5.0205399999999996
aF5.0205500000000001
aF5.0205500000000001
aF5.0205399999999996
asI127933
(lp182
F5.01525
aF5.0205399999999996
aF5.0205399999999996
aF5.0205399999999996
aF5.01525
aF5.0152599999999996
aF5.0152599999999996
aF5.01525
aF5.01525
aF5.01525
aF5.01525
aF5.0152799999999997
asI121884
(lp183
F5.1790399999999996
aF5.1790399999999996
aF5.1790399999999996
aF5.1790399999999996
asI121885
(lp184
F5.1790399999999996
aF5.1790399999999996
aF5.1790399999999996
aF5.1790399999999996
aF5.1790399999999996
aF5.1790399999999996
aF5.1790399999999996
aF5.1790399999999996
aF5.1790399999999996
asI121887
(lp185
F5.1894099999999996
aF5.1894099999999996
aF5.1894099999999996
aF5.1894099999999996
aF5.1894099999999996
aF5.1894099999999996
aF5.1894099999999996
aF5.1894099999999996
aF5.1894099999999996
asI121889
(lp186
F5.1734
aF5.1734
aF5.1734
aF5.1734299999999998
aF5.1734299999999998
aF5.1734299999999998
aF5.1734299999999998
aF5.1734299999999998
aF5.1734299999999998
asI121890
(lp187
F5.1864800000000004
aF5.1734299999999998
aF5.1734299999999998
aF5.1864800000000004
aF5.18649
aF5.1864800000000004
aF5.1864800000000004
aF5.1865100000000002
aF5.1865100000000002
aF5.1864800000000004
aF5.1865100000000002
asI121892
(lp188
F5.1755100000000001
aF5.1755100000000001
aF5.1755100000000001
aF5.1755100000000001
aF5.1755100000000001
aF5.1755100000000001
aF5.1755100000000001
asI121897
(lp189
F5.1834100000000003
aF5.1834100000000003
aF5.1834100000000003
aF5.1834100000000003
aF5.1834100000000003
aF5.1834100000000003
aF5.1834100000000003
aF5.1834100000000003
aF5.1834100000000003
asI121898
(lp190
F5.1774100000000001
aF5.1834100000000003
aF5.1834100000000003
aF5.1834100000000003
aF5.1774100000000001
aF5.1774100000000001
aF5.1774100000000001
aF5.1774100000000001
aF5.1774100000000001
aF5.1774100000000001
aF5.1774100000000001
aF5.1774100000000001
asI121916
(lp191
F5.1791700000000001
aF5.1648300000000003
aF5.1648300000000003
aF5.1648300000000003
aF5.1648300000000003
aF5.1791700000000001
aF5.1791700000000001
aF5.1791700000000001
aF5.1791700000000001
aF5.1791700000000001
aF5.1791700000000001
aF5.1791700000000001
aF5.1791700000000001
aF5.1791700000000001
asI121917
(lp192
F5.1792299999999996
aF5.1791700000000001
aF5.1791700000000001
aF5.1792299999999996
aF5.1792299999999996
aF5.1792299999999996
aF5.1792299999999996
aF5.1792299999999996
aF5.1792299999999996
aF5.1792299999999996
aF5.1792299999999996
aF5.1792299999999996
aF5.1792299999999996
asI121918
(lp193
F5.1792100000000003
aF5.1792299999999996
aF5.1792100000000003
aF5.1792100000000003
aF5.1792100000000003
aF5.1792100000000003
aF5.1792100000000003
aF5.1792100000000003
aF5.1792100000000003
aF5.1792100000000003
asI121920
(lp194
F5.1792299999999996
aF5.1792299999999996
aF5.1792299999999996
aF5.1792299999999996
aF5.1792299999999996
aF5.1792299999999996
aF5.1792299999999996
aF5.1792299999999996
asI121924
(lp195
F5.1792199999999999
aF5.1792199999999999
aF5.1792199999999999
asI121925
(lp196
F5.1792299999999996
aF5.1792199999999999
aF5.1792299999999996
aF5.1792299999999996
aF5.1792299999999996
aF5.1792299999999996
aF5.1792299999999996
aF5.1792299999999996
aF5.1792299999999996
aF5.1792299999999996
aF5.1792299999999996
asI121926
(lp197
F5.1792199999999999
aF5.1792199999999999
aF5.1792199999999999
aF5.1792199999999999
aF5.1792199999999999
aF5.1792199999999999
aF5.1792199999999999
aF5.1792199999999999
aF5.1792199999999999
aF5.1792199999999999
asI121927
(lp198
F5.17936
aF5.17936
aF5.17936
aF5.17936
aF5.17936
aF5.17936
aF5.17936
aF5.17936
aF5.17936
aF5.17936
aF5.17936
aF5.17936
asI121932
(lp199
F5.1791299999999998
aF5.1791299999999998
aF5.1791299999999998
aF5.1791299999999998
aF5.1791299999999998
aF5.1791299999999998
aF5.1791299999999998
aF5.1791299999999998
aF5.1791299999999998
aF5.1791299999999998
aF5.1791299999999998
aF5.1791299999999998
aF5.1791299999999998
aF5.1791299999999998
asI121933
(lp200
F5.1791499999999999
aF5.1791299999999998
aF5.1791499999999999
aF5.1791499999999999
aF5.1791499999999999
aF5.1791499999999999
aF5.1791499999999999
aF5.1791499999999999
aF5.1791499999999999
aF5.1791499999999999
aF5.1791499999999999
aF5.1791499999999999
aF5.1791499999999999
aF5.1791499999999999
aF5.1791499999999999
asI121936
(lp201
F5.1791799999999997
aF5.1791799999999997
aF5.1791799999999997
aF5.1791799999999997
aF5.1791799999999997
aF5.1791799999999997
aF5.1791799999999997
aF5.1791799999999997
aF5.1791799999999997
aF5.1791799999999997
aF5.1791799999999997
asI121939
(lp202
F5.1791900000000002
aF5.1791900000000002
aF5.1791900000000002
aF5.1791900000000002
aF5.1791900000000002
aF5.1791900000000002
asI121940
(lp203
F5.1791400000000003
aF5.1791900000000002
aF5.1791900000000002
aF5.1791400000000003
aF5.1791400000000003
aF5.1791400000000003
aF5.1791400000000003
aF5.1791400000000003
aF5.1791400000000003
aF5.1791400000000003
aF5.1791400000000003
aF5.1791400000000003
aF5.1791400000000003
aF5.1791400000000003
aF5.1791400000000003
aF5.1791400000000003
asI122245
(lp204
F5.1773999999999996
aF5.1773999999999996
aF5.1773699999999998
aF5.1773999999999996
aF5.1774300000000002
aF5.1773899999999999
aF5.1773800000000003
aF5.1773899999999999
asI124080
(lp205
F4.7284600000000001
aF0
aF4.7284600000000001
aF4.7284600000000001
aF4.7284600000000001
aF4.7284300000000004
aF4.7284300000000004
aF4.7284600000000001
aF4.7284600000000001
aF4.72844
aF4.72844
asI124081
(lp206
F4.7379199999999999
aF4.7284300000000004
aF4.7284300000000004
aF4.7379199999999999
aF4.7379199999999999
aF4.7379199999999999
aF4.7379100000000003
aF4.7379100000000003
aF4.73794
aF4.73794
aF4.7379100000000003
aF4.7379100000000003
aF4.73794
asI124084
(lp207
F4.7259700000000002
aF4.7259700000000002
aF4.7259700000000002
aF4.7259700000000002
aF4.7259700000000002
aF4.7259700000000002
aF4.7259700000000002
aF4.7259700000000002
aF4.7259700000000002
asI124085
(lp208
F4.7358500000000001
aF4.7259700000000002
aF4.7259700000000002
aF4.7358500000000001
aF4.7358500000000001
aF4.7358500000000001
aF4.7358799999999999
aF4.7358799999999999
aF4.7358799999999999
aF4.7358799999999999
aF4.7358799999999999
aF4.7358799999999999
aF4.7359099999999996
aF4.7359099999999996
aF4.7359099999999996
asI124086
(lp209
F4.7268400000000002
aF4.7359099999999996
aF4.7359099999999996
aF4.7268400000000002
aF4.7268400000000002
aF4.7268400000000002
aF4.7268699999999999
aF4.7268699999999999
aF4.7268699999999999
aF4.7268699999999999
aF4.7268699999999999
aF4.7268699999999999
asI124087
(lp210
F4.7339099999999998
aF4.7268699999999999
aF4.7268699999999999
aF4.7339099999999998
aF4.7339399999999996
aF4.7339399999999996
aF4.7339700000000002
aF4.7339700000000002
aF4.7339599999999997
aF4.7339599999999997
aF4.7339599999999997
aF4.7339599999999997
asI124089
(lp211
F4.7319000000000004
aF4.7318699999999998
aF4.7319000000000004
aF4.7319000000000004
aF4.7319000000000004
aF4.7319000000000004
aF4.7319000000000004
aF4.7319000000000004
asI124091
(lp212
F4.7282999999999999
aF4.7282999999999999
aF4.7283299999999997
aF4.7283299999999997
aF4.7283400000000002
aF4.7283400000000002
aF4.7283099999999996
aF4.7283099999999996
aF4.7283299999999997
asI124092
(lp213
F4.7302799999999996
aF4.7302799999999996
aF4.7302999999999997
aF4.7302999999999997
aF4.7302999999999997
asI126496
(lp214
F5.0125799999999998
aF5.0125799999999998
aF5.0126099999999996
aF5.0126099999999996
asI124102
(lp215
F4.7282999999999999
aF4.7282999999999999
aF4.7283200000000001
aF4.7283200000000001
aF4.7283200000000001
aF4.7283200000000001
aF4.7283499999999998
aF4.7283499999999998
aF4.7283200000000001
aF4.7283200000000001
aF4.7283200000000001
aF4.7283200000000001
aF4.7283200000000001
aF4.7283200000000001
aF4.7283200000000001
aF4.7283200000000001
aF4.7283200000000001
aF4.7283200000000001
aF4.7283200000000001
aF4.7283200000000001
aF4.7283200000000001
aF4.7283200000000001
aF4.7283200000000001
aF4.7283499999999998
asI124103
(lp216
F4.7379100000000003
aF4.7379100000000003
aF4.7378999999999998
aF4.7378999999999998
aF4.7379300000000004
aF4.7379300000000004
aF4.7379300000000004
aF4.7379300000000004
asI124106
(lp217
F4.7359999999999998
aF4.7359999999999998
aF4.7359999999999998
aF4.7359999999999998
aF4.73597
aF4.73597
aF4.7359999999999998
aF4.7359999999999998
asI124107
(lp218
F4.7267999999999999
aF4.7267999999999999
aF4.7268600000000003
aF4.7268600000000003
aF4.7267999999999999
aF4.7267999999999999
aF4.7268299999999996
aF4.7268299999999996
asI124109
(lp219
F4.7339000000000002
aF4.7339000000000002
aF4.7339000000000002
aF4.7339000000000002
aF4.73393
aF4.73393
aF4.73393
asI124110
(lp220
F4.73184
aF4.73393
aF4.73393
aF4.73184
aF4.7318600000000002
aF4.7318600000000002
aF4.7318600000000002
aF4.7318600000000002
aF4.7318600000000002
aF4.7318600000000002
asI124111
(lp221
F4.7284199999999998
aF4.7318600000000002
aF4.7284199999999998
aF4.7284499999999996
aF4.7284499999999996
aF4.7284499999999996
aF4.7284499999999996
aF4.7284499999999996
asI124112
(lp222
F4.7302299999999997
aF4.7284499999999996
aF4.7302299999999997
aF4.7302600000000004
aF4.7302600000000004
aF4.7302799999999996
aF4.7302799999999996
aF4.7302600000000004
asI126499
(lp223
F5.0126099999999996
aF5.0126099999999996
asI122069
(lp224
F5.1893700000000003
aF5.1893700000000003
aF5.1893700000000003
aF5.1893700000000003
aF5.1893700000000003
aF5.1893700000000003
aF5.1893700000000003
aF5.1893700000000003
aF5.1893700000000003
asI122070
(lp225
F5.17333
aF5.1893700000000003
aF5.1893700000000003
aF5.1893700000000003
aF5.17333
aF5.17333
aF5.17333
aF5.17333
aF5.17333
aF5.17333
aF5.17333
aF5.17333
asI122071
(lp226
F5.18642
aF5.17333
aF5.17333
aF5.18642
aF5.18642
aF5.18642
aF5.18642
aF5.18642
aF5.18642
aF5.18642
aF5.18642
aF5.18642
asI122072
(lp227
F5.1753900000000002
aF5.18642
aF5.18642
aF5.1753900000000002
aF5.1753900000000002
aF5.1753900000000002
aF5.1753900000000002
aF5.1753900000000002
aF5.1753900000000002
aF5.1753900000000002
aF5.1753900000000002
aF5.1753900000000002
asI122073
(lp228
F5.1814099999999996
aF5.1753900000000002
aF5.1753900000000002
aF5.1814099999999996
aF5.1814099999999996
aF5.1814099999999996
aF5.1814099999999996
aF5.1814099999999996
aF5.1814099999999996
aF5.1814099999999996
aF5.1814099999999996
aF5.1814099999999996
asI122074
(lp229
F5.1833400000000003
aF5.1814099999999996
aF5.1814099999999996
aF5.1833400000000003
aF5.1833400000000003
aF5.1833400000000003
aF5.1833400000000003
aF5.1833400000000003
aF5.1833400000000003
aF5.1833400000000003
aF5.1833400000000003
aF5.1833400000000003
asI122076
(lp230
F5.1772799999999997
aF5.1833400000000003
aF5.1772799999999997
aF5.1772799999999997
aF5.1772799999999997
aF5.1772799999999997
aF5.1772799999999997
aF5.1772799999999997
aF5.1772799999999997
aF5.1772799999999997
aF5.1772799999999997
asI122077
(lp231
F5.1814099999999996
aF5.1772799999999997
aF5.1814099999999996
aF5.1814099999999996
aF5.1814099999999996
aF5.1814099999999996
aF5.1814099999999996
aF5.1814099999999996
asI122079
(lp232
F5.1793899999999997
aF5.1793899999999997
aF5.1793899999999997
aF5.1793899999999997
aF5.1793899999999997
aF5.1793899999999997
aF5.1793899999999997
aF5.1793899999999997
aF5.1793899999999997
aF5.1793899999999997
aF5.1793899999999997
aF5.1793899999999997
aF5.1793899999999997
aF5.1793899999999997
asI122092
(lp233
F5.1793899999999997
aF5.1647699999999999
aF5.1647699999999999
aF5.1647699999999999
aF5.1793899999999997
aF5.1793899999999997
aF5.1793899999999997
aF5.1793899999999997
aF5.1793899999999997
aF5.1793899999999997
aF5.1793899999999997
aF5.1793899999999997
aF5.1793899999999997
aF5.1793899999999997
aF5.1793899999999997
aF5.1793899999999997
aF5.1793899999999997
asI124142
(lp234
F4.7302099999999996
aF4.7162100000000002
aF4.7162100000000002
aF4.7302099999999996
aF4.7302400000000002
asI124144
(lp235
F4.7302299999999997
aF4.7302299999999997
aF4.7302600000000004
aF4.7302600000000004
aF4.7302299999999997
aF4.7302299999999997
aF4.7302299999999997
aF4.7302299999999997
aF4.7302600000000004
aF4.7302600000000004
aF4.7302600000000004
aF4.7302600000000004
aF4.7302600000000004
asI122097
(lp236
F5.1793899999999997
aF5.1793899999999997
aF5.1793899999999997
aF5.1793899999999997
aF5.1793899999999997
aF5.1793899999999997
aF5.1793899999999997
aF5.1793899999999997
aF5.1793899999999997
aF5.1793899999999997
aF5.1793899999999997
asI124146
(lp237
F4.7302900000000001
aF4.7302900000000001
aF4.7302600000000004
aF4.7302600000000004
aF4.7302600000000004
aF4.7302600000000004
aF4.7302600000000004
aF4.7302600000000004
aF4.7302600000000004
asI122099
(lp238
F5.1794200000000004
aF5.1794200000000004
aF5.1794200000000004
aF5.1794200000000004
aF5.1794200000000004
aF5.1794200000000004
aF5.1794200000000004
aF5.1794200000000004
aF5.1794200000000004
aF5.1794200000000004
aF5.1794200000000004
aF5.1794200000000004
aF5.1794200000000004
aF5.1794200000000004
asI124148
(lp239
F4.7302600000000004
aF4.7302600000000004
aF4.7302600000000004
aF4.7302600000000004
aF4.7302600000000004
asI124149
(lp240
F4.73027
aF4.73027
aF4.7302600000000004
aF4.7302600000000004
aF4.7302900000000001
aF4.7302900000000001
aF4.7302600000000004
asI124150
(lp241
F4.7302900000000001
aF4.7302900000000001
aF4.7302900000000001
aF4.7302900000000001
aF4.7302600000000004
aF4.7302600000000004
aF4.7302900000000001
aF4.7302900000000001
aF4.7302900000000001
aF4.7302900000000001
aF4.7302900000000001
aF4.7302900000000001
asI122409
(lp242
F5.1772999999999998
aF5.1772999999999998
aF5.1772999999999998
aF5.1772999999999998
aF5.1772999999999998
aF5.1772999999999998
aF5.1772999999999998
aF5.1772999999999998
aF5.1772999999999998
asI124152
(lp243
F4.7302900000000001
aF4.7302900000000001
aF4.7302900000000001
aF4.7302900000000001
aF4.7302900000000001
aF4.7303199999999999
aF4.7303199999999999
aF4.7303300000000004
aF4.7303300000000004
aF4.7303300000000004
aF4.7303300000000004
aF4.7303300000000004
aF4.7303300000000004
aF4.7303300000000004
aF4.7303300000000004
asI124153
(lp244
F4.7303300000000004
aF4.7303300000000004
aF4.7303300000000004
aF4.7303300000000004
aF4.7303300000000004
aF4.7303300000000004
aF4.7303300000000004
aF4.7303300000000004
aF4.7303300000000004
aF4.7303300000000004
aF4.7303300000000004
aF4.7303300000000004
aF4.7303199999999999
aF4.7303199999999999
asI124154
(lp245
F4.7303199999999999
aF4.7303199999999999
aF4.7303199999999999
aF4.7303199999999999
aF4.7303499999999996
aF4.7303499999999996
aF4.7303499999999996
aF4.7303499999999996
aF4.7303600000000001
aF4.7303600000000001
aF4.7303199999999999
aF4.7303199999999999
aF4.7303199999999999
aF4.7303199999999999
asI124155
(lp246
F4.7303199999999999
aF4.7303199999999999
aF4.7303300000000004
aF4.7303300000000004
asI124156
(lp247
F4.7303499999999996
aF4.7303499999999996
aF4.7303199999999999
aF4.7303199999999999
aF4.7303499999999996
aF4.7303499999999996
aF4.7303199999999999
aF4.7303199999999999
aF4.7303300000000004
aF4.7303300000000004
aF4.7303499999999996
aF4.7303499999999996
aF4.7303499999999996
aF4.7303499999999996
asI122410
(lp248
F5.18241
aF5.1772999999999998
aF5.1772999999999998
aF5.1772999999999998
aF5.18241
aF5.18241
aF5.18241
aF5.18241
aF5.18241
aF5.18241
aF5.18241
aF5.18241
aF5.18241
asI124159
(lp249
F4.7303600000000001
aF4.7303600000000001
aF4.7303499999999996
aF4.7303499999999996
aF4.7303800000000003
aF4.7303800000000003
aF4.7303600000000001
aF4.7303600000000001
asI122112
(lp250
F5.1794900000000004
aF5.1794900000000004
aF5.1794900000000004
aF5.1794900000000004
aF5.1794900000000004
aF5.1794900000000004
aF5.1794900000000004
aF5.1794900000000004
aF5.1794900000000004
aF5.1794900000000004
aF5.1794900000000004
aF5.1794900000000004
aF5.1794900000000004
aF5.1794900000000004
asI122114
(lp251
F5.1794799999999999
aF5.1794799999999999
aF5.1794799999999999
asI122411
(lp252
F5.1903600000000001
aF5.18241
aF5.18241
aF5.18241
aF5.1903600000000001
aF5.1903600000000001
aF5.1903600000000001
aF5.1903600000000001
aF5.1903600000000001
aF5.1903600000000001
aF5.1903600000000001
aF5.1903600000000001
aF5.1903600000000001
asI122116
(lp253
F5.1794700000000002
aF5.1794700000000002
aF5.1794700000000002
aF5.1794700000000002
asI122117
(lp254
F5.1794700000000002
aF5.1794700000000002
aF5.1794700000000002
aF5.1794700000000002
aF5.1794700000000002
aF5.1794700000000002
aF5.1794700000000002
aF5.1794700000000002
aF5.1794700000000002
aF5.1794700000000002
aF5.1794700000000002
aF5.1794700000000002
aF5.1794700000000002
aF5.1794700000000002
asI122118
(lp255
F5.1794700000000002
aF5.1794700000000002
aF5.1794700000000002
aF5.1794700000000002
aF5.1794700000000002
aF5.1794700000000002
aF5.1794700000000002
aF5.1794700000000002
aF5.1794700000000002
aF5.1794700000000002
aF5.1794700000000002
aF5.1794700000000002
asI122412
(lp256
F5.1724399999999999
aF5.1903600000000001
aF5.1903600000000001
aF5.1724399999999999
aF5.1724399999999999
aF5.1724399999999999
aF5.1724399999999999
aF5.1724399999999999
aF5.1724399999999999
aF5.1724399999999999
aF5.1724399999999999
aF5.1724399999999999
asI122123
(lp257
F5.1795200000000001
aF5.1795200000000001
aF5.1795200000000001
aF5.1795200000000001
aF5.1795200000000001
aF5.1795200000000001
aF5.1795200000000001
aF5.1795200000000001
aF5.1795200000000001
aF5.1795200000000001
aF5.1795200000000001
aF5.1795200000000001
aF5.1795200000000001
aF5.1795200000000001
aF5.1795200000000001
aF5.1795200000000001
asI122124
(lp258
F5.1795200000000001
aF5.1795200000000001
aF5.1795200000000001
aF5.1795200000000001
aF5.1795200000000001
aF5.1795200000000001
aF5.1795200000000001
aF5.1795200000000001
aF5.1795200000000001
aF5.1795200000000001
aF5.1795200000000001
aF5.1795200000000001
aF5.1795200000000001
aF5.1795200000000001
aF5.1795200000000001
asI122125
(lp259
F5.1795099999999996
aF5.1795200000000001
aF5.1795099999999996
aF5.1795099999999996
aF5.1795099999999996
aF5.1795099999999996
aF5.1795099999999996
aF5.1795099999999996
aF5.1795099999999996
aF5.1795099999999996
aF5.1795099999999996
aF5.1795099999999996
aF5.1795099999999996
aF5.1795099999999996
aF5.1795099999999996
aF5.1795099999999996
asI122126
(lp260
F5.1795400000000003
aF5.1795099999999996
aF5.1795400000000003
aF5.1795400000000003
aF5.1795400000000003
aF5.1795400000000003
aF5.1795400000000003
aF5.1795400000000003
aF5.1795400000000003
aF5.1795400000000003
aF5.1795400000000003
aF5.1795400000000003
aF5.1795400000000003
aF5.1795400000000003
aF5.1795400000000003
asI128303
(lp261
F5.0127300000000004
aF5.0127300000000004
aF5.0127300000000004
aF5.0127300000000004
aF5.0127300000000004
aF5.0127300000000004
aF5.0127300000000004
aF5.0127300000000004
aF5.0127300000000004
asI128305
(lp262
F5.0126999999999997
aF5.0127300000000004
aF5.0426599999999997
aF5.0426399999999996
aF5.0426399999999996
aF5.0426700000000002
aF5.0426700000000002
aF5.0426700000000002
aF5.0426700000000002
aF5.0426900000000003
asI128306
(lp263
F5.0138100000000003
aF5.0426900000000003
aF5.0426900000000003
aF5.0138100000000003
aF5.0137900000000002
aF5.0137900000000002
aF5.0138199999999999
aF5.0138199999999999
aF5.0138199999999999
aF5.0138199999999999
aF5.0138199999999999
aF5.0138199999999999
aF5.0138199999999999
aF5.0138199999999999
aF5.0138199999999999
asI128307
(lp264
F5.0084499999999998
aF5.0138199999999999
aF5.0084499999999998
aF5.00847
aF5.00847
aF5.0084999999999997
aF5.0084999999999997
asI128309
(lp265
F5.0152299999999999
aF5.0152299999999999
aF5.0152299999999999
aF5.0152299999999999
aF5.0152299999999999
aF5.0152299999999999
asI128310
(lp266
F5.0105199999999996
aF5.0398800000000001
aF5.03986
aF5.03986
asI128312
(lp267
F5.0105000000000004
aF5.0398500000000004
aF5.0398899999999998
aF5.0398899999999998
aF5.0398899999999998
aF5.0398899999999998
asI128313
(lp268
F5.0105199999999996
aF5.0398899999999998
aF5.0398399999999999
aF5.0111400000000001
aF5.0111400000000001
aF5.0408200000000001
aF5.0408200000000001
aF5.0105300000000002
aF5.0105300000000002
asI128315
(lp269
F5.0125799999999998
aF4.9985299999999997
aF4.9985299999999997
aF5.0125799999999998
aF5.0125799999999998
aF5.0125799999999998
aF5.0126600000000003
aF5.0126600000000003
aF5.0126299999999997
aF5.0126299999999997
aF5.0126299999999997
aF5.0126299999999997
asI128316
(lp270
F5.0127600000000001
aF5.0126299999999997
aF5.0126299999999997
aF5.0127600000000001
aF5.0127499999999996
aF5.0127499999999996
aF5.0127800000000002
aF5.0127800000000002
aF5.0127800000000002
aF5.0127800000000002
aF5.0127800000000002
asI122766
(lp271
F5.1770199999999997
aF5.1770199999999997
aF5.1770199999999997
aF5.1770199999999997
aF5.1770199999999997
aF5.1770199999999997
aF5.1770199999999997
aF5.1770199999999997
aF5.1770199999999997
asI126866
(lp272
F5.0126999999999997
aF5.0126999999999997
aF5.0126600000000003
aF5.0126600000000003
aF5.0126999999999997
aF5.0126999999999997
aF5.0126600000000003
aF5.0126600000000003
aF5.0126600000000003
aF5.0126600000000003
aF5.0126600000000003
asI124279
(lp273
F4.7291400000000001
aF4.7303199999999999
aF4.7303199999999999
aF4.7291400000000001
aF4.7291400000000001
aF4.7291100000000004
aF4.7291100000000004
aF4.7291100000000004
aF4.7291400000000001
aF4.7291400000000001
aF4.7291400000000001
asI124281
(lp274
F4.7386999999999997
aF4.7291400000000001
aF4.7291400000000001
aF4.7386799999999996
aF4.7386799999999996
aF4.7386799999999996
aF4.7386799999999996
aF4.7386799999999996
aF4.7386799999999996
asI124282
(lp275
F4.7267099999999997
aF4.7386799999999996
aF4.7386799999999996
aF4.7386799999999996
aF4.7386799999999996
aF4.7267099999999997
aF4.7267400000000004
aF4.7267400000000004
aF4.7266300000000001
aF4.7266300000000001
aF4.72675
aF4.7267799999999998
aF4.7267700000000001
aF4.7267700000000001
asI122773
(lp276
F5.1884300000000003
aF5.1848999999999998
aF5.1848999999999998
aF5.1884300000000003
aF5.1884300000000003
aF5.1884300000000003
aF5.1884300000000003
aF5.1884300000000003
aF5.1884300000000003
aF5.1884300000000003
aF5.1884300000000003
asI124289
(lp277
F4.7367800000000004
aF4.7367800000000004
aF4.7367800000000004
aF4.7367800000000004
aF4.7367800000000004
asI124290
(lp278
F4.7276100000000003
aF4.7367800000000004
aF4.7367800000000004
aF4.7276100000000003
aF4.7276400000000001
aF4.7276400000000001
aF4.7276400000000001
aF4.7276400000000001
aF4.7276400000000001
aF4.7276400000000001
aF4.7276400000000001
aF4.7276400000000001
asI124291
(lp279
F4.7346899999999996
aF4.7276400000000001
aF4.7276400000000001
aF4.7346899999999996
aF4.7347200000000003
aF4.7347200000000003
aF4.7347200000000003
aF4.7347200000000003
aF4.73475
aF4.73475
aF4.7347200000000003
aF4.7347200000000003
asI124293
(lp280
F4.7326600000000001
aF4.7326600000000001
aF4.7325999999999997
aF4.7325999999999997
aF4.7326600000000001
aF4.7326600000000001
aF4.7326600000000001
aF4.7326600000000001
asI124294
(lp281
F4.72912
aF4.7291100000000004
aF4.7326899999999998
aF4.7326899999999998
aF4.72912
aF4.72912
aF4.72912
aF4.7291400000000001
aF4.7291400000000001
aF4.7291100000000004
aF4.7291100000000004
aF4.7291100000000004
asI122247
(lp282
F5.1904199999999996
aF5.1823699999999997
aF5.1823699999999997
aF5.1823699999999997
aF5.1904199999999996
aF5.1904500000000002
aF5.1904199999999996
aF5.1904199999999996
aF5.1904500000000002
aF5.1904500000000002
aF5.1904500000000002
aF5.19041
aF5.1904199999999996
aF5.1904300000000001
aF5.1904199999999996
aF5.1904199999999996
aF5.1904500000000002
asI124296
(lp283
F4.7309900000000003
aF4.7309900000000003
aF4.7309900000000003
aF4.7309900000000003
aF4.7309900000000003
aF4.7309900000000003
aF4.7309900000000003
aF4.73102
aF4.73102
aF4.7310499999999998
aF4.7310499999999998
aF4.7310499999999998
aF4.7310499999999998
aF4.7310499999999998
asI122249
(lp284
F5.1723299999999997
aF5.1723299999999997
aF5.1723600000000003
aF5.1723800000000004
aF5.1723800000000004
aF5.1723400000000002
aF5.1723699999999999
aF5.17232
aF5.1723699999999999
asI122251
(lp285
F5.1883499999999998
aF5.1883299999999997
aF5.1883100000000004
aF5.1883299999999997
aF5.1883400000000002
aF5.18832
aF5.1883699999999999
aF5.1883499999999998
asI122252
(lp286
F5.1743499999999996
aF5.1883299999999997
aF5.1883299999999997
aF5.1743499999999996
aF5.1743699999999997
aF5.1743499999999996
aF5.1743699999999997
aF5.1743300000000003
aF5.1743600000000001
aF5.1743600000000001
aF5.1743600000000001
aF5.1743600000000001
asI122253
(lp287
F5.1853499999999997
aF5.1743600000000001
aF5.1743600000000001
aF5.1853499999999997
aF5.1853499999999997
aF5.1853699999999998
aF5.1853800000000003
aF5.1854100000000001
aF5.1853800000000003
aF5.1853800000000003
aF5.1853699999999998
aF5.1853499999999997
asI122256
(lp288
F5.1772499999999999
aF5.17727
aF5.1772799999999997
aF5.1772900000000002
aF5.1772900000000002
aF5.1772900000000002
aF5.1772600000000004
asI122094
(lp289
F5.1794599999999997
aF5.17943
aF5.1794599999999997
aF5.1794599999999997
aF5.1794599999999997
aF5.1794599999999997
aF5.1794599999999997
aF5.1794599999999997
aF5.1794599999999997
aF5.1794599999999997
aF5.1794599999999997
asI122263
(lp290
F5.1795
aF5.1794700000000002
aF5.1795299999999997
asI122274
(lp291
F5.17936
aF5.1648500000000004
aF5.1793899999999997
aF5.1793899999999997
aF5.1793399999999998
aF5.1793699999999996
aF5.1793399999999998
aF5.1793699999999996
aF5.1793399999999998
aF5.1793699999999996
aF5.1793699999999996
aF5.17936
aF5.1793399999999998
aF5.1793100000000001
aF5.1793100000000001
asI122275
(lp292
F5.1793399999999998
aF5.1793100000000001
aF5.1793100000000001
aF5.1793699999999996
aF5.1793399999999998
aF5.1793699999999996
aF5.1793800000000001
aF5.1793800000000001
aF5.1793500000000003
asI122276
(lp293
F5.1793500000000003
aF5.1793199999999997
aF5.1793399999999998
aF5.1793399999999998
aF5.1793500000000003
aF5.1793199999999997
asI122438
(lp294
F5.1793899999999997
aF5.1793800000000001
aF5.1793800000000001
aF5.1793899999999997
aF5.1793899999999997
aF5.1793899999999997
asI122278
(lp295
F5.1793899999999997
aF5.1793399999999998
aF5.1793699999999996
aF5.17936
asI122279
(lp296
F5.1793300000000002
aF5.1793399999999998
aF5.1793399999999998
aF5.17936
aF5.1793399999999998
aF5.1793100000000001
aF5.1793399999999998
aF5.1793399999999998
aF5.1793300000000002
asI124328
(lp297
F4.7301099999999998
aF4.7310400000000001
aF4.7310400000000001
aF4.7310400000000001
aF4.7301200000000003
aF4.7301200000000003
aF4.7301200000000003
aF4.7301500000000001
aF4.7301500000000001
aF4.7301500000000001
aF4.7301500000000001
aF4.7301500000000001
aF4.7301500000000001
aF4.7301900000000003
aF4.7301900000000003
aF4.7301799999999998
aF4.7301799999999998
asI124329
(lp298
F4.7301599999999997
aF4.7301599999999997
aF4.7301200000000003
aF4.7301200000000003
aF4.7301500000000001
aF4.7301500000000001
aF4.7301200000000003
aF4.7301200000000003
aF4.7301399999999996
aF4.7301399999999996
aF4.7301399999999996
aF4.7301399999999996
aF4.7301599999999997
aF4.7301599999999997
asI124330
(lp299
F4.7301599999999997
aF4.7301299999999999
aF4.7301299999999999
aF4.7301299999999999
aF4.7301299999999999
aF4.7301599999999997
aF4.7301599999999997
aF4.7301599999999997
aF4.7301599999999997
aF4.7301599999999997
aF4.7301700000000002
aF4.7301700000000002
aF4.7301399999999996
aF4.7301399999999996
asI122283
(lp300
F5.1793399999999998
aF5.1793399999999998
aF5.1793300000000002
aF5.1793300000000002
aF5.1793300000000002
aF5.1793399999999998
aF5.17936
aF5.1793399999999998
aF5.1793399999999998
aF5.1793399999999998
aF5.1793300000000002
asI124333
(lp301
F4.7301599999999997
aF4.7301599999999997
aF4.7301299999999999
aF4.7301299999999999
aF4.7295400000000001
aF4.7295400000000001
aF4.7301299999999999
aF4.7301299999999999
aF4.7301700000000002
aF4.7301700000000002
aF4.7301700000000002
aF4.7301700000000002
aF4.7301700000000002
aF4.7301700000000002
asI124334
(lp302
F4.7301799999999998
aF4.7301799999999998
aF4.7301799999999998
aF4.7301799999999998
asI124335
(lp303
F4.7301700000000002
aF4.7301700000000002
aF4.7301700000000002
aF4.7301700000000002
aF4.7301700000000002
aF4.7301700000000002
aF4.7301700000000002
aF4.7301700000000002
asI124336
(lp304
F4.7301700000000002
aF4.7301700000000002
aF4.7301700000000002
aF4.7301700000000002
aF4.7302299999999997
aF4.7302299999999997
aF4.7302
aF4.7302
aF4.7301700000000002
aF4.7301700000000002
aF4.7301700000000002
aF4.7301700000000002
aF4.7295600000000002
aF4.7295600000000002
asI124337
(lp305
F4.7301900000000003
aF4.7301900000000003
aF4.7301900000000003
aF4.7301900000000003
aF4.7301799999999998
aF4.7301799999999998
aF4.7302099999999996
aF4.7302099999999996
aF4.7301900000000003
aF4.7301900000000003
aF4.7301900000000003
aF4.7301900000000003
aF4.7301799999999998
aF4.7301799999999998
asI124338
(lp306
F4.7301900000000003
aF4.7301900000000003
aF4.7301900000000003
aF4.7301900000000003
aF4.7301900000000003
aF4.7301900000000003
aF4.7301299999999999
aF4.7301299999999999
aF4.7301900000000003
aF4.7301900000000003
aF4.7301900000000003
aF4.7301900000000003
aF4.7301799999999998
aF4.7301799999999998
asI122291
(lp307
F5.1793800000000001
aF5.1793800000000001
aF5.1793800000000001
aF5.1793800000000001
aF5.1793800000000001
aF5.1793800000000001
aF5.1793800000000001
asI122292
(lp308
F5.1793800000000001
aF5.1793800000000001
aF5.1793800000000001
asI122293
(lp309
F5.1793800000000001
aF5.1793800000000001
aF5.1793800000000001
aF5.1793800000000001
aF5.1793800000000001
aF5.1793800000000001
aF5.1793800000000001
aF5.1793800000000001
aF5.1793800000000001
aF5.1793800000000001
aF5.1793800000000001
aF5.1793800000000001
aF5.1793800000000001
asI122294
(lp310
F5.1793399999999998
aF5.1793399999999998
aF5.1793399999999998
aF5.1793399999999998
aF5.1793399999999998
aF5.1793399999999998
aF5.1793399999999998
aF5.1793399999999998
aF5.1793399999999998
aF5.1793399999999998
aF5.1793399999999998
aF5.1793399999999998
aF5.1793399999999998
aF5.1793399999999998
aF5.1793399999999998
aF5.1793399999999998
aF5.1793399999999998
aF5.1793399999999998
asI122296
(lp311
F5.1793500000000003
aF5.1793399999999998
aF5.1793399999999998
aF5.1793399999999998
aF5.1793399999999998
aF5.1793399999999998
aF5.1793399999999998
aF5.1793399999999998
aF5.1793500000000003
aF5.1793500000000003
aF5.1793500000000003
aF5.1793500000000003
aF5.1793500000000003
aF5.1793500000000003
aF5.1793500000000003
aF5.1793500000000003
aF5.1793500000000003
aF5.1793500000000003
aF5.1793500000000003
aF5.1793500000000003
asI122297
(lp312
F5.17936
aF5.17936
aF5.17936
aF5.17936
aF5.17936
aF5.17936
aF5.17936
aF5.17936
aF5.17936
aF5.17936
aF5.17936
aF5.17936
aF5.17936
aF5.17936
asI122298
(lp313
F5.1793500000000003
aF5.1793500000000003
aF5.1793500000000003
aF5.1793500000000003
aF5.1793500000000003
aF5.1793500000000003
aF5.1793500000000003
aF5.1793500000000003
aF5.1793500000000003
aF5.1793500000000003
aF5.1793500000000003
aF5.1793500000000003
aF5.1793500000000003
aF5.1793500000000003
asI122101
(lp314
F5.1794599999999997
aF5.1794599999999997
aF5.1794599999999997
aF5.1794599999999997
aF5.1794599999999997
aF5.1794599999999997
aF5.1794599999999997
aF5.1794599999999997
aF5.1794599999999997
aF5.1794599999999997
aF5.1794599999999997
aF5.1794599999999997
aF5.1794599999999997
aF5.1794599999999997
aF5.1794599999999997
asI122443
(lp315
F5.1793800000000001
aF5.1793800000000001
aF5.1793800000000001
aF5.1793800000000001
aF5.1793800000000001
aF5.1793800000000001
aF5.1793800000000001
aF5.1793800000000001
aF5.1793800000000001
aF5.1793800000000001
aF5.1793800000000001
aF5.1793800000000001
aF5.1793800000000001
aF5.1793800000000001
asI122102
(lp316
F5.1794500000000001
aF5.1794599999999997
aF5.1794599999999997
aF5.1794599999999997
aF5.1794599999999997
aF5.1794599999999997
aF5.1794599999999997
aF5.1794599999999997
aF5.1794599999999997
aF5.1794599999999997
aF5.1794599999999997
aF5.1794599999999997
aF5.1794599999999997
aF5.1794599999999997
asI122445
(lp317
F5.1794399999999996
aF5.1794399999999996
aF5.1794399999999996
aF5.1794399999999996
aF5.1794399999999996
aF5.1794399999999996
aF5.1794399999999996
aF5.1794399999999996
aF5.1794399999999996
asI122105
(lp318
F5.1794799999999999
aF5.1794799999999999
aF5.1794799999999999
aF5.1794799999999999
aF5.1794799999999999
aF5.1794799999999999
aF5.1794799999999999
aF5.1794799999999999
aF5.1794799999999999
aF5.1794799999999999
aF5.1794799999999999
aF5.1794799999999999
asI122447
(lp319
F5.1795299999999997
aF5.1795299999999997
aF5.1795299999999997
aF5.1795299999999997
aF5.1795299999999997
aF5.1795299999999997
aF5.1795299999999997
asI122449
(lp320
F5.1795099999999996
aF5.1795099999999996
aF5.1795099999999996
aF5.1795099999999996
aF5.1795099999999996
aF5.1795099999999996
asI122108
(lp321
F5.1794900000000004
aF5.1794900000000004
asI122109
(lp322
F5.1795200000000001
aF5.1795200000000001
aF5.1795200000000001
aF5.1795200000000001
aF5.1795200000000001
aF5.1795200000000001
aF5.1795200000000001
aF5.1795200000000001
asI126449
(lp323
F5.0153400000000001
aF5.0153400000000001
aF5.0153400000000001
aF5.0153400000000001
aF5.0153699999999999
aF5.0153699999999999
aF5.0153699999999999
aF5.0153699999999999
asI126451
(lp324
F5.0153499999999998
aF5.0206600000000003
aF5.0206600000000003
aF5.0206600000000003
aF5.0206600000000003
aF5.0206600000000003
aF5.0206600000000003
aF5.0206600000000003
aF5.0206600000000003
aF5.0206600000000003
aF5.0206600000000003
aF5.0206600000000003
aF5.0153499999999998
aF5.0153499999999998
aF5.0153499999999998
asI126453
(lp325
F5.0153800000000004
aF5.0153800000000004
aF5.0153299999999996
aF5.0153299999999996
asI126454
(lp326
F5.0206200000000001
aF5.0153299999999996
aF5.0153299999999996
aF5.0206200000000001
aF5.0206200000000001
aF5.0206200000000001
aF5.0206499999999998
aF5.0206499999999998
asI122111
(lp327
F5.1794900000000004
aF5.1794900000000004
aF5.1794900000000004
aF5.1794900000000004
aF5.1794900000000004
aF5.1794900000000004
aF5.1794900000000004
aF5.1794900000000004
aF5.1794900000000004
asI126460
(lp328
F5.0065499999999998
aF5.0065499999999998
aF5.0065499999999998
aF5.0065499999999998
aF5.0065499999999998
aF5.0065499999999998
aF5.0065499999999998
aF5.0065499999999998
asI126461
(lp329
F5.0175599999999996
aF5.0065400000000002
aF5.0065400000000002
aF5.0065400000000002
aF5.0175599999999996
aF5.01755
aF5.01755
aF5.01755
aF5.01755
aF5.01755
aF5.01755
aF5.01755
asI126462
(lp330
F5.0106700000000002
aF5.01755
aF5.01755
aF5.01755
aF5.01755
aF5.0106700000000002
aF5.0106700000000002
aF5.0106700000000002
asI126464
(lp331
F5.0107100000000004
aF5.0107100000000004
aF5.0106799999999998
aF5.0106799999999998
aF5.0107799999999996
aF5.0107799999999996
aF5.0107799999999996
aF5.0107799999999996
asI126465
(lp332
F5.0106299999999999
aF5.0107799999999996
aF5.0107799999999996
aF5.0107799999999996
aF5.0106299999999999
aF5.0106400000000004
aF5.0106400000000004
aF5.0106599999999997
aF5.0106599999999997
aF5.0107600000000003
aF5.0107600000000003
aF5.0107600000000003
aF5.0107600000000003
asI126467
(lp333
F5.01065
aF5.01065
aF5.0107600000000003
aF5.0107600000000003
aF5.01065
aF5.01065
aF5.0106400000000004
aF5.0106400000000004
asI126469
(lp334
F5.0126400000000002
aF5.0126400000000002
aF5.0126499999999998
aF5.0126499999999998
aF5.01267
aF5.01267
aF5.0126400000000002
aF5.0126400000000002
aF5.0126200000000001
aF5.0126200000000001
asI124436
(lp335
F4.7290799999999997
aF4.7290799999999997
aF4.7290999999999999
aF4.7290999999999999
asI124437
(lp336
F4.7290999999999999
aF4.7290999999999999
aF4.7290999999999999
aF4.7290999999999999
aF4.7290999999999999
asI124440
(lp337
F4.7386499999999998
aF3.7266300000000001
aF4.7386499999999998
aF4.7387699999999997
aF4.7387699999999997
aF4.7387600000000001
aF4.7387600000000001
aF4.7387699999999997
aF4.7387699999999997
aF4.7387600000000001
asI124444
(lp338
F4.73672
aF4.7267400000000004
aF4.73672
aF4.7367499999999998
aF4.7367499999999998
aF4.73672
aF4.73672
aF4.73672
asI124445
(lp339
F4.7275900000000002
aF4.73672
aF4.73672
aF4.73672
aF4.73672
aF4.7275900000000002
aF4.7276100000000003
aF4.7276100000000003
aF4.7276100000000003
aF4.7276100000000003
aF4.7276199999999999
asI124448
(lp340
F4.7346700000000004
aF4.7346700000000004
aF4.7346599999999999
aF4.7346599999999999
aF4.7346899999999996
aF4.7346899999999996
aF4.7347000000000001
aF4.7347000000000001
asI124449
(lp341
F4.7325999999999997
aF4.7347000000000001
aF4.7325999999999997
aF4.7325999999999997
aF4.7325999999999997
aF4.7325699999999999
aF4.7325699999999999
aF4.7326300000000003
aF4.7326300000000003
asI124450
(lp342
F4.7290200000000002
aF4.7326300000000003
aF4.7326300000000003
aF4.7290200000000002
aF4.72905
aF4.72905
aF4.72905
aF4.72905
aF4.7290900000000002
aF4.7290900000000002
asI124451
(lp343
F4.7300599999999999
aF4.7290900000000002
aF4.7290900000000002
aF4.7300599999999999
aF4.7300899999999997
aF4.7300899999999997
aF4.7300700000000004
aF4.7300700000000004
aF4.7300700000000004
aF4.7300700000000004
aF4.7300700000000004
aF4.7300700000000004
asI126503
(lp344
F5.0127100000000002
aF5.0126099999999996
aF5.0127100000000002
aF5.0126999999999997
asI126505
(lp345
F5.0125500000000001
aF5.0125500000000001
aF5.0125799999999998
aF5.0125799999999998
aF5.0125799999999998
aF5.0125799999999998
aF5.0126099999999996
aF5.0126099999999996
aF5.0125799999999998
aF5.0125799999999998
aF5.0125799999999998
aF5.0125799999999998
aF5.0125799999999998
aF5.0125799999999998
asI126506
(lp346
F5.0125599999999997
aF5.0126600000000003
aF5.0126600000000003
aF5.0125599999999997
aF5.0125500000000001
aF5.0125500000000001
aF5.0126299999999997
aF5.0126299999999997
aF5.0126600000000003
asI126507
(lp347
F5.0126499999999998
aF5.0126499999999998
aF5.0126600000000003
aF5.0126600000000003
aF5.0126499999999998
aF5.0126499999999998
asI126508
(lp348
F5.0126600000000003
aF5.0126499999999998
aF5.0126600000000003
aF5.0127199999999998
aF5.0127199999999998
aF5.0127199999999998
aF5.0127199999999998
aF5.0127499999999996
aF5.0127499999999996
aF5.01274
aF5.01274
aF5.0127199999999998
aF5.0127199999999998
aF5.0127199999999998
aF5.0127199999999998
asI122413
(lp349
F5.1878299999999999
aF5.1724399999999999
aF5.1724399999999999
aF5.1724399999999999
aF5.1878299999999999
aF5.1878299999999999
aF5.1878299999999999
aF5.1878299999999999
aF5.1878299999999999
aF5.1878299999999999
aF5.1878299999999999
aF5.1878299999999999
aF5.1878299999999999
aF5.1878299999999999
asI122414
(lp350
F5.1853600000000002
aF5.1878299999999999
aF5.1878299999999999
aF5.1878299999999999
aF5.1878299999999999
aF5.1878299999999999
aF5.1878299999999999
aF5.1878299999999999
aF5.1853600000000002
aF5.1853600000000002
aF5.1853600000000002
aF5.1853600000000002
aF5.1853600000000002
aF5.1853600000000002
aF5.1853600000000002
aF5.1853600000000002
aF5.1853600000000002
aF5.1853600000000002
asI122415
(lp351
F5.1772999999999998
aF5.1853600000000002
aF5.1853600000000002
aF5.1853600000000002
aF5.1853600000000002
aF5.1853600000000002
aF5.1853600000000002
aF5.1772999999999998
aF5.1772999999999998
aF5.1772999999999998
aF5.1772999999999998
aF5.1772999999999998
aF5.1772999999999998
aF5.1772999999999998
aF5.1772999999999998
aF5.1772999999999998
aF5.1772999999999998
aF5.1772999999999998
aF5.1772999999999998
asI122416
(lp352
F5.1745099999999997
aF5.1745099999999997
aF5.1745099999999997
aF5.1745099999999997
aF5.1745099999999997
aF5.1745099999999997
aF5.1745099999999997
asI123828
(lp353
F4.7292500000000004
aF4.7292500000000004
aF4.7292500000000004
aF4.7292500000000004
aF4.7299199999999999
asI123829
(lp354
F4.7299199999999999
aF4.7299199999999999
aF4.7299199999999999
aF4.7299199999999999
aF4.7299300000000004
aF4.7299300000000004
aF4.7299300000000004
aF4.7299300000000004
aF4.7299300000000004
aF4.7299300000000004
aF4.7299300000000004
aF4.7299300000000004
aF4.72987
aF4.72987
asI124481
(lp355
F4.7300899999999997
aF4.7300899999999997
aF4.7300899999999997
aF4.7300899999999997
aF4.7300899999999997
aF4.7301200000000003
aF4.7301200000000003
aF4.7300800000000001
aF4.7300800000000001
aF4.7300899999999997
aF4.7300899999999997
aF4.7300899999999997
aF4.7300899999999997
aF4.7300599999999999
aF4.7300599999999999
asI124484
(lp356
F4.7301099999999998
aF4.7301099999999998
aF4.7301099999999998
aF4.7301099999999998
aF4.7301099999999998
aF4.7301099999999998
aF4.7301099999999998
aF4.7301099999999998
aF4.7301099999999998
aF4.7301099999999998
aF4.7301099999999998
asI122437
(lp357
F5.1793800000000001
aF5.1793800000000001
aF5.1793800000000001
asI124486
(lp358
F4.7301099999999998
aF4.7301099999999998
aF4.7301099999999998
aF4.7301099999999998
aF4.7301399999999996
aF4.7301399999999996
aF4.7301099999999998
aF4.7301099999999998
aF4.7301099999999998
aF4.7301099999999998
aF4.7301000000000002
aF4.7301000000000002
asI122439
(lp359
F5.1793800000000001
aF5.1793899999999997
aF5.1793800000000001
aF5.1793800000000001
aF5.1793800000000001
aF5.1793800000000001
asI122440
(lp360
F5.1793800000000001
aF5.1793800000000001
aF5.1793800000000001
aF5.1793800000000001
aF5.1793800000000001
aF5.1793800000000001
aF5.1793800000000001
aF5.1793800000000001
aF5.1793800000000001
aF5.1793800000000001
aF5.1793800000000001
aF5.1793800000000001
aF5.1793800000000001
aF5.1793800000000001
aF5.1793800000000001
asI124490
(lp361
F4.7301200000000003
aF4.7301200000000003
aF4.7301099999999998
aF4.7301099999999998
aF4.7301099999999998
aF4.7301099999999998
aF4.7301099999999998
asI124491
(lp362
F4.7301099999999998
aF4.7301099999999998
aF4.7301200000000003
aF4.7301200000000003
aF4.7301200000000003
aF4.7301200000000003
aF4.7301399999999996
aF4.7301399999999996
aF4.7301399999999996
aF4.7301399999999996
asI124492
(lp363
F4.7301900000000003
aF4.7301900000000003
aF4.7301399999999996
aF4.7301399999999996
aF4.7301700000000002
aF4.7301700000000002
aF4.7301700000000002
aF4.7301700000000002
aF4.7301399999999996
aF4.7301399999999996
aF4.7301700000000002
aF4.7301700000000002
aF4.7301399999999996
aF4.7301399999999996
asI124493
(lp364
F4.7301700000000002
aF4.7301700000000002
aF4.7301700000000002
aF4.7301700000000002
aF4.7301399999999996
aF4.7301399999999996
aF4.7301399999999996
aF4.7301399999999996
aF4.7301399999999996
aF4.7301399999999996
aF4.7301399999999996
aF4.7301399999999996
aF4.7301599999999997
asI124495
(lp365
F4.7301700000000002
aF4.7301700000000002
aF4.7301700000000002
aF4.7301700000000002
aF4.7301599999999997
aF4.7301599999999997
aF4.7301599999999997
aF4.7301599999999997
aF4.7301700000000002
aF4.7301700000000002
aF4.7301700000000002
aF4.7301700000000002
aF4.7301599999999997
aF4.7301599999999997
asI122448
(lp366
F5.1795400000000003
aF5.1795299999999997
aF5.1795400000000003
aF5.1795400000000003
aF5.1795400000000003
aF5.1795400000000003
aF5.1795400000000003
aF5.1795400000000003
aF5.1795400000000003
aF5.1795400000000003
aF5.1795400000000003
aF5.1795400000000003
aF5.1795400000000003
aF5.1795400000000003
aF5.1795400000000003
asI123832
(lp367
F4.7292399999999999
aF4.7292399999999999
aF4.7299300000000004
aF4.7299300000000004
aF4.7298999999999998
aF4.7298999999999998
aF4.7298999999999998
asI122450
(lp368
F5.1795499999999999
aF5.1795499999999999
aF5.1795499999999999
aF5.1795499999999999
aF5.1795499999999999
aF5.1795499999999999
aF5.1795499999999999
aF5.1795499999999999
aF5.1795499999999999
aF5.1795499999999999
aF5.1795499999999999
aF5.1795499999999999
aF5.1795499999999999
asI122452
(lp369
F5.1795200000000001
aF5.1795200000000001
aF5.1795200000000001
aF5.1795200000000001
aF5.1795200000000001
aF5.1795200000000001
aF5.1795200000000001
aF5.1795200000000001
aF5.1795200000000001
aF5.1795200000000001
aF5.1795200000000001
aF5.1795200000000001
aF5.1795200000000001
aF5.1795200000000001
asI123836
(lp370
F4.7298999999999998
aF4.7298999999999998
aF4.7298999999999998
aF4.7298999999999998
aF4.7299300000000004
aF4.7299300000000004
aF4.7299300000000004
aF4.7299300000000004
aF4.7298900000000001
aF4.7298900000000001
aF4.7292300000000003
aF4.7292300000000003
aF4.7299199999999999
aF4.7299199999999999
asI123831
(lp371
F4.7299100000000003
aF4.7298999999999998
aF4.7292399999999999
aF4.7292399999999999
aF4.7292399999999999
aF4.7292399999999999
aF4.72987
aF4.72987
aF4.72987
aF4.72987
aF4.7298999999999998
aF4.7298999999999998
aF4.7298999999999998
aF4.7298999999999998
asI122535
(lp372
F5.1773899999999999
aF5.1795299999999997
aF5.1795299999999997
aF5.1773899999999999
aF5.1773899999999999
aF5.1773899999999999
aF5.1773899999999999
aF5.1773899999999999
aF5.1773899999999999
aF5.1773899999999999
aF5.1773899999999999
asI122536
(lp373
F5.1904500000000002
aF5.1773899999999999
aF5.1773899999999999
aF5.1904500000000002
aF5.1904500000000002
aF5.1904500000000002
aF5.1904500000000002
aF5.1904500000000002
aF5.1904500000000002
aF5.1904500000000002
aF5.1904500000000002
asI122537
(lp374
F5.1743100000000002
aF5.1904500000000002
aF5.1743100000000002
aF5.1743100000000002
aF5.1743100000000002
aF5.1743100000000002
aF5.1743100000000002
aF5.1743100000000002
aF5.1743100000000002
aF5.1743100000000002
asI122538
(lp375
F5.1823600000000001
aF5.1823600000000001
aF5.1743100000000002
aF5.1743100000000002
aF5.1823600000000001
aF5.1823600000000001
aF5.1823600000000001
aF5.1823600000000001
aF5.1823600000000001
aF5.1823600000000001
aF5.1823600000000001
asI122539
(lp376
F5.1723999999999997
aF5.1823600000000001
aF5.1723999999999997
aF5.1723999999999997
aF5.1723999999999997
aF5.1723999999999997
aF5.1723999999999997
aF5.1723999999999997
aF5.1723999999999997
aF5.1723999999999997
asI122540
(lp377
F5.1853499999999997
aF5.1723999999999997
aF5.1723999999999997
aF5.1853499999999997
aF5.1853499999999997
aF5.1853499999999997
aF5.1853499999999997
aF5.1853499999999997
aF5.1853499999999997
aF5.1853499999999997
aF5.1853499999999997
asI122541
(lp378
F5.1884600000000001
aF5.1853499999999997
aF5.1853499999999997
aF5.1884600000000001
aF5.1884600000000001
aF5.1884600000000001
aF5.1884600000000001
aF5.1884600000000001
aF5.1884600000000001
aF5.1884600000000001
aF5.1884600000000001
asI122542
(lp379
F5.1774300000000002
aF5.1884600000000001
aF5.1774300000000002
aF5.1774300000000002
aF5.1774300000000002
aF5.1774300000000002
aF5.1774300000000002
aF5.1774300000000002
aF5.1774300000000002
asI122545
(lp380
F5.1904599999999999
aF5.1904599999999999
aF5.1904599999999999
aF5.1904599999999999
aF5.1904599999999999
aF5.1904599999999999
aF5.1904599999999999
aF5.1904599999999999
aF5.1904599999999999
asI122548
(lp381
F5.1744899999999996
aF5.1744899999999996
aF5.1744899999999996
aF5.1744899999999996
aF5.1744899999999996
aF5.1744899999999996
aF5.1744899999999996
aF5.1744899999999996
asI122549
(lp382
F5.1824000000000003
aF5.1744899999999996
aF5.1824000000000003
aF5.1824000000000003
aF5.1824000000000003
aF5.1824000000000003
aF5.1824000000000003
aF5.1824000000000003
aF5.1824000000000003
aF5.1824000000000003
aF5.1824000000000003
asI122550
(lp383
F5.1724600000000001
aF5.1824000000000003
aF5.1724600000000001
aF5.1724600000000001
aF5.1724600000000001
aF5.1724600000000001
aF5.1724600000000001
aF5.1724600000000001
aF5.1724600000000001
aF5.1724600000000001
aF5.1724600000000001
asI122551
(lp384
F5.1855399999999996
aF5.1724600000000001
aF5.1855399999999996
aF5.1855399999999996
aF5.1855399999999996
aF5.1855399999999996
aF5.1855399999999996
aF5.1855399999999996
aF5.1855399999999996
aF5.1855399999999996
aF5.1855399999999996
asI122555
(lp385
F5.1884499999999996
aF5.1884499999999996
aF5.1884499999999996
aF5.1884499999999996
aF5.1884499999999996
aF5.1884499999999996
aF5.1884499999999996
asI122556
(lp386
F5.1773899999999999
aF5.1884499999999996
aF5.1884499999999996
aF5.1773899999999999
aF5.1773899999999999
aF5.1773899999999999
aF5.1773899999999999
aF5.1773899999999999
asI122557
(lp387
F5.1904599999999999
aF5.1773899999999999
aF5.1773899999999999
aF5.1904599999999999
aF5.1904599999999999
aF5.1904599999999999
aF5.1904599999999999
aF5.1904599999999999
aF5.1904599999999999
asI126868
(lp388
F5.01267
aF5.01267
aF5.0126900000000001
aF5.0126900000000001
aF5.0126999999999997
aF5.0126999999999997
aF5.0126999999999997
aF5.0126999999999997
aF5.0127199999999998
aF5.0127199999999998
aF5.0126299999999997
aF5.0126299999999997
aF5.0126400000000002
aF5.0126400000000002
asI122559
(lp389
F5.1743199999999998
aF5.1904599999999999
aF5.1743199999999998
aF5.1743199999999998
aF5.1743199999999998
aF5.1743199999999998
aF5.1743199999999998
aF5.1743199999999998
aF5.1743199999999998
aF5.1743199999999998
asI122560
(lp390
F5.1823699999999997
aF5.1743199999999998
aF5.1743199999999998
aF5.1823699999999997
aF5.1823699999999997
aF5.1823699999999997
aF5.1823699999999997
aF5.1823699999999997
aF5.1823699999999997
aF5.1823699999999997
asI122561
(lp391
F5.1723999999999997
aF5.1823699999999997
aF5.1723999999999997
aF5.1723999999999997
aF5.1723999999999997
aF5.1723999999999997
aF5.1723999999999997
aF5.1723999999999997
aF5.1723999999999997
asI122562
(lp392
F5.1854800000000001
aF5.1723999999999997
aF5.1723999999999997
aF5.1854800000000001
aF5.1854800000000001
aF5.1854800000000001
aF5.1854800000000001
aF5.1854800000000001
aF5.1854800000000001
aF5.1854800000000001
asI122563
(lp393
F5.1884300000000003
aF5.1854800000000001
aF5.1854800000000001
aF5.1884300000000003
aF5.1884300000000003
aF5.1884300000000003
aF5.1884300000000003
aF5.1884300000000003
aF5.1884300000000003
aF5.1884300000000003
asI122564
(lp394
F5.1774199999999997
aF5.1884300000000003
aF5.1884300000000003
aF5.1774300000000002
aF5.1774300000000002
aF5.1774300000000002
aF5.1774300000000002
aF5.1774300000000002
aF5.1774300000000002
aF5.1774300000000002
aF5.1774300000000002
asI122576
(lp395
F5.1793399999999998
aF5.1997499999999999
aF5.1997499999999999
aF5.1997499999999999
aF5.1997499999999999
aF5.1997499999999999
aF5.1997499999999999
aF5.1997499999999999
aF5.1997499999999999
aF5.1793399999999998
asI124625
(lp396
F4.72912
aF4.72912
aF4.72912
aF4.72912
aF4.7290900000000002
aF4.7290900000000002
aF4.7290900000000002
aF4.7290900000000002
aF4.7290799999999997
asI124626
(lp397
F4.7386299999999997
aF4.7290799999999997
aF4.7290799999999997
aF4.7386299999999997
aF4.7386200000000001
aF4.7386200000000001
aF4.7386200000000001
aF4.7386200000000001
aF4.7386499999999998
aF4.7386499999999998
aF4.7386200000000001
aF4.7386200000000001
asI122579
(lp398
F5.1793899999999997
aF5.1793899999999997
aF5.1793899999999997
asI124629
(lp399
F4.7266899999999996
aF4.7266899999999996
aF4.72668
aF4.72668
aF4.7267099999999997
aF4.7267099999999997
aF4.7266700000000004
asI124630
(lp400
F4.7267200000000003
aF4.7267200000000003
aF4.7266700000000004
aF4.7266700000000004
aF4.7267200000000003
aF4.7267200000000003
asI124632
(lp401
F4.7275600000000004
aF4.7365700000000004
aF4.7365700000000004
aF4.7365700000000004
aF4.7275600000000004
aF4.7275900000000002
aF4.7275900000000002
aF4.7275900000000002
aF4.7275900000000002
aF4.7275600000000004
aF4.7275600000000004
aF4.7275600000000004
aF4.7275600000000004
asI124633
(lp402
F4.73461
aF4.7275600000000004
aF4.7275600000000004
aF4.73461
aF4.7346599999999999
aF4.7346599999999999
aF4.7346000000000004
aF4.7346000000000004
aF4.7346300000000001
aF4.7346300000000001
aF4.7346199999999996
aF4.7346199999999996
aF4.7346300000000001
aF4.7346300000000001
asI124636
(lp403
F4.7325499999999998
aF4.7325499999999998
aF4.7325600000000003
aF4.7325600000000003
aF4.7325200000000001
aF4.7325200000000001
asI124639
(lp404
F4.7290099999999997
aF4.7325499999999998
aF4.7325499999999998
aF4.7325499999999998
aF4.7290099999999997
aF4.7290400000000004
aF4.7290400000000004
aF4.72905
aF4.72905
aF4.72905
aF4.72905
aF4.72905
asI124640
(lp405
F4.7300300000000002
aF4.72905
aF4.72905
aF4.7300300000000002
aF4.7300300000000002
aF4.7300300000000002
asI124641
(lp406
F4.7300399999999998
aF4.7300399999999998
aF4.7300700000000004
aF4.7300700000000004
aF4.7300599999999999
aF4.7300599999999999
aF4.7300700000000004
aF4.7300700000000004
aF4.7300700000000004
aF4.7300700000000004
asI124671
(lp407
F4.7300500000000003
aF4.7300700000000004
aF4.7300599999999999
aF4.7301000000000002
aF4.7301000000000002
aF4.7300800000000001
aF4.7300800000000001
aF4.7300899999999997
aF4.7300899999999997
aF4.7300899999999997
aF4.7300899999999997
aF4.7300899999999997
aF4.7300899999999997
aF4.7300800000000001
aF4.7300800000000001
asI124672
(lp408
F4.7300899999999997
aF4.7300899999999997
aF4.7301000000000002
aF4.7301000000000002
aF4.7300700000000004
aF4.7300700000000004
aF4.7300800000000001
aF4.7300800000000001
aF4.7300800000000001
aF4.7300800000000001
aF4.7300800000000001
aF4.7300800000000001
aF4.7300800000000001
aF4.7300800000000001
asI124673
(lp409
F4.7300599999999999
aF4.7300599999999999
aF4.7300599999999999
aF4.7300599999999999
aF4.7300500000000003
aF4.7300500000000003
aF4.7300800000000001
aF4.7300800000000001
aF4.7300500000000003
aF4.7300500000000003
aF4.7300800000000001
aF4.7300800000000001
aF4.7300500000000003
aF4.7300500000000003
asI124674
(lp410
F4.7300899999999997
aF4.7300899999999997
aF4.7301099999999998
aF4.7301099999999998
aF4.7300800000000001
aF4.7300800000000001
aF4.7300899999999997
aF4.7300899999999997
aF4.7300800000000001
aF4.7300800000000001
aF4.7300700000000004
aF4.7300700000000004
aF4.7300800000000001
aF4.7300800000000001
asI124675
(lp411
F4.7300800000000001
aF4.7295199999999999
aF4.7295199999999999
aF4.7295199999999999
aF4.7300800000000001
aF4.7301000000000002
aF4.7301000000000002
aF4.7301099999999998
aF4.7301099999999998
aF4.7300800000000001
aF4.7300800000000001
aF4.7300800000000001
aF4.7300800000000001
aF4.7300800000000001
aF4.7300800000000001
aF4.7300800000000001
aF4.7300800000000001
asI124676
(lp412
F4.7300700000000004
aF4.7300700000000004
aF4.7300800000000001
aF4.7300800000000001
aF4.7300700000000004
aF4.7300700000000004
aF4.7300800000000001
aF4.7300800000000001
aF4.7300800000000001
aF4.7300800000000001
aF4.7301200000000003
aF4.7301200000000003
aF4.7300899999999997
aF4.7300899999999997
asI124677
(lp413
F4.7300800000000001
aF4.7300800000000001
aF4.7300800000000001
aF4.7300800000000001
aF4.7301200000000003
aF4.7301200000000003
aF4.7301200000000003
aF4.7301200000000003
aF4.7301200000000003
asI124679
(lp414
F4.7300800000000001
aF4.7300800000000001
aF4.7300800000000001
aF4.7300800000000001
asI124680
(lp415
F4.7301099999999998
aF4.7301099999999998
aF4.7300800000000001
aF4.7300800000000001
aF4.7300800000000001
aF4.7300800000000001
aF4.7300800000000001
aF4.7300800000000001
aF4.7300800000000001
aF4.7300800000000001
aF4.7300599999999999
aF4.7300599999999999
aF4.7300800000000001
aF4.7300800000000001
asI124681
(lp416
F4.7300500000000003
aF4.7300500000000003
aF4.7300800000000001
aF4.7300800000000001
aF4.7300800000000001
aF4.7300800000000001
aF4.7300899999999997
aF4.7300899999999997
aF4.7300899999999997
aF4.7300899999999997
aF4.7300899999999997
aF4.7300899999999997
aF4.7300500000000003
asI126776
(lp417
F5.0106599999999997
aF5.0106599999999997
aF5.0106599999999997
aF5.0106599999999997
aF5.0106599999999997
aF5.0106599999999997
aF5.0106599999999997
aF5.0106599999999997
aF5.01065
aF5.01065
aF5.01065
aF5.01065
asI126777
(lp418
F5.0106299999999999
aF5.0106200000000003
aF5.0106299999999999
aF5.0106400000000004
aF5.0106400000000004
aF5.0106200000000003
aF5.0106200000000003
aF5.0106400000000004
aF5.0106400000000004
aF5.0106400000000004
aF5.0106400000000004
aF5.0106099999999998
aF5.0106099999999998
asI126778
(lp419
F5.0106299999999999
aF5.0106400000000004
aF5.0106400000000004
aF5.0106299999999999
aF5.0106099999999998
aF5.0106099999999998
aF5.0106000000000002
aF5.0106000000000002
aF5.0106299999999999
aF5.0106299999999999
aF5.0106299999999999
aF5.0106299999999999
aF5.0106000000000002
aF5.0106000000000002
aF5.0106299999999999
asI126779
(lp420
F5.0106099999999998
aF5.0106299999999999
aF5.0106299999999999
aF5.0106299999999999
aF5.0106099999999998
aF5.0106400000000004
aF5.0106400000000004
aF5.0106000000000002
aF5.0106000000000002
aF5.0106299999999999
aF5.0106299999999999
aF5.0106099999999998
aF5.0106099999999998
aF5.0106000000000002
aF5.0106000000000002
asI126780
(lp421
F5.0266200000000003
aF5.0106000000000002
aF5.0106000000000002
aF5.0106000000000002
aF5.0266200000000003
aF5.0266799999999998
aF5.0266799999999998
aF5.0266799999999998
aF5.0266799999999998
aF5.0266500000000001
aF5.0266500000000001
aF5.0266500000000001
aF5.0266500000000001
aF5.0266500000000001
aF5.0266500000000001
asI126782
(lp422
F5.0087099999999998
aF5.0087099999999998
aF5.0087299999999999
aF5.0087299999999999
aF5.0087099999999998
aF5.0087099999999998
aF5.0087099999999998
aF5.0087099999999998
aF5.0087599999999997
aF5.0087599999999997
aF5.0087400000000004
aF5.0087400000000004
asI126783
(lp423
F5.0154699999999997
aF5.0087200000000003
aF5.0087200000000003
aF5.0087200000000003
aF5.0154699999999997
aF5.01553
aF5.01553
aF5.0155000000000003
aF5.0155000000000003
aF5.01553
aF5.01553
aF5.0155000000000003
aF5.0155000000000003
aF5.0155000000000003
aF5.0155000000000003
asI126814
(lp424
F5.0154800000000002
aF5.0154800000000002
aF5.0155399999999997
aF5.0155399999999997
aF5.0155599999999998
aF5.0155599999999998
aF5.0155700000000003
aF5.0155700000000003
aF5.0155099999999999
aF5.0155099999999999
asI126815
(lp425
F5.0206799999999996
aF5.0155099999999999
aF5.0206799999999996
aF5.0206499999999998
aF5.0206499999999998
aF5.0206799999999996
aF5.0206799999999996
aF5.0206799999999996
aF5.0206799999999996
aF5.0206799999999996
aF5.0206799999999996
asI126817
(lp426
F5.0067599999999999
aF5.0067599999999999
aF5.0067599999999999
aF5.0067599999999999
aF5.0067599999999999
aF5.0067599999999999
aF5.0067599999999999
aF5.0067599999999999
aF5.0067599999999999
asI126821
(lp427
F5.0176800000000004
aF5.0176800000000004
aF5.0177100000000001
aF5.0177100000000001
aF5.0176800000000004
aF5.0176800000000004
aF5.0176499999999997
aF5.0176499999999997
aF5.0177100000000001
aF5.0177100000000001
aF5.0177100000000001
asI126823
(lp428
F5.0107299999999997
aF5.0107299999999997
aF5.0107900000000001
aF5.0107900000000001
aF5.0107600000000003
aF5.0107600000000003
aF5.0107900000000001
aF5.0107900000000001
aF5.0107600000000003
aF5.0107600000000003
aF5.0107299999999997
aF5.0107299999999997
aF5.0107699999999999
asI126824
(lp429
F5.0107100000000004
aF5.0107699999999999
aF5.0107699999999999
aF5.0107699999999999
aF5.0107100000000004
aF5.0107600000000003
aF5.0107600000000003
aF5.0107699999999999
aF5.0107699999999999
aF5.0107600000000003
aF5.0107600000000003
aF5.0107299999999997
aF5.0107299999999997
aF5.0107400000000002
aF5.0107400000000002
aF5.0107100000000004
asI126825
(lp430
F5.0107400000000002
aF5.0107100000000004
aF5.0107100000000004
aF5.0107400000000002
aF5.0107100000000004
aF5.0107100000000004
aF5.0107600000000003
aF5.0107600000000003
aF5.0107900000000001
aF5.0107900000000001
aF5.0107400000000002
aF5.0107400000000002
aF5.0107499999999998
aF5.0107499999999998
aF5.0107799999999996
asI126831
(lp431
F5.0126400000000002
aF5.0126400000000002
aF5.01267
aF5.01267
aF5.0126099999999996
aF5.0126099999999996
aF5.0126499999999998
asI126858
(lp432
F5.0125900000000003
aF4.9988099999999998
aF5.0125900000000003
aF5.0126400000000002
aF5.0126400000000002
aF5.0126099999999996
aF5.0126099999999996
aF5.0126099999999996
aF5.0126099999999996
aF5.0126099999999996
aF5.0126099999999996
aF5.0126400000000002
aF5.0126400000000002
aF5.0126099999999996
aF5.0126099999999996
asI126859
(lp433
F5.0126600000000003
aF5.0126400000000002
aF5.0126600000000003
aF5.01267
aF5.01267
aF5.0126400000000002
aF5.0126400000000002
aF5.0126900000000001
aF5.0126900000000001
aF5.01267
aF5.01267
aF5.0126400000000002
aF5.0126400000000002
aF5.0126600000000003
asI126862
(lp434
F5.0126600000000003
aF5.01267
aF5.0126600000000003
aF5.0126600000000003
aF5.01267
aF5.01267
aF5.0126400000000002
aF5.0126400000000002
aF5.01267
asI122767
(lp435
F5.19034
aF5.1770199999999997
aF5.19034
aF5.19034
aF5.19034
aF5.19034
aF5.19034
aF5.19034
aF5.19034
aF5.19034
aF5.19034
asI122768
(lp436
F5.1740500000000003
aF5.19034
aF5.1740500000000003
aF5.1740500000000003
aF5.1740500000000003
aF5.1740500000000003
aF5.1740500000000003
aF5.1740500000000003
aF5.1740500000000003
aF5.1740500000000003
asI122769
(lp437
F5.1820500000000003
aF5.1740500000000003
aF5.1820500000000003
aF5.1820500000000003
aF5.1820500000000003
aF5.1820500000000003
aF5.1820500000000003
aF5.1820500000000003
aF5.1820500000000003
aF5.1820500000000003
asI122770
(lp438
F5.1724300000000003
aF5.1724300000000003
aF5.1724300000000003
aF5.1724300000000003
aF5.1724300000000003
aF5.1724300000000003
aF5.1724300000000003
aF5.1724300000000003
aF5.1724300000000003
asI122772
(lp439
F5.1848999999999998
aF5.1848999999999998
aF5.1848999999999998
aF5.1848999999999998
aF5.1848999999999998
aF5.1848999999999998
aF5.1848999999999998
aF5.1848999999999998
aF5.1848999999999998
asI126869
(lp440
F5.01267
aF5.01267
aF5.0127199999999998
aF5.0127199999999998
aF5.0126900000000001
aF5.0126900000000001
aF5.0127199999999998
aF5.0127199999999998
aF5.0127199999999998
aF5.0127199999999998
aF5.0127499999999996
aF5.0127499999999996
aF5.0127199999999998
aF5.0127199999999998
asI126870
(lp441
F5.0126600000000003
aF5.0126600000000003
aF5.0127100000000002
aF5.0127100000000002
aF5.0126799999999996
aF5.0126799999999996
aF5.0127100000000002
aF5.0127100000000002
aF5.0126799999999996
aF5.0126799999999996
aF5.0126499999999998
aF5.0126499999999998
aF5.0126499999999998
aF5.0126499999999998
asI126871
(lp442
F5.0126499999999998
aF5.0126499999999998
aF5.0126799999999996
aF5.0126799999999996
aF5.01267
aF5.01267
aF5.0126799999999996
aF5.0126799999999996
aF5.01274
aF5.01274
aF5.0126799999999996
aF5.0126799999999996
aF5.0126799999999996
aF5.0126799999999996
asI122776
(lp443
F5.1767899999999996
aF5.1767899999999996
aF5.1767899999999996
aF5.1767899999999996
aF5.1767899999999996
aF5.1767899999999996
aF5.1767899999999996
aF5.1767899999999996
asI122777
(lp444
F5.1893599999999998
aF5.1767899999999996
aF5.1767899999999996
aF5.1893599999999998
aF5.1893599999999998
aF5.1893599999999998
aF5.1893599999999998
aF5.1893599999999998
aF5.1893599999999998
aF5.1893599999999998
aF5.1893599999999998
asI122778
(lp445
F5.1733500000000001
aF5.1893599999999998
aF5.1893599999999998
aF5.1733500000000001
aF5.1733500000000001
aF5.1733500000000001
aF5.1733500000000001
aF5.1733500000000001
aF5.1733500000000001
aF5.1733500000000001
aF5.1733500000000001
asI122779
(lp446
F5.1864100000000004
aF5.1733500000000001
aF5.1733500000000001
aF5.1864100000000004
aF5.1864100000000004
aF5.1864100000000004
aF5.1864100000000004
aF5.1864100000000004
aF5.1864100000000004
aF5.1864100000000004
aF5.1864100000000004
asI122780
(lp447
F5.1752799999999999
aF5.1864100000000004
aF5.1864100000000004
aF5.1752799999999999
asI122781
(lp448
F5.1752700000000003
aF5.1752700000000003
aF5.1752700000000003
aF5.1752700000000003
aF5.1752700000000003
aF5.1752700000000003
aF5.1752700000000003
asI122812
(lp449
F5.1790099999999999
aF5.1790099999999999
aF5.1790099999999999
aF5.1790099999999999
aF5.1790099999999999
aF5.1790099999999999
aF5.1790099999999999
aF5.1790099999999999
aF5.1790099999999999
aF5.1790099999999999
aF5.1790099999999999
aF5.1790099999999999
aF5.1790099999999999
asI122813
(lp450
F5.1790399999999996
aF5.1790099999999999
aF5.1790399999999996
aF5.1790399999999996
aF5.1790399999999996
aF5.1790399999999996
aF5.1790399999999996
aF5.1790399999999996
aF5.1790399999999996
aF5.1790399999999996
aF5.1790399999999996
aF5.1790399999999996
asI122815
(lp451
F5.1790500000000002
aF5.1790500000000002
aF5.1790500000000002
aF5.1790500000000002
aF5.1790500000000002
aF5.1790500000000002
aF5.1790500000000002
aF5.1790500000000002
aF5.1790500000000002
aF5.1790500000000002
aF5.1790500000000002
aF5.1790500000000002
aF5.1790500000000002
asI122816
(lp452
F5.1790700000000003
aF5.1790700000000003
aF5.1790700000000003
aF5.1790700000000003
aF5.1790700000000003
aF5.1790700000000003
aF5.1790700000000003
aF5.1790700000000003
aF5.1790700000000003
aF5.1790700000000003
aF5.1790700000000003
asI122819
(lp453
F5.1790700000000003
aF5.1790700000000003
aF5.1790700000000003
aF5.1790700000000003
aF5.1790700000000003
aF5.1790700000000003
aF5.1790700000000003
asI122820
(lp454
F5.1790399999999996
aF5.1790399999999996
aF5.1790399999999996
aF5.1790399999999996
aF5.1790399999999996
aF5.1790399999999996
aF5.1790399999999996
aF5.1790399999999996
aF5.1790399999999996
aF5.1790399999999996
aF5.1790399999999996
aF5.1790399999999996
aF5.1790399999999996
aF5.1790399999999996
asI122821
(lp455
F5.1790599999999998
aF5.1790599999999998
aF5.1790599999999998
aF5.1790599999999998
aF5.1790599999999998
aF5.1790599999999998
aF5.1790599999999998
aF5.1790599999999998
aF5.1790599999999998
aF5.1790599999999998
aF5.1790599999999998
aF5.1790599999999998
as.