(dp1
I129707
I3460
sI125329
I7334
sI127661
I8232
sI130254
I7315
sI128316
I8269
sI127662
I18496
sI124954
I12117
sI127663
I18517
sI128305
I9204
sI124960
I2625
sI124961
I12344
sI124117
I3642
sI124963
I11104
sI124966
I4519
sI124967
I7665
sI124968
I8135
sI124969
I8957
sI124970
I8965
sI124971
I8832
sI124972
I8313
sI124973
I8834
sI129070
I19368
sI129071
I19179
sI129072
I19507
sI129073
I20049
sI129715
I14422
sI129080
I13955
sI129716
I16927
sI130460
I16227
sI129710
I4298
sI127059
I6704
sI127061
I13815
sI127062
I13766
sI122967
I3564
sI127064
I13597
sI127065
I13729
sI127066
I13328
sI127067
I13794
sI127068
I13587
sI129711
I3725
sI127070
I14095
sI127071
I11764
sI127072
I16549
sI127073
I6891
sI127074
I10141
sI126506
I5933
sI126652
I10691
sI126653
I14199
sI122993
I5655
sI122995
I6942
sI122996
I3769
sI122998
I6861
sI122999
I6368
sI123001
I6807
sI123002
I6794
sI123003
I7361
sI123004
I6850
sI126656
I14361
sI123011
I9562
sI123012
I4552
sI127110
I11825
sI126657
I13975
sI123016
I10657
sI127113
I11083
sI123018
I11925
sI123019
I10756
sI123020
I8257
sI123021
I14631
sI123022
I14917
sI123023
I15254
sI123024
I16343
sI123025
I14349
sI123026
I15366
sI123027
I14713
sI123028
I14215
sI123029
I14859
sI129713
I13313
sI123034
I6315
sI123035
I4773
sI123036
I14898
sI123038
I9739
sI123039
I16042
sI123040
I15881
sI123041
I14784
sI123042
I15920
sI123043
I15879
sI123044
I12165
sI130259
I10024
sI125297
I7570
sI126664
I14191
sI126665
I14052
sI126666
I14198
sI125119
I5373
sI125120
I7753
sI125121
I6143
sI125122
I6886
sI126667
I14539
sI125125
I4942
sI125126
I7802
sI125127
I8467
sI126668
I14238
sI124279
I8684
sI123938
I10926
sI126669
I14217
sI126670
I13843
sI130425
I17224
sI127695
I10316
sI130426
I15566
sI125158
I8265
sI124625
I8486
sI125163
I3012
sI127213
I5781
sI125166
I11571
sI125309
I8494
sI125168
I14464
sI125169
I15139
sI125170
I14370
sI123953
I13415
sI127221
I11634
sI127222
I13376
sI123945
I12474
sI125176
I14440
sI125177
I14221
sI125178
I14376
sI125311
I8368
sI127228
I9861
sI127229
I10507
sI127231
I11266
sI127234
I9128
sI127235
I11317
sI127237
I5911
sI127238
I10778
sI127240
I14760
sI127241
I10614
sI127703
I19174
sI130467
I12877
sI127247
I7136
sI127249
I6941
sI127250
I12543
sI124291
I10313
sI124633
I10914
sI123951
I4709
sI123164
I3456
sI123165
I1921
sI123166
I7243
sI123167
I5856
sI123168
I7448
sI123169
I7985
sI123170
I4223
sI123172
I5578
sI124294
I7954
sI123175
I5934
sI123176
I6803
sI123178
I3139
sI129065
I19843
sI127712
I5701
sI124299
I5404
sI125254
I6915
sI124641
I9191
sI125256
I7291
sI124300
I10894
sI123959
I15332
sI124481
I17386
sI125261
I8773
sI125262
I6832
sI124301
I12411
sI123960
I15436
sI124644
I10029
sI123962
I14927
sI125285
I4472
sI125286
I5437
sI125287
I6959
sI125290
I6868
sI124647
I12925
sI125293
I5766
sI125294
I7384
sI125295
I6571
sI123624
I16553
sI126856
I14545
sI125303
I9826
sI125305
I9521
sI125307
I8829
sI125308
I7608
sI124650
I14869
sI125310
I7296
sI124309
I13717
sI125312
I11581
sI124651
I15284
sI125316
I14790
sI125317
I13791
sI125318
I14744
sI124652
I14869
sI124311
I3344
sI125325
I14864
sI125326
I14069
sI125327
I12623
sI124312
I15078
sI125331
I10830
sI125335
I12493
sI125337
I13609
sI125338
I13335
sI125339
I11884
sI125340
I15707
sI125342
I14625
sI125343
I13229
sI125344
I14949
sI125345
I14847
sI125346
I12803
sI125347
I8179
sI125348
I2848
sI121585
I11384
sI125353
I14313
sI125354
I13656
sI125357
I12868
sI125358
I15031
sI130461
I17181
sI130462
I17425
sI123636
I13986
sI130200
I15718
sI130463
I18510
sI129693
I4993
sI129069
I3478
sI130464
I15953
sI123638
I2277
sI124321
I11579
sI124322
I12294
sI123640
I15767
sI124323
I2447
sI123641
I15543
sI124324
I11296
sI125291
I6708
sI130469
I18040
sI124326
I14786
sI123369
I13316
sI123370
I15389
sI125351
I6423
sI129519
I1855
sI124328
I16196
sI123378
I10237
sI123380
I12746
sI123382
I10764
sI124329
I16902
sI129529
I6663
sI129531
I6654
sI130271
I20683
sI124333
I17710
sI129521
I3100
sI124334
I4957
sI124335
I8565
sI124336
I17915
sI127924
I8206
sI126862
I9174
sI124337
I17933
sI130272
I21475
sI130207
I16525
sI126658
I10814
sI128303
I9703
sI130205
I15637
sI129728
I13339
sI127588
I7234
sI127589
I12432
sI127592
I13228
sI127594
I6990
sI129524
I4421
sI127598
I6971
sI127600
I6882
sI127601
I8999
sI127602
I7915
sI127603
I6335
sI127606
I8503
sI127610
I10347
sI127611
I12255
sI127612
I13886
sI127613
I14655
sI127615
I13743
sI127619
I10237
sI127620
I15174
sI127621
I14314
sI127622
I15724
sI127623
I18107
sI129672
I8061
sI127625
I14204
sI127626
I15549
sI127627
I12696
sI129676
I3237
sI127630
I9526
sI127631
I15198
sI129680
I6413
sI129681
I4126
sI127635
I6488
sI127637
I15986
sI127638
I12707
sI129687
I8891
sI129730
I12287
sI127641
I3607
sI124820
I4194
sI127643
I16432
sI127644
I16171
sI127645
I15552
sI127646
I15152
sI127647
I14687
sI127650
I12417
sI127651
I16317
sI127652
I15555
sI127654
I11070
sI127657
I15912
sI127659
I13136
sI129708
I4165
sI123565
I6313
sI123566
I14711
sI123567
I15002
sI123568
I15087
sI123569
I14158
sI123570
I15496
sI127667
I5613
sI127668
I17688
sI127670
I13033
sI129719
I8909
sI127673
I17501
sI127925
I12048
sI129723
I5593
sI129724
I4065
sI127677
I13317
sI127678
I17286
sI127680
I18215
sI127681
I18088
sI127682
I17850
sI127683
I18218
sI127684
I18351
sI127685
I17696
sI123591
I7503
sI123592
I9753
sI127690
I13366
sI128307
I4702
sI123596
I9462
sI123597
I11240
sI123598
I8547
sI123599
I10957
sI123600
I10649
sI123601
I13041
sI123602
I11180
sI123603
I7180
sI123604
I10395
sI124140
I15949
sI123606
I8470
sI123607
I3208
sI123608
I14105
sI123610
I16182
sI123611
I16610
sI123612
I16082
sI127710
I15455
sI123615
I10623
sI123616
I17429
sI123617
I16461
sI123618
I16834
sI123619
I16787
sI123620
I16683
sI123621
I15302
sI129712
I13819
sI123623
I16193
sI121576
I10190
sI127721
I18679
sI127722
I16935
sI121579
I4200
sI121580
I6889
sI121581
I13008
sI121582
I1829
sI123631
I3238
sI123632
I14063
sI123633
I12311
sI123635
I16093
sI121588
I4003
sI123637
I10733
sI121590
I2230
sI123639
I16611
sI121592
I9891
sI121593
I12363
sI123643
I18343
sI123644
I15572
sI123645
I14949
sI130626
I4831
sI121608
I5448
sI121609
I9679
sI130255
I4006
sI121623
I2036
sI121624
I12456
sI127108
I8486
sI127111
I11839
sI127112
I11785
sI129844
I2540
sI129845
I17905
sI129847
I18491
sI129848
I13977
sI129849
I18660
sI129850
I5694
sI129851
I8949
sI129852
I2659
sI127114
I12122
sI129855
I18015
sI129857
I16271
sI124962
I10905
sI129860
I18535
sI129861
I18348
sI129863
I20993
sI129864
I20748
sI127116
I9567
sI128145
I9806
sI124486
I15524
sI128146
I10142
sI129853
I15047
sI127214
I6943
sI123767
I5639
sI123768
I11071
sI123771
I13187
sI123772
I13218
sI123773
I12745
sI123774
I12718
sI123775
I10622
sI127692
I10266
sI123781
I11506
sI123782
I9652
sI123783
I9943
sI123784
I9098
sI124146
I9636
sI123786
I7973
sI123787
I8916
sI123789
I7475
sI123790
I8720
sI127215
I7033
sI123792
I15180
sI123793
I3968
sI123794
I25613
sI123796
I7752
sI123800
I16101
sI123803
I16719
sI123809
I11168
sI123810
I17195
sI123811
I17160
sI123812
I16748
sI123813
I16853
sI123814
I18001
sI123815
I16618
sI123816
I16475
sI121769
I8119
sI123818
I15994
sI121771
I11336
sI121772
I11647
sI123821
I8088
sI121774
I2299
sI123823
I17447
sI121778
I12066
sI121779
I4073
sI121780
I14032
sI121781
I11104
sI123830
I18751
sI123831
I19447
sI123832
I9654
sI123833
I17405
sI127931
I3210
sI123836
I19134
sI127933
I4660
sI127694
I6420
sI129526
I3603
sI125171
I2669
sI127217
I6207
sI130423
I17684
sI127218
I4139
sI127698
I13141
sI130628
I16645
sI126673
I9946
sI127219
I4715
sI130629
I3896
sI129714
I13363
sI121884
I3878
sI121885
I10727
sI121887
I9008
sI121889
I8304
sI121890
I8290
sI123939
I16717
sI121892
I7530
sI123941
I6830
sI123944
I6462
sI121897
I10836
sI121898
I11059
sI121899
I8953
sI130630
I12339
sI121901
I8279
sI121902
I3062
sI121903
I8319
sI121904
I9748
sI121905
I8882
sI121906
I4762
sI123955
I15062
sI123956
I15903
sI123958
I14756
sI121911
I9180
sI121912
I9306
sI123961
I16827
sI121914
I3622
sI121915
I9617
sI121916
I10343
sI121917
I11751
sI121918
I9810
sI121920
I8477
sI121924
I2415
sI121925
I9412
sI121926
I9709
sI121927
I11203
sI121932
I14057
sI121933
I14395
sI121936
I10216
sI121939
I4541
sI121940
I15250
sI128869
I3150
sI128871
I19827
sI128872
I18091
sI128115
I3735
sI127700
I18442
sI128117
I3769
sI128121
I6949
sI128122
I8474
sI128123
I8543
sI128124
I8562
sI128125
I8393
sI124437
I4906
sI128128
I5056
sI128130
I8794
sI128131
I9273
sI126473
I14080
sI128133
I9300
sI128134
I10137
sI128135
I9865
sI128137
I7488
sI128138
I9222
sI128141
I4879
sI128144
I9453
sI126488
I12408
sI127701
I18127
sI128147
I9403
sI128148
I9444
sI128149
I10687
sI128150
I8926
sI130199
I16438
sI128152
I9505
sI128153
I9830
sI128154
I11183
sI130203
I8397
sI130204
I4761
sI126490
I13470
sI130206
I25221
sI129221
I1727
sI130209
I17719
sI130210
I18768
sI129865
I10845
sI126492
I15272
sI124103
I5287
sI125315
I16869
sI124080
I8876
sI124081
I9175
sI129066
I18508
sI124084
I7836
sI124085
I8339
sI124086
I7449
sI124087
I7989
sI124089
I4612
sI124091
I9480
sI124092
I5598
sI130250
I18063
sI126837
I13685
sI126496
I4052
sI130251
I22411
sI124102
I21006
sI123952
I14760
sI124293
I8576
sI130249
I9314
sI124106
I4893
sI124107
I4806
sI130252
I19614
sI124109
I4734
sI124110
I5199
sI124111
I8476
sI122064
I3308
sI124113
I12853
sI122066
I3018
sI124115
I16202
sI122069
I6786
sI122070
I9775
sI122071
I9949
sI122072
I9860
sI122073
I10688
sI122074
I9773
sI124123
I15671
sI122076
I10049
sI122077
I7741
sI124126
I14466
sI122079
I14128
sI122080
I11117
sI122081
I12403
sI128863
I14052
sI122083
I8246
sI124132
I8509
sI122085
I7536
sI124134
I7972
sI122089
I8005
sI124138
I16699
sI122091
I11808
sI122092
I10988
sI124114
I15959
sI122094
I8787
sI129068
I13969
sI124144
I14790
sI122097
I9239
sI122098
I11211
sI122099
I13922
sI124148
I3300
sI122101
I13723
sI122102
I14146
sI126505
I8367
sI124152
I16424
sI122105
I11889
sI124154
I15792
sI124155
I4733
sI122108
I1831
sI122109
I7695
sI122111
I9146
sI122112
I14632
sI122114
I3956
sI126507
I5315
sI122116
I4146
sI122117
I13237
sI122118
I10489
sI126508
I15128
sI122123
I13658
sI122124
I14109
sI122125
I14811
sI122126
I14441
sI124121
I8528
sI126855
I14914
sI126252
I5792
sI126253
I3224
sI126254
I5042
sI124125
I16235
sI126256
I4648
sI126257
I9106
sI126258
I7695
sI126259
I4165
sI126260
I10212
sI128309
I4759
sI128310
I3709
sI126263
I1893
sI128312
I4391
sI126265
I13303
sI126266
I17135
sI124127
I16563
sI126268
I13960
sI126858
I15115
sI124128
I15629
sI130614
I12064
sI124129
I16030
sI130247
I6306
sI124812
I8785
sI130248
I15828
sI129685
I7844
sI130616
I18153
sI130275
I17357
sI124814
I8764
sI130276
I20568
sI127206
I2352
sI125159
I14449
sI126866
I11174
sI130420
I11099
sI130421
I17307
sI124137
I16149
sI130424
I17141
sI124281
I9884
sI124282
I8554
sI130427
I19719
sI130429
I7088
sI126869
I15426
sI124289
I4451
sI124290
I10849
sI124139
I16445
sI122245
I7293
sI122246
I9478
sI122247
I12842
sI124296
I15557
sI122249
I7472
sI122251
I6804
sI122252
I8900
sI122253
I9899
sI124302
I12744
sI124141
I16302
sI122256
I5816
sI130470
I17162
sI124142
I2963
sI122263
I1958
sI122264
I5718
sI124313
I15842
sI124314
I15578
sI124315
I14069
sI122268
I12403
sI122269
I11512
sI124318
I8792
sI124319
I15312
sI122272
I6256
sI122273
I13353
sI122274
I13943
sI122275
I7171
sI122276
I5049
sI122277
I15762
sI122278
I3877
sI122279
I8311
sI122280
I15727
sI122281
I2910
sI124330
I11769
sI122283
I11188
sI122285
I14953
sI122286
I13598
sI122287
I11813
sI122288
I14551
sI122289
I10656
sI124338
I17739
sI122291
I6699
sI122292
I3620
sI122293
I12344
sI122294
I12813
sI127097
I7191
sI122296
I14656
sI122297
I16196
sI122298
I15819
sI124149
I7245
sI124491
I12333
sI124150
I14560
sI129689
I8483
sI125175
I14575
sI124493
I15098
sI127224
I8634
sI128116
I4364
sI126499
I1552
sI124153
I16326
sI124495
I16776
sI124156
I16658
sI126485
I14272
sI126449
I7662
sI126451
I3693
sI126453
I1976
sI126454
I6270
sI123817
I16508
sI124159
I9244
sI126460
I7408
sI126461
I10888
sI126462
I3168
sI123826
I4057
sI126464
I7207
sI126465
I9763
sI126467
I5316
sI129691
I4560
sI126469
I8549
sI126471
I8434
sI126472
I14063
sI123820
I14738
sI126475
I7981
sI126476
I4123
sI126477
I14019
sI126478
I14550
sI126479
I13828
sI126480
I12269
sI126483
I12337
sI124436
I4491
sI123822
I15704
sI126487
I11153
sI124440
I8147
sI125259
I9181
sI124444
I6703
sI124445
I6137
sI126494
I7651
sI124448
I6827
sI124449
I6662
sI124450
I7916
sI124451
I10611
sI126503
I2893
sI122409
I6032
sI122410
I10729
sI122411
I9854
sI122412
I10122
sI122413
I9450
sI122414
I9984
sI122415
I8479
sI122416
I5155
sI122418
I11537
sI122420
I12270
sI122422
I6926
sI122423
I13315
sI122424
I13608
sI122425
I13409
sI122426
I13249
sI122427
I11688
sI122428
I13403
sI122429
I4848
sI122430
I12605
sI123829
I19238
sI122432
I11843
sI122433
I6346
sI122434
I3183
sI124484
I14004
sI122437
I2061
sI122438
I3614
sI122439
I4711
sI122440
I14254
sI124490
I6964
sI122443
I14724
sI124492
I16739
sI122445
I9040
sI122447
I7443
sI122448
I14913
sI122449
I6303
sI122450
I14103
sI122452
I15703
sI127642
I4465
sI129527
I4818
sI127932
I4846
sI129219
I6132
sI122535
I9361
sI122536
I9124
sI122537
I9432
sI122538
I9105
sI122539
I9218
sI122540
I8578
sI122541
I8565
sI122542
I8001
sI122545
I8250
sI122548
I7962
sI122549
I9787
sI122550
I9375
sI122551
I9367
sI122555
I6041
sI122556
I6137
sI122557
I6008
sI126868
I15244
sI122559
I8300
sI122560
I8088
sI122561
I8085
sI122562
I7842
sI122563
I7606
sI122564
I8723
sI126662
I9844
sI122568
I7419
sI122569
I6028
sI122570
I11841
sI122571
I11640
sI122572
I12214
sI122573
I12341
sI122574
I9231
sI122575
I8446
sI122576
I2574
sI122577
I9434
sI124626
I10972
sI122579
I3181
sI124629
I7739
sI124630
I4737
sI124632
I12214
sI122585
I11872
sI122586
I11792
sI122587
I11819
sI124636
I5697
sI122589
I10637
sI122590
I10180
sI124639
I8719
sI124640
I2885
sI122593
I4891
sI122594
I5423
sI124643
I2477
sI122596
I9323
sI124645
I14740
sI122599
I2893
sI124648
I14456
sI122602
I12421
sI122603
I12928
sI122604
I12676
sI122605
I12852
sI122606
I3986
sI124655
I7805
sI124657
I15473
sI124658
I11687
sI124659
I14306
sI124660
I13102
sI124663
I4692
sI124665
I13557
sI124667
I8277
sI124668
I15654
sI129709
I5134
sI124671
I16186
sI124672
I17537
sI124673
I17701
sI124674
I17831
sI124675
I17931
sI124676
I17963
sI124677
I11237
sI124679
I4435
sI124680
I18022
sI124681
I16250
sI127927
I8482
sI126255
I3697
sI128132
I8628
sI127723
I14731
sI128306
I13845
sI127099
I10141
sI127928
I4174
sI129673
I3162
sI126776
I11838
sI126777
I11744
sI126778
I12664
sI126779
I11248
sI126780
I8876
sI129674
I2414
sI126782
I10642
sI126783
I10502
sI129675
I3369
sI128849
I1740
sI128852
I1746
sI129678
I3308
sI128313
I6675
sI128856
I8368
sI128857
I10952
sI128860
I15716
sI128314
I5442
sI126814
I8968
sI126815
I9040
sI126817
I8766
sI128866
I15415
sI127725
I15676
sI128868
I10431
sI126821
I7376
sI128870
I2201
sI126823
I10925
sI126824
I12835
sI126825
I12483
sI126831
I5677
sI126832
I13356
sI126833
I14578
sI126834
I14623
sI126835
I14856
sI126836
I14282
sI126651
I1383
sI126838
I5812
sI126839
I12950
sI126842
I10842
sI128315
I7679
sI126845
I9767
sI126846
I14831
sI126847
I13739
sI126851
I8695
sI126853
I14827
sI126854
I15068
sI124807
I4781
sI124808
I9574
sI124809
I5180
sI124810
I4656
sI126859
I14014
sI124112
I7523
sI122766
I8467
sI122767
I9669
sI122768
I10305
sI122769
I9560
sI122770
I9576
sI122772
I7944
sI122773
I8879
sI126870
I15299
sI126871
I16063
sI122776
I6655
sI122777
I9046
sI122778
I9435
sI122779
I9353
sI122780
I2069
sI122781
I7781
sI122783
I9688
sI123828
I5567
sI122785
I10659
sI122786
I7516
sI122787
I4342
sI122789
I11329
sI129692
I6387
sI125255
I9225
sI122796
I13346
sI122797
I11691
sI122798
I11877
sI122799
I12463
sI122800
I11461
sI122801
I11639
sI122802
I13490
sI122803
I12974
sI122804
I13089
sI122805
I10925
sI125257
I9641
sI122808
I2706
sI122809
I8579
sI122810
I11576
sI122812
I14836
sI122813
I12820
sI122815
I14522
sI122816
I13482
sI122819
I6330
sI122820
I16393
sI122821
I14955
sI125260
I7458
sI127115
I12532
sI127702
I17994
s.